	.file	"service.c"
	.text
.Ltext0:
	.cfi_sections	.debug_frame
	.file 0 "/home/aidanb/Greenwood-OS/filesystem/demos/service" "service.c"
	.globl	serial
	.section	.bss
	.align 4
	.type	serial, @object
	.size	serial, 4
serial:
	.zero	4
	.section	.rodata
.LC0:
	.string	"Fibonacci Series: %d, %d, "
.LC1:
	.string	"%d, "
	.text
	.globl	fib
	.type	fib, @function
fib:
.LFB0:
	.file 1 "service.c"
	.loc 1 11 16
	.cfi_startproc
	pushl	%ebp
	.cfi_def_cfa_offset 8
	.cfi_offset 5, -8
	movl	%esp, %ebp
	.cfi_def_cfa_register 5
	pushl	%ebx
	subl	$20, %esp
	.cfi_offset 3, -12
	call	__x86.get_pc_thunk.bx
	addl	$_GLOBAL_OFFSET_TABLE_, %ebx
	.loc 1 15 9
	movl	$0, -24(%ebp)
	.loc 1 15 17
	movl	$1, -16(%ebp)
	.loc 1 18 9
	movl	-24(%ebp), %edx
	movl	-16(%ebp), %eax
	addl	%edx, %eax
	movl	%eax, -20(%ebp)
	.loc 1 21 5
	movl	serial@GOT(%ebx), %eax
	movl	(%eax), %eax
	pushl	-16(%ebp)
	pushl	-24(%ebp)
	leal	.LC0@GOTOFF(%ebx), %edx
	pushl	%edx
	pushl	%eax
	call	fprintf@PLT
	addl	$16, %esp
	.loc 1 24 12
	movl	$3, -12(%ebp)
	.loc 1 24 5
	jmp	.L2
.L3:
	.loc 1 25 9
	movl	serial@GOT(%ebx), %eax
	movl	(%eax), %eax
	subl	$4, %esp
	pushl	-20(%ebp)
	leal	.LC1@GOTOFF(%ebx), %edx
	pushl	%edx
	pushl	%eax
	call	fprintf@PLT
	addl	$16, %esp
	.loc 1 26 12
	movl	-16(%ebp), %eax
	movl	%eax, -24(%ebp)
	.loc 1 27 12
	movl	-20(%ebp), %eax
	movl	%eax, -16(%ebp)
	.loc 1 28 18
	movl	-24(%ebp), %edx
	movl	-16(%ebp), %eax
	addl	%edx, %eax
	movl	%eax, -20(%ebp)
	.loc 1 24 25 discriminator 3
	incl	-12(%ebp)
.L2:
	.loc 1 24 19 discriminator 1
	movl	-12(%ebp), %eax
	cmpl	8(%ebp), %eax
	jle	.L3
	.loc 1 30 5
	movl	serial@GOT(%ebx), %eax
	movl	(%eax), %eax
	subl	$8, %esp
	pushl	%eax
	pushl	$10
	call	fputc@PLT
	addl	$16, %esp
	.loc 1 31 1
	nop
	movl	-4(%ebp), %ebx
	leave
	.cfi_restore 5
	.cfi_restore 3
	.cfi_def_cfa 4, 4
	ret
	.cfi_endproc
.LFE0:
	.size	fib, .-fib
	.globl	service_file_buf
	.section	.bss
	.align 4
	.type	service_file_buf, @object
	.size	service_file_buf, 4
service_file_buf:
	.zero	4
	.globl	num_reads
	.align 4
	.type	num_reads, @object
	.size	num_reads, 4
num_reads:
	.zero	4
	.globl	was_read
	.align 4
	.type	was_read, @object
	.size	was_read, 4
was_read:
	.zero	4
	.text
	.globl	read_notification
	.type	read_notification, @function
read_notification:
.LFB1:
	.loc 1 40 70
	.cfi_startproc
	pushl	%ebp
	.cfi_def_cfa_offset 8
	.cfi_offset 5, -8
	movl	%esp, %ebp
	.cfi_def_cfa_register 5
	call	__x86.get_pc_thunk.ax
	addl	$_GLOBAL_OFFSET_TABLE_, %eax
	.loc 1 41 14
	movl	was_read@GOT(%eax), %eax
	movl	$1, (%eax)
	.loc 1 42 1
	nop
	popl	%ebp
	.cfi_restore 5
	.cfi_def_cfa 4, 4
	ret
	.cfi_endproc
.LFE1:
	.size	read_notification, .-read_notification
	.section	.rodata
	.align 4
.LC2:
	.string	"Hello from Service! Fib is at 0x%x\n"
.LC3:
	.string	"w"
.LC4:
	.string	"/-/dev/serial"
.LC5:
	.string	"r"
.LC6:
	.string	"/-/fsCTRL"
.LC7:
	.string	"Cannot open file!"
.LC8:
	.string	"Read %d times!"
.LC9:
	.string	"file"
.LC10:
	.string	"Serv"
.LC11:
	.string	"was_read @ 0x%x\n"
.LC12:
	.string	"[SERVICE] READ!\n"
	.text
	.globl	main
	.type	main, @function
main:
.LFB2:
	.loc 1 44 11
	.cfi_startproc
	leal	4(%esp), %ecx
	.cfi_def_cfa 1, 0
	andl	$-16, %esp
	pushl	-4(%ecx)
	pushl	%ebp
	movl	%esp, %ebp
	.cfi_escape 0x10,0x5,0x2,0x75,0
	pushl	%ebx
	pushl	%ecx
	.cfi_escape 0xf,0x3,0x75,0x78,0x6
	.cfi_escape 0x10,0x3,0x2,0x75,0x7c
	subl	$48, %esp
	call	__x86.get_pc_thunk.bx
	addl	$_GLOBAL_OFFSET_TABLE_, %ebx
	.loc 1 45 5
	subl	$8, %esp
	movl	fib@GOT(%ebx), %eax
	pushl	%eax
	leal	.LC2@GOTOFF(%ebx), %eax
	pushl	%eax
	call	printf@PLT
	addl	$16, %esp
	.loc 1 46 14
	subl	$8, %esp
	leal	.LC3@GOTOFF(%ebx), %eax
	pushl	%eax
	leal	.LC4@GOTOFF(%ebx), %eax
	pushl	%eax
	call	fopen@PLT
	addl	$16, %esp
	.loc 1 46 12 discriminator 1
	movl	serial@GOT(%ebx), %edx
	movl	%eax, (%edx)
	.loc 1 47 5
	subl	$12, %esp
	pushl	$10
	call	fib@PLT
	addl	$16, %esp
	.loc 1 49 22
	subl	$8, %esp
	leal	.LC5@GOTOFF(%ebx), %eax
	pushl	%eax
	leal	.LC6@GOTOFF(%ebx), %eax
	pushl	%eax
	call	fopen@PLT
	addl	$16, %esp
	movl	%eax, -12(%ebp)
	.loc 1 50 7
	cmpl	$0, -12(%ebp)
	jne	.L6
	.loc 1 51 9
	subl	$12, %esp
	leal	.LC7@GOTOFF(%ebx), %eax
	pushl	%eax
	call	puts@PLT
	addl	$16, %esp
	.loc 1 52 16
	movl	$1, %eax
	jmp	.L10
.L6:
	.loc 1 55 5
	pushl	-12(%ebp)
	pushl	$1
	pushl	$24
	leal	-48(%ebp), %eax
	pushl	%eax
	call	fread@PLT
	addl	$16, %esp
	.loc 1 56 5
	subl	$12, %esp
	pushl	-12(%ebp)
	call	fclose@PLT
	addl	$16, %esp
	.loc 1 58 24
	subl	$12, %esp
	pushl	$1000
	call	malloc@PLT
	addl	$16, %esp
	movl	%eax, %edx
	.loc 1 58 22 discriminator 1
	movl	service_file_buf@GOT(%ebx), %eax
	movl	%edx, (%eax)
	.loc 1 59 15
	movl	num_reads@GOT(%ebx), %eax
	movl	$0, (%eax)
	.loc 1 60 14
	movl	was_read@GOT(%ebx), %eax
	movl	$0, (%eax)
	.loc 1 62 5
	movl	service_file_buf@GOT(%ebx), %eax
	movl	(%eax), %eax
	subl	$4, %esp
	pushl	$1000
	pushl	$0
	pushl	%eax
	call	memset@PLT
	addl	$16, %esp
	.loc 1 63 5
	movl	num_reads@GOT(%ebx), %eax
	movl	(%eax), %edx
	movl	service_file_buf@GOT(%ebx), %eax
	movl	(%eax), %eax
	pushl	%edx
	leal	.LC8@GOTOFF(%ebx), %edx
	pushl	%edx
	pushl	$1000
	pushl	%eax
	call	snprintf@PLT
	addl	$16, %esp
	.loc 1 65 22
	movl	-40(%ebp), %eax
	.loc 1 65 18
	movl	service_file_buf@GOT(%ebx), %edx
	movl	(%edx), %edx
	subl	$4, %esp
	pushl	$2
	pushl	$1000
	pushl	%edx
	call	*%eax
.LVL0:
	addl	$16, %esp
	movl	%eax, -16(%ebp)
	.loc 1 71 9
	movl	-32(%ebp), %eax
	.loc 1 71 5
	subl	$12, %esp
	pushl	$0
	pushl	$0
	movl	read_notification@GOT(%ebx), %edx
	pushl	%edx
	pushl	$0
	pushl	-16(%ebp)
	call	*%eax
.LVL1:
	addl	$32, %esp
	.loc 1 77 22
	movl	-44(%ebp), %eax
	.loc 1 77 18
	subl	$8, %esp
	pushl	-16(%ebp)
	leal	.LC9@GOTOFF(%ebx), %edx
	pushl	%edx
	call	*%eax
.LVL2:
	addl	$16, %esp
	movl	%eax, -20(%ebp)
	.loc 1 80 21
	movl	-48(%ebp), %eax
	.loc 1 80 17
	subl	$12, %esp
	leal	.LC10@GOTOFF(%ebx), %edx
	pushl	%edx
	call	*%eax
.LVL3:
	addl	$16, %esp
	movl	%eax, -24(%ebp)
	.loc 1 81 9
	movl	-36(%ebp), %eax
	.loc 1 81 5
	movl	-28(%ebp), %edx
	subl	$8, %esp
	pushl	-24(%ebp)
	pushl	%edx
	call	*%eax
.LVL4:
	addl	$16, %esp
	.loc 1 83 9
	movl	-36(%ebp), %eax
	.loc 1 83 5
	subl	$8, %esp
	pushl	-20(%ebp)
	pushl	-24(%ebp)
	call	*%eax
.LVL5:
	addl	$16, %esp
	.loc 1 85 5
	subl	$8, %esp
	movl	was_read@GOT(%ebx), %eax
	pushl	%eax
	leal	.LC11@GOTOFF(%ebx), %eax
	pushl	%eax
	call	printf@PLT
	addl	$16, %esp
.L9:
	.loc 1 87 12
	movl	was_read@GOT(%ebx), %eax
	movl	(%eax), %eax
	.loc 1 87 11
	testl	%eax, %eax
	je	.L8
	.loc 1 88 22
	movl	was_read@GOT(%ebx), %eax
	movl	$0, (%eax)
	.loc 1 89 13
	movl	serial@GOT(%ebx), %eax
	movl	(%eax), %eax
	pushl	%eax
	pushl	$16
	pushl	$1
	leal	.LC12@GOTOFF(%ebx), %eax
	pushl	%eax
	call	fwrite@PLT
	addl	$16, %esp
	.loc 1 90 13
	movl	service_file_buf@GOT(%ebx), %eax
	movl	(%eax), %eax
	subl	$4, %esp
	pushl	$1000
	pushl	$0
	pushl	%eax
	call	memset@PLT
	addl	$16, %esp
	.loc 1 91 13
	movl	num_reads@GOT(%ebx), %eax
	movl	(%eax), %eax
	leal	1(%eax), %edx
	movl	num_reads@GOT(%ebx), %eax
	movl	%edx, (%eax)
	movl	num_reads@GOT(%ebx), %eax
	movl	(%eax), %edx
	movl	service_file_buf@GOT(%ebx), %eax
	movl	(%eax), %eax
	pushl	%edx
	leal	.LC8@GOTOFF(%ebx), %edx
	pushl	%edx
	pushl	$1000
	pushl	%eax
	call	snprintf@PLT
	addl	$16, %esp
.L8:
	.loc 1 93 9
	call	yield@PLT
	.loc 1 87 11
	jmp	.L9
.L10:
	.loc 1 95 1
	leal	-8(%ebp), %esp
	popl	%ecx
	.cfi_restore 1
	.cfi_def_cfa 1, 0
	popl	%ebx
	.cfi_restore 3
	popl	%ebp
	.cfi_restore 5
	leal	-4(%ecx), %esp
	.cfi_def_cfa 4, 4
	ret
	.cfi_endproc
.LFE2:
	.size	main, .-main
	.section	.text.__x86.get_pc_thunk.ax,"axG",@progbits,__x86.get_pc_thunk.ax,comdat
	.globl	__x86.get_pc_thunk.ax
	.hidden	__x86.get_pc_thunk.ax
	.type	__x86.get_pc_thunk.ax, @function
__x86.get_pc_thunk.ax:
.LFB3:
	.cfi_startproc
	movl	(%esp), %eax
	ret
	.cfi_endproc
.LFE3:
	.section	.text.__x86.get_pc_thunk.bx,"axG",@progbits,__x86.get_pc_thunk.bx,comdat
	.globl	__x86.get_pc_thunk.bx
	.hidden	__x86.get_pc_thunk.bx
	.type	__x86.get_pc_thunk.bx, @function
__x86.get_pc_thunk.bx:
.LFB4:
	.cfi_startproc
	movl	(%esp), %ebx
	ret
	.cfi_endproc
.LFE4:
	.text
.Letext0:
	.file 2 "/home/aidanb/Greenwood-OS/filesystem/usr/include/stdio.h"
	.file 3 "/home/aidanb/Greenwood-OS/filesystem/usr/include/sys/sysfs.h"
	.file 4 "/home/aidanb/Greenwood-OS/filesystem/usr/include/string.h"
	.file 5 "/home/aidanb/Greenwood-OS/filesystem/usr/include/stdlib.h"
	.file 6 "/home/aidanb/Greenwood-OS/filesystem/usr/include/sys/task.h"