
service.elf:     file format elf32-i386


Disassembly of section .init:

00000074 <_init>:
  74:	e8 13 01 00 00       	call   18c <frame_dummy>
  79:	e8 d6 23 00 00       	call   2454 <__do_global_ctors_aux>
  7e:	c2 00 00             	ret    $0x0

Disassembly of section .text:

00000084 <_start>:
      84:	55                   	push   %ebp
      85:	89 e5                	mov    %esp,%ebp
      87:	83 ec 08             	sub    $0x8,%esp
      8a:	c7 05 14 36 00 00 00 	movl   $0x0,0x3614
      91:	00 00 00 
      94:	e8 4a 0e 00 00       	call   ee3 <init_stdlib>
      99:	e8 ec 03 00 00       	call   48a <init_stdio>
      9e:	83 ec 08             	sub    $0x8,%esp
      a1:	ff 75 0c             	push   0xc(%ebp)
      a4:	ff 75 08             	push   0x8(%ebp)
      a7:	e8 01 02 00 00       	call   2ad <main>
      ac:	83 c4 10             	add    $0x10,%esp
      af:	e8 93 0e 00 00       	call   f47 <clean_stdlib>
      b4:	90                   	nop
      b5:	c9                   	leave
      b6:	c3                   	ret
      b7:	90                   	nop

000000b8 <deregister_tm_clones>:
      b8:	b8 b4 35 00 00       	mov    $0x35b4,%eax
      bd:	3d b4 35 00 00       	cmp    $0x35b4,%eax
      c2:	74 1c                	je     e0 <deregister_tm_clones+0x28>
      c4:	b8 00 00 00 00       	mov    $0x0,%eax
      c9:	85 c0                	test   %eax,%eax
      cb:	74 13                	je     e0 <deregister_tm_clones+0x28>
      cd:	55                   	push   %ebp
      ce:	89 e5                	mov    %esp,%ebp
      d0:	83 ec 14             	sub    $0x14,%esp
      d3:	68 b4 35 00 00       	push   $0x35b4
      d8:	ff d0                	call   *%eax
      da:	83 c4 10             	add    $0x10,%esp
      dd:	c9                   	leave
      de:	c3                   	ret
      df:	90                   	nop
      e0:	c3                   	ret
      e1:	8d 76 00             	lea    0x0(%esi),%esi

000000e4 <register_tm_clones>:
      e4:	b8 b4 35 00 00       	mov    $0x35b4,%eax
      e9:	2d b4 35 00 00       	sub    $0x35b4,%eax
      ee:	89 c2                	mov    %eax,%edx
      f0:	c1 fa 02             	sar    $0x2,%edx
      f3:	c1 e8 1f             	shr    $0x1f,%eax
      f6:	01 d0                	add    %edx,%eax
      f8:	d1 f8                	sar    $1,%eax
      fa:	74 1c                	je     118 <register_tm_clones+0x34>
      fc:	ba 00 00 00 00       	mov    $0x0,%edx
     101:	85 d2                	test   %edx,%edx
     103:	74 13                	je     118 <register_tm_clones+0x34>
     105:	55                   	push   %ebp
     106:	89 e5                	mov    %esp,%ebp
     108:	83 ec 10             	sub    $0x10,%esp
     10b:	50                   	push   %eax
     10c:	68 b4 35 00 00       	push   $0x35b4
     111:	ff d2                	call   *%edx
     113:	83 c4 10             	add    $0x10,%esp
     116:	c9                   	leave
     117:	c3                   	ret
     118:	c3                   	ret
     119:	8d 76 00             	lea    0x0(%esi),%esi

0000011c <__do_global_dtors_aux>:
     11c:	80 3d b4 35 00 00 00 	cmpb   $0x0,0x35b4
     123:	75 63                	jne    188 <__do_global_dtors_aux+0x6c>
     125:	55                   	push   %ebp
     126:	89 e5                	mov    %esp,%ebp
     128:	56                   	push   %esi
     129:	53                   	push   %ebx
     12a:	be 9c 35 00 00       	mov    $0x359c,%esi
     12f:	a1 b8 35 00 00       	mov    0x35b8,%eax
     134:	bb a0 35 00 00       	mov    $0x35a0,%ebx
     139:	81 eb 9c 35 00 00    	sub    $0x359c,%ebx
     13f:	c1 fb 02             	sar    $0x2,%ebx
     142:	4b                   	dec    %ebx
     143:	39 d8                	cmp    %ebx,%eax
     145:	73 13                	jae    15a <__do_global_dtors_aux+0x3e>
     147:	90                   	nop
     148:	40                   	inc    %eax
     149:	a3 b8 35 00 00       	mov    %eax,0x35b8
     14e:	ff 14 86             	call   *(%esi,%eax,4)
     151:	a1 b8 35 00 00       	mov    0x35b8,%eax
     156:	39 d8                	cmp    %ebx,%eax
     158:	72 ee                	jb     148 <__do_global_dtors_aux+0x2c>
     15a:	e8 59 ff ff ff       	call   b8 <deregister_tm_clones>
     15f:	b8 00 00 00 00       	mov    $0x0,%eax
     164:	85 c0                	test   %eax,%eax
     166:	74 10                	je     178 <__do_global_dtors_aux+0x5c>
     168:	83 ec 0c             	sub    $0xc,%esp
     16b:	68 90 25 00 00       	push   $0x2590
     170:	e8 8b fe ff ff       	call   0 <_init-0x74>
     175:	83 c4 10             	add    $0x10,%esp
     178:	c6 05 b4 35 00 00 01 	movb   $0x1,0x35b4
     17f:	8d 65 f8             	lea    -0x8(%ebp),%esp
     182:	5b                   	pop    %ebx
     183:	5e                   	pop    %esi
     184:	5d                   	pop    %ebp
     185:	c3                   	ret
     186:	66 90                	xchg   %ax,%ax
     188:	c3                   	ret
     189:	8d 76 00             	lea    0x0(%esi),%esi

0000018c <frame_dummy>:
     18c:	b8 00 00 00 00       	mov    $0x0,%eax
     191:	85 c0                	test   %eax,%eax
     193:	74 1f                	je     1b4 <frame_dummy+0x28>
     195:	55                   	push   %ebp
     196:	89 e5                	mov    %esp,%ebp
     198:	83 ec 10             	sub    $0x10,%esp
     19b:	68 bc 35 00 00       	push   $0x35bc
     1a0:	68 90 25 00 00       	push   $0x2590
     1a5:	e8 56 fe ff ff       	call   0 <_init-0x74>
     1aa:	83 c4 10             	add    $0x10,%esp
     1ad:	c9                   	leave
     1ae:	e9 31 ff ff ff       	jmp    e4 <register_tm_clones>
     1b3:	90                   	nop
     1b4:	e9 2b ff ff ff       	jmp    e4 <register_tm_clones>

000001b9 <fib>:
     1b9:	55                   	push   %ebp
     1ba:	89 e5                	mov    %esp,%ebp
     1bc:	83 ec 18             	sub    $0x18,%esp
     1bf:	c7 45 e8 00 00 00 00 	movl   $0x0,-0x18(%ebp)
     1c6:	c7 45 f0 01 00 00 00 	movl   $0x1,-0x10(%ebp)
     1cd:	8b 55 e8             	mov    -0x18(%ebp),%edx
     1d0:	8b 45 f0             	mov    -0x10(%ebp),%eax
     1d3:	01 d0                	add    %edx,%eax
     1d5:	89 45 ec             	mov    %eax,-0x14(%ebp)
     1d8:	a1 d4 35 00 00       	mov    0x35d4,%eax
     1dd:	ff 75 f0             	push   -0x10(%ebp)
     1e0:	ff 75 e8             	push   -0x18(%ebp)
     1e3:	68 88 24 00 00       	push   $0x2488
     1e8:	50                   	push   %eax
     1e9:	e8 f5 04 00 00       	call   6e3 <fprintf>
     1ee:	83 c4 10             	add    $0x10,%esp
     1f1:	c7 45 f4 03 00 00 00 	movl   $0x3,-0xc(%ebp)
     1f8:	eb 33                	jmp    22d <fib+0x74>
     1fa:	a1 d4 35 00 00       	mov    0x35d4,%eax
     1ff:	83 ec 04             	sub    $0x4,%esp
     202:	ff 75 ec             	push   -0x14(%ebp)
     205:	68 a3 24 00 00       	push   $0x24a3
     20a:	50                   	push   %eax
     20b:	e8 d3 04 00 00       	call   6e3 <fprintf>
     210:	83 c4 10             	add    $0x10,%esp
     213:	8b 45 f0             	mov    -0x10(%ebp),%eax
     216:	89 45 e8             	mov    %eax,-0x18(%ebp)
     219:	8b 45 ec             	mov    -0x14(%ebp),%eax
     21c:	89 45 f0             	mov    %eax,-0x10(%ebp)
     21f:	8b 55 e8             	mov    -0x18(%ebp),%edx
     222:	8b 45 f0             	mov    -0x10(%ebp),%eax
     225:	01 d0                	add    %edx,%eax
     227:	89 45 ec             	mov    %eax,-0x14(%ebp)
     22a:	ff 45 f4             	incl   -0xc(%ebp)
     22d:	8b 45 f4             	mov    -0xc(%ebp),%eax
     230:	3b 45 08             	cmp    0x8(%ebp),%eax
     233:	7e c5                	jle    1fa <fib+0x41>
     235:	a1 d4 35 00 00       	mov    0x35d4,%eax
     23a:	83 ec 08             	sub    $0x8,%esp
     23d:	50                   	push   %eax
     23e:	6a 0a                	push   $0xa
     240:	e8 e8 09 00 00       	call   c2d <fputc>
     245:	83 c4 10             	add    $0x10,%esp
     248:	90                   	nop
     249:	c9                   	leave
     24a:	c3                   	ret

0000024b <read_notification>:
     24b:	55                   	push   %ebp
     24c:	89 e5                	mov    %esp,%ebp
     24e:	83 ec 08             	sub    $0x8,%esp
     251:	a1 d4 35 00 00       	mov    0x35d4,%eax
     256:	50                   	push   %eax
     257:	6a 20                	push   $0x20
     259:	6a 01                	push   $0x1
     25b:	68 a8 24 00 00       	push   $0x24a8
     260:	e8 f2 06 00 00       	call   957 <fwrite>
     265:	83 c4 10             	add    $0x10,%esp
     268:	a1 d8 35 00 00       	mov    0x35d8,%eax
     26d:	83 ec 04             	sub    $0x4,%esp
     270:	68 e8 03 00 00       	push   $0x3e8
     275:	6a 00                	push   $0x0
     277:	50                   	push   %eax
     278:	e8 d1 13 00 00       	call   164e <memset>
     27d:	83 c4 10             	add    $0x10,%esp
     280:	a1 dc 35 00 00       	mov    0x35dc,%eax
     285:	40                   	inc    %eax
     286:	a3 dc 35 00 00       	mov    %eax,0x35dc
     28b:	8b 15 dc 35 00 00    	mov    0x35dc,%edx
     291:	a1 d8 35 00 00       	mov    0x35d8,%eax
     296:	52                   	push   %edx
     297:	68 c9 24 00 00       	push   $0x24c9
     29c:	68 e8 03 00 00       	push   $0x3e8
     2a1:	50                   	push   %eax
     2a2:	e8 14 0a 00 00       	call   cbb <snprintf>
     2a7:	83 c4 10             	add    $0x10,%esp
     2aa:	90                   	nop
     2ab:	c9                   	leave
     2ac:	c3                   	ret

000002ad <main>:
     2ad:	8d 4c 24 04          	lea    0x4(%esp),%ecx
     2b1:	83 e4 f0             	and    $0xfffffff0,%esp
     2b4:	ff 71 fc             	push   -0x4(%ecx)
     2b7:	55                   	push   %ebp
     2b8:	89 e5                	mov    %esp,%ebp
     2ba:	51                   	push   %ecx
     2bb:	83 ec 34             	sub    $0x34,%esp
     2be:	83 ec 08             	sub    $0x8,%esp
     2c1:	68 b9 01 00 00       	push   $0x1b9
     2c6:	68 d8 24 00 00       	push   $0x24d8
     2cb:	e8 46 04 00 00       	call   716 <printf>
     2d0:	83 c4 10             	add    $0x10,%esp
     2d3:	83 ec 08             	sub    $0x8,%esp
     2d6:	68 fc 24 00 00       	push   $0x24fc
     2db:	68 fe 24 00 00       	push   $0x24fe
     2e0:	e8 25 05 00 00       	call   80a <fopen>
     2e5:	83 c4 10             	add    $0x10,%esp
     2e8:	a3 d4 35 00 00       	mov    %eax,0x35d4
     2ed:	83 ec 0c             	sub    $0xc,%esp
     2f0:	6a 0a                	push   $0xa
     2f2:	e8 c2 fe ff ff       	call   1b9 <fib>
     2f7:	83 c4 10             	add    $0x10,%esp
     2fa:	83 ec 08             	sub    $0x8,%esp
     2fd:	68 0c 25 00 00       	push   $0x250c
     302:	68 0e 25 00 00       	push   $0x250e
     307:	e8 fe 04 00 00       	call   80a <fopen>
     30c:	83 c4 10             	add    $0x10,%esp
     30f:	89 45 f4             	mov    %eax,-0xc(%ebp)
     312:	83 7d f4 00          	cmpl   $0x0,-0xc(%ebp)
     316:	75 1a                	jne    332 <main+0x85>
     318:	83 ec 0c             	sub    $0xc,%esp
     31b:	68 18 25 00 00       	push   $0x2518
     320:	e8 8a 04 00 00       	call   7af <puts>
     325:	83 c4 10             	add    $0x10,%esp
     328:	b8 01 00 00 00       	mov    $0x1,%eax
     32d:	e9 13 01 00 00       	jmp    445 <main+0x198>
     332:	ff 75 f4             	push   -0xc(%ebp)
     335:	6a 01                	push   $0x1
     337:	6a 18                	push   $0x18
     339:	8d 45 cc             	lea    -0x34(%ebp),%eax
     33c:	50                   	push   %eax
     33d:	e8 88 06 00 00       	call   9ca <fread>
     342:	83 c4 10             	add    $0x10,%esp
     345:	83 ec 0c             	sub    $0xc,%esp
     348:	ff 75 f4             	push   -0xc(%ebp)
     34b:	e8 71 05 00 00       	call   8c1 <fclose>
     350:	83 c4 10             	add    $0x10,%esp
     353:	8b 45 cc             	mov    -0x34(%ebp),%eax
     356:	83 ec 0c             	sub    $0xc,%esp
     359:	68 2a 25 00 00       	push   $0x252a
     35e:	ff d0                	call   *%eax
     360:	83 c4 10             	add    $0x10,%esp
     363:	89 45 f0             	mov    %eax,-0x10(%ebp)
     366:	8b 45 d8             	mov    -0x28(%ebp),%eax
     369:	8b 55 e0             	mov    -0x20(%ebp),%edx
     36c:	83 ec 08             	sub    $0x8,%esp
     36f:	ff 75 f0             	push   -0x10(%ebp)
     372:	52                   	push   %edx
     373:	ff d0                	call   *%eax
     375:	83 c4 10             	add    $0x10,%esp
     378:	83 ec 0c             	sub    $0xc,%esp
     37b:	68 e8 03 00 00       	push   $0x3e8
     380:	e8 fb 0b 00 00       	call   f80 <malloc>
     385:	83 c4 10             	add    $0x10,%esp
     388:	a3 d8 35 00 00       	mov    %eax,0x35d8
     38d:	c7 05 dc 35 00 00 00 	movl   $0x0,0x35dc
     394:	00 00 00 
     397:	a1 d8 35 00 00       	mov    0x35d8,%eax
     39c:	83 ec 04             	sub    $0x4,%esp
     39f:	68 e8 03 00 00       	push   $0x3e8
     3a4:	6a 00                	push   $0x0
     3a6:	50                   	push   %eax
     3a7:	e8 a2 12 00 00       	call   164e <memset>
     3ac:	83 c4 10             	add    $0x10,%esp
     3af:	8b 15 dc 35 00 00    	mov    0x35dc,%edx
     3b5:	a1 d8 35 00 00       	mov    0x35d8,%eax
     3ba:	52                   	push   %edx
     3bb:	68 c9 24 00 00       	push   $0x24c9
     3c0:	68 e8 03 00 00       	push   $0x3e8
     3c5:	50                   	push   %eax
     3c6:	e8 f0 08 00 00       	call   cbb <snprintf>
     3cb:	83 c4 10             	add    $0x10,%esp
     3ce:	8b 45 d4             	mov    -0x2c(%ebp),%eax
     3d1:	8b 15 d8 35 00 00    	mov    0x35d8,%edx
     3d7:	83 ec 04             	sub    $0x4,%esp
     3da:	6a 02                	push   $0x2
     3dc:	68 e8 03 00 00       	push   $0x3e8
     3e1:	52                   	push   %edx
     3e2:	ff d0                	call   *%eax
     3e4:	83 c4 10             	add    $0x10,%esp
     3e7:	89 45 ec             	mov    %eax,-0x14(%ebp)
     3ea:	c7 45 e8 4b 02 00 00 	movl   $0x24b,-0x18(%ebp)
     3f1:	8b 45 dc             	mov    -0x24(%ebp),%eax
     3f4:	8b 55 e8             	mov    -0x18(%ebp),%edx
     3f7:	81 c2 00 00 80 22    	add    $0x22800000,%edx
     3fd:	83 ec 0c             	sub    $0xc,%esp
     400:	6a 00                	push   $0x0
     402:	6a 00                	push   $0x0
     404:	52                   	push   %edx
     405:	6a 00                	push   $0x0
     407:	ff 75 ec             	push   -0x14(%ebp)
     40a:	ff d0                	call   *%eax
     40c:	83 c4 20             	add    $0x20,%esp
     40f:	8b 45 d0             	mov    -0x30(%ebp),%eax
     412:	83 ec 08             	sub    $0x8,%esp
     415:	ff 75 ec             	push   -0x14(%ebp)
     418:	68 2f 25 00 00       	push   $0x252f
     41d:	ff d0                	call   *%eax
     41f:	83 c4 10             	add    $0x10,%esp
     422:	89 45 e4             	mov    %eax,-0x1c(%ebp)
     425:	8b 45 d8             	mov    -0x28(%ebp),%eax
     428:	83 ec 08             	sub    $0x8,%esp
     42b:	ff 75 e4             	push   -0x1c(%ebp)
     42e:	ff 75 f0             	push   -0x10(%ebp)
     431:	ff d0                	call   *%eax
     433:	83 c4 10             	add    $0x10,%esp
     436:	83 ec 0c             	sub    $0xc,%esp
     439:	6a 04                	push   $0x4
     43b:	e8 98 1c 00 00       	call   20d8 <set_schedule>
     440:	83 c4 10             	add    $0x10,%esp
     443:	eb fe                	jmp    443 <main+0x196>
     445:	8b 4d fc             	mov    -0x4(%ebp),%ecx
     448:	c9                   	leave
     449:	8d 61 fc             	lea    -0x4(%ecx),%esp
     44c:	c3                   	ret

0000044d <internal_createFileFD>:
     44d:	55                   	push   %ebp
     44e:	89 e5                	mov    %esp,%ebp
     450:	53                   	push   %ebx
     451:	83 ec 14             	sub    $0x14,%esp
     454:	e8 82 0a 00 00       	call   edb <__x86.get_pc_thunk.ax>
     459:	05 4b 31 00 00       	add    $0x314b,%eax
     45e:	83 ec 0c             	sub    $0xc,%esp
     461:	6a 08                	push   $0x8
     463:	89 c3                	mov    %eax,%ebx
     465:	e8 16 0b 00 00       	call   f80 <malloc>
     46a:	83 c4 10             	add    $0x10,%esp
     46d:	89 45 f4             	mov    %eax,-0xc(%ebp)
     470:	8b 45 f4             	mov    -0xc(%ebp),%eax
     473:	c7 00 00 00 00 00    	movl   $0x0,(%eax)
     479:	8b 45 f4             	mov    -0xc(%ebp),%eax
     47c:	8b 55 08             	mov    0x8(%ebp),%edx
     47f:	89 50 04             	mov    %edx,0x4(%eax)
     482:	8b 45 f4             	mov    -0xc(%ebp),%eax
     485:	8b 5d fc             	mov    -0x4(%ebp),%ebx
     488:	c9                   	leave
     489:	c3                   	ret

0000048a <init_stdio>:
     48a:	55                   	push   %ebp
     48b:	89 e5                	mov    %esp,%ebp
     48d:	56                   	push   %esi
     48e:	53                   	push   %ebx
     48f:	e8 4b 0a 00 00       	call   edf <__x86.get_pc_thunk.bx>
     494:	81 c3 10 31 00 00    	add    $0x3110,%ebx
     49a:	83 ec 0c             	sub    $0xc,%esp
     49d:	6a 28                	push   $0x28
     49f:	e8 dc 0a 00 00       	call   f80 <malloc>
     4a4:	83 c4 10             	add    $0x10,%esp
     4a7:	c7 c2 e0 35 00 00    	mov    $0x35e0,%edx
     4ad:	89 02                	mov    %eax,(%edx)
     4af:	c7 c0 e0 35 00 00    	mov    $0x35e0,%eax
     4b5:	8b 00                	mov    (%eax),%eax
     4b7:	83 ec 04             	sub    $0x4,%esp
     4ba:	6a 04                	push   $0x4
     4bc:	6a 00                	push   $0x0
     4be:	50                   	push   %eax
     4bf:	e8 8a 11 00 00       	call   164e <memset>
     4c4:	83 c4 10             	add    $0x10,%esp
     4c7:	c7 c0 e0 35 00 00    	mov    $0x35e0,%eax
     4cd:	8b 00                	mov    (%eax),%eax
     4cf:	c7 00 00 00 00 00    	movl   $0x0,(%eax)
     4d5:	83 ec 08             	sub    $0x8,%esp
     4d8:	6a 02                	push   $0x2
     4da:	8d 83 90 ef ff ff    	lea    -0x1070(%ebx),%eax
     4e0:	50                   	push   %eax
     4e1:	e8 43 1a 00 00       	call   1f29 <open>
     4e6:	83 c4 10             	add    $0x10,%esp
     4e9:	c7 c2 e0 35 00 00    	mov    $0x35e0,%edx
     4ef:	8b 12                	mov    (%edx),%edx
     4f1:	8d 72 04             	lea    0x4(%edx),%esi
     4f4:	83 ec 0c             	sub    $0xc,%esp
     4f7:	50                   	push   %eax
     4f8:	e8 50 ff ff ff       	call   44d <internal_createFileFD>
     4fd:	83 c4 10             	add    $0x10,%esp
     500:	89 06                	mov    %eax,(%esi)
     502:	c7 c0 e0 35 00 00    	mov    $0x35e0,%eax
     508:	8b 00                	mov    (%eax),%eax
     50a:	c7 c2 e0 35 00 00    	mov    $0x35e0,%edx
     510:	8b 12                	mov    (%edx),%edx
     512:	83 c2 08             	add    $0x8,%edx
     515:	8b 40 04             	mov    0x4(%eax),%eax
     518:	89 02                	mov    %eax,(%edx)
     51a:	c7 c0 e4 35 00 00    	mov    $0x35e4,%eax
     520:	c7 00 03 00 00 00    	movl   $0x3,(%eax)
     526:	90                   	nop
     527:	8d 65 f8             	lea    -0x8(%ebp),%esp
     52a:	5b                   	pop    %ebx
     52b:	5e                   	pop    %esi
     52c:	5d                   	pop    %ebp
     52d:	c3                   	ret

0000052e <vfprintf>:
     52e:	55                   	push   %ebp
     52f:	89 e5                	mov    %esp,%ebp
     531:	53                   	push   %ebx
     532:	83 ec 44             	sub    $0x44,%esp
     535:	e8 a5 09 00 00       	call   edf <__x86.get_pc_thunk.bx>
     53a:	81 c3 6a 30 00 00    	add    $0x306a,%ebx
     540:	c7 45 f4 00 00 00 00 	movl   $0x0,-0xc(%ebp)
     547:	83 7d 08 00          	cmpl   $0x0,0x8(%ebp)
     54b:	0f 85 7d 01 00 00    	jne    6ce <vfprintf+0x1a0>
     551:	b8 00 00 00 00       	mov    $0x0,%eax
     556:	e9 83 01 00 00       	jmp    6de <vfprintf+0x1b0>
     55b:	8b 45 0c             	mov    0xc(%ebp),%eax
     55e:	8a 00                	mov    (%eax),%al
     560:	3c 25                	cmp    $0x25,%al
     562:	74 22                	je     586 <vfprintf+0x58>
     564:	ff 75 08             	push   0x8(%ebp)
     567:	6a 01                	push   $0x1
     569:	6a 01                	push   $0x1
     56b:	ff 75 0c             	push   0xc(%ebp)
     56e:	e8 e4 03 00 00       	call   957 <fwrite>
     573:	83 c4 10             	add    $0x10,%esp
     576:	8b 55 f4             	mov    -0xc(%ebp),%edx
     579:	01 d0                	add    %edx,%eax
     57b:	89 45 f4             	mov    %eax,-0xc(%ebp)
     57e:	ff 45 0c             	incl   0xc(%ebp)
     581:	e9 48 01 00 00       	jmp    6ce <vfprintf+0x1a0>
     586:	ff 45 0c             	incl   0xc(%ebp)
     589:	8b 45 0c             	mov    0xc(%ebp),%eax
     58c:	8a 00                	mov    (%eax),%al
     58e:	0f be c0             	movsbl %al,%eax
     591:	83 f8 78             	cmp    $0x78,%eax
     594:	0f 84 e3 00 00 00    	je     67d <vfprintf+0x14f>
     59a:	83 f8 78             	cmp    $0x78,%eax
     59d:	0f 8f 28 01 00 00    	jg     6cb <vfprintf+0x19d>
     5a3:	83 f8 73             	cmp    $0x73,%eax
     5a6:	0f 84 99 00 00 00    	je     645 <vfprintf+0x117>
     5ac:	83 f8 73             	cmp    $0x73,%eax
     5af:	0f 8f 16 01 00 00    	jg     6cb <vfprintf+0x19d>
     5b5:	83 f8 64             	cmp    $0x64,%eax
     5b8:	74 39                	je     5f3 <vfprintf+0xc5>
     5ba:	83 f8 64             	cmp    $0x64,%eax
     5bd:	0f 8f 08 01 00 00    	jg     6cb <vfprintf+0x19d>
     5c3:	83 f8 25             	cmp    $0x25,%eax
     5c6:	74 08                	je     5d0 <vfprintf+0xa2>
     5c8:	83 f8 46             	cmp    $0x46,%eax
     5cb:	e9 fb 00 00 00       	jmp    6cb <vfprintf+0x19d>
     5d0:	ff 75 08             	push   0x8(%ebp)
     5d3:	6a 01                	push   $0x1
     5d5:	6a 01                	push   $0x1
     5d7:	8d 83 9f ef ff ff    	lea    -0x1061(%ebx),%eax
     5dd:	50                   	push   %eax
     5de:	e8 74 03 00 00       	call   957 <fwrite>
     5e3:	83 c4 10             	add    $0x10,%esp
     5e6:	8b 55 f4             	mov    -0xc(%ebp),%edx
     5e9:	01 d0                	add    %edx,%eax
     5eb:	89 45 f4             	mov    %eax,-0xc(%ebp)
     5ee:	e9 d8 00 00 00       	jmp    6cb <vfprintf+0x19d>
     5f3:	8b 45 10             	mov    0x10(%ebp),%eax
     5f6:	8d 50 04             	lea    0x4(%eax),%edx
     5f9:	89 55 10             	mov    %edx,0x10(%ebp)
     5fc:	8b 00                	mov    (%eax),%eax
     5fe:	89 45 f0             	mov    %eax,-0x10(%ebp)
     601:	83 ec 04             	sub    $0x4,%esp
     604:	6a 0a                	push   $0xa
     606:	8d 45 c0             	lea    -0x40(%ebp),%eax
     609:	50                   	push   %eax
     60a:	ff 75 f0             	push   -0x10(%ebp)
     60d:	e8 be 0b 00 00       	call   11d0 <itoa>
     612:	83 c4 10             	add    $0x10,%esp
     615:	89 45 ec             	mov    %eax,-0x14(%ebp)
     618:	83 ec 0c             	sub    $0xc,%esp
     61b:	ff 75 ec             	push   -0x14(%ebp)
     61e:	e8 b5 11 00 00       	call   17d8 <strlen>
     623:	83 c4 10             	add    $0x10,%esp
     626:	40                   	inc    %eax
     627:	ff 75 08             	push   0x8(%ebp)
     62a:	6a 01                	push   $0x1
     62c:	50                   	push   %eax
     62d:	ff 75 ec             	push   -0x14(%ebp)
     630:	e8 22 03 00 00       	call   957 <fwrite>
     635:	83 c4 10             	add    $0x10,%esp
     638:	8b 55 f4             	mov    -0xc(%ebp),%edx
     63b:	01 d0                	add    %edx,%eax
     63d:	89 45 f4             	mov    %eax,-0xc(%ebp)
     640:	e9 86 00 00 00       	jmp    6cb <vfprintf+0x19d>
     645:	8b 45 10             	mov    0x10(%ebp),%eax
     648:	8d 50 04             	lea    0x4(%eax),%edx
     64b:	89 55 10             	mov    %edx,0x10(%ebp)
     64e:	8b 00                	mov    (%eax),%eax
     650:	89 45 e8             	mov    %eax,-0x18(%ebp)
     653:	83 ec 0c             	sub    $0xc,%esp
     656:	ff 75 e8             	push   -0x18(%ebp)
     659:	e8 7a 11 00 00       	call   17d8 <strlen>
     65e:	83 c4 10             	add    $0x10,%esp
     661:	40                   	inc    %eax
     662:	ff 75 08             	push   0x8(%ebp)
     665:	6a 01                	push   $0x1
     667:	50                   	push   %eax
     668:	ff 75 e8             	push   -0x18(%ebp)
     66b:	e8 e7 02 00 00       	call   957 <fwrite>
     670:	83 c4 10             	add    $0x10,%esp
     673:	8b 55 f4             	mov    -0xc(%ebp),%edx
     676:	01 d0                	add    %edx,%eax
     678:	89 45 f4             	mov    %eax,-0xc(%ebp)
     67b:	eb 4e                	jmp    6cb <vfprintf+0x19d>
     67d:	8b 45 10             	mov    0x10(%ebp),%eax
     680:	8d 50 04             	lea    0x4(%eax),%edx
     683:	89 55 10             	mov    %edx,0x10(%ebp)
     686:	8b 00                	mov    (%eax),%eax
     688:	89 45 f0             	mov    %eax,-0x10(%ebp)
     68b:	83 ec 04             	sub    $0x4,%esp
     68e:	6a 10                	push   $0x10
     690:	8d 45 c0             	lea    -0x40(%ebp),%eax
     693:	50                   	push   %eax
     694:	ff 75 f0             	push   -0x10(%ebp)
     697:	e8 34 0b 00 00       	call   11d0 <itoa>
     69c:	83 c4 10             	add    $0x10,%esp
     69f:	89 45 ec             	mov    %eax,-0x14(%ebp)
     6a2:	83 ec 0c             	sub    $0xc,%esp
     6a5:	ff 75 ec             	push   -0x14(%ebp)
     6a8:	e8 2b 11 00 00       	call   17d8 <strlen>
     6ad:	83 c4 10             	add    $0x10,%esp
     6b0:	40                   	inc    %eax
     6b1:	ff 75 08             	push   0x8(%ebp)
     6b4:	6a 01                	push   $0x1
     6b6:	50                   	push   %eax
     6b7:	ff 75 ec             	push   -0x14(%ebp)
     6ba:	e8 98 02 00 00       	call   957 <fwrite>
     6bf:	83 c4 10             	add    $0x10,%esp
     6c2:	8b 55 f4             	mov    -0xc(%ebp),%edx
     6c5:	01 d0                	add    %edx,%eax
     6c7:	89 45 f4             	mov    %eax,-0xc(%ebp)
     6ca:	90                   	nop
     6cb:	ff 45 0c             	incl   0xc(%ebp)
     6ce:	8b 45 0c             	mov    0xc(%ebp),%eax
     6d1:	8a 00                	mov    (%eax),%al
     6d3:	84 c0                	test   %al,%al
     6d5:	0f 85 80 fe ff ff    	jne    55b <vfprintf+0x2d>
     6db:	8b 45 f4             	mov    -0xc(%ebp),%eax
     6de:	8b 5d fc             	mov    -0x4(%ebp),%ebx
     6e1:	c9                   	leave
     6e2:	c3                   	ret

000006e3 <fprintf>:
     6e3:	55                   	push   %ebp
     6e4:	89 e5                	mov    %esp,%ebp
     6e6:	53                   	push   %ebx
     6e7:	83 ec 14             	sub    $0x14,%esp
     6ea:	e8 ec 07 00 00       	call   edb <__x86.get_pc_thunk.ax>
     6ef:	05 b5 2e 00 00       	add    $0x2eb5,%eax
     6f4:	8d 55 10             	lea    0x10(%ebp),%edx
     6f7:	89 55 f4             	mov    %edx,-0xc(%ebp)
     6fa:	8b 55 f4             	mov    -0xc(%ebp),%edx
     6fd:	83 ec 04             	sub    $0x4,%esp
     700:	52                   	push   %edx
     701:	ff 75 0c             	push   0xc(%ebp)
     704:	ff 75 08             	push   0x8(%ebp)
     707:	89 c3                	mov    %eax,%ebx
     709:	e8 20 fe ff ff       	call   52e <vfprintf>
     70e:	83 c4 10             	add    $0x10,%esp
     711:	8b 5d fc             	mov    -0x4(%ebp),%ebx
     714:	c9                   	leave
     715:	c3                   	ret

00000716 <printf>:
     716:	55                   	push   %ebp
     717:	89 e5                	mov    %esp,%ebp
     719:	53                   	push   %ebx
     71a:	83 ec 14             	sub    $0x14,%esp
     71d:	e8 b9 07 00 00       	call   edb <__x86.get_pc_thunk.ax>
     722:	05 82 2e 00 00       	add    $0x2e82,%eax
     727:	8d 55 0c             	lea    0xc(%ebp),%edx
     72a:	89 55 f4             	mov    %edx,-0xc(%ebp)
     72d:	c7 c2 e0 35 00 00    	mov    $0x35e0,%edx
     733:	8b 12                	mov    (%edx),%edx
     735:	83 c2 04             	add    $0x4,%edx
     738:	8b 12                	mov    (%edx),%edx
     73a:	85 d2                	test   %edx,%edx
     73c:	75 07                	jne    745 <printf+0x2f>
     73e:	b8 00 00 00 00       	mov    $0x0,%eax
     743:	eb 22                	jmp    767 <printf+0x51>
     745:	8b 4d f4             	mov    -0xc(%ebp),%ecx
     748:	c7 c2 e0 35 00 00    	mov    $0x35e0,%edx
     74e:	8b 12                	mov    (%edx),%edx
     750:	83 c2 04             	add    $0x4,%edx
     753:	8b 12                	mov    (%edx),%edx
     755:	83 ec 04             	sub    $0x4,%esp
     758:	51                   	push   %ecx
     759:	ff 75 08             	push   0x8(%ebp)
     75c:	52                   	push   %edx
     75d:	89 c3                	mov    %eax,%ebx
     75f:	e8 ca fd ff ff       	call   52e <vfprintf>
     764:	83 c4 10             	add    $0x10,%esp
     767:	8b 5d fc             	mov    -0x4(%ebp),%ebx
     76a:	c9                   	leave
     76b:	c3                   	ret

0000076c <fputs>:
     76c:	55                   	push   %ebp
     76d:	89 e5                	mov    %esp,%ebp
     76f:	53                   	push   %ebx
     770:	83 ec 04             	sub    $0x4,%esp
     773:	e8 67 07 00 00       	call   edf <__x86.get_pc_thunk.bx>
     778:	81 c3 2c 2e 00 00    	add    $0x2e2c,%ebx
     77e:	83 7d 0c 00          	cmpl   $0x0,0xc(%ebp)
     782:	75 07                	jne    78b <fputs+0x1f>
     784:	b8 00 00 00 00       	mov    $0x0,%eax
     789:	eb 1f                	jmp    7aa <fputs+0x3e>
     78b:	83 ec 0c             	sub    $0xc,%esp
     78e:	ff 75 08             	push   0x8(%ebp)
     791:	e8 42 10 00 00       	call   17d8 <strlen>
     796:	83 c4 10             	add    $0x10,%esp
     799:	ff 75 0c             	push   0xc(%ebp)
     79c:	6a 01                	push   $0x1
     79e:	50                   	push   %eax
     79f:	ff 75 08             	push   0x8(%ebp)
     7a2:	e8 b0 01 00 00       	call   957 <fwrite>
     7a7:	83 c4 10             	add    $0x10,%esp
     7aa:	8b 5d fc             	mov    -0x4(%ebp),%ebx
     7ad:	c9                   	leave
     7ae:	c3                   	ret

000007af <puts>:
     7af:	55                   	push   %ebp
     7b0:	89 e5                	mov    %esp,%ebp
     7b2:	53                   	push   %ebx
     7b3:	83 ec 14             	sub    $0x14,%esp
     7b6:	e8 24 07 00 00       	call   edf <__x86.get_pc_thunk.bx>
     7bb:	81 c3 e9 2d 00 00    	add    $0x2de9,%ebx
     7c1:	c7 c0 e0 35 00 00    	mov    $0x35e0,%eax
     7c7:	8b 00                	mov    (%eax),%eax
     7c9:	83 c0 04             	add    $0x4,%eax
     7cc:	8b 00                	mov    (%eax),%eax
     7ce:	83 ec 08             	sub    $0x8,%esp
     7d1:	50                   	push   %eax
     7d2:	ff 75 08             	push   0x8(%ebp)
     7d5:	e8 92 ff ff ff       	call   76c <fputs>
     7da:	83 c4 10             	add    $0x10,%esp
     7dd:	89 45 f4             	mov    %eax,-0xc(%ebp)
     7e0:	c7 c0 e0 35 00 00    	mov    $0x35e0,%eax
     7e6:	8b 00                	mov    (%eax),%eax
     7e8:	83 c0 04             	add    $0x4,%eax
     7eb:	8b 00                	mov    (%eax),%eax
     7ed:	50                   	push   %eax
     7ee:	6a 01                	push   $0x1
     7f0:	6a 01                	push   $0x1
     7f2:	8d 83 a1 ef ff ff    	lea    -0x105f(%ebx),%eax
     7f8:	50                   	push   %eax
     7f9:	e8 59 01 00 00       	call   957 <fwrite>
     7fe:	83 c4 10             	add    $0x10,%esp
     801:	8b 45 f4             	mov    -0xc(%ebp),%eax
     804:	40                   	inc    %eax
     805:	8b 5d fc             	mov    -0x4(%ebp),%ebx
     808:	c9                   	leave
     809:	c3                   	ret

0000080a <fopen>:
     80a:	55                   	push   %ebp
     80b:	89 e5                	mov    %esp,%ebp
     80d:	56                   	push   %esi
     80e:	53                   	push   %ebx
     80f:	83 ec 10             	sub    $0x10,%esp
     812:	e8 c8 06 00 00       	call   edf <__x86.get_pc_thunk.bx>
     817:	81 c3 8d 2d 00 00    	add    $0x2d8d,%ebx
     81d:	c7 45 f4 00 00 00 00 	movl   $0x0,-0xc(%ebp)
     824:	eb 19                	jmp    83f <fopen+0x35>
     826:	c7 c0 e0 35 00 00    	mov    $0x35e0,%eax
     82c:	8b 00                	mov    (%eax),%eax
     82e:	8b 55 f4             	mov    -0xc(%ebp),%edx
     831:	c1 e2 02             	shl    $0x2,%edx
     834:	01 d0                	add    %edx,%eax
     836:	8b 00                	mov    (%eax),%eax
     838:	85 c0                	test   %eax,%eax
     83a:	74 0b                	je     847 <fopen+0x3d>
     83c:	ff 45 f4             	incl   -0xc(%ebp)
     83f:	83 7d f4 09          	cmpl   $0x9,-0xc(%ebp)
     843:	7e e1                	jle    826 <fopen+0x1c>
     845:	eb 01                	jmp    848 <fopen+0x3e>
     847:	90                   	nop
     848:	83 7d f4 0a          	cmpl   $0xa,-0xc(%ebp)
     84c:	75 07                	jne    855 <fopen+0x4b>
     84e:	b8 00 00 00 00       	mov    $0x0,%eax
     853:	eb 65                	jmp    8ba <fopen+0xb0>
     855:	83 ec 08             	sub    $0x8,%esp
     858:	6a 03                	push   $0x3
     85a:	ff 75 08             	push   0x8(%ebp)
     85d:	e8 c7 16 00 00       	call   1f29 <open>
     862:	83 c4 10             	add    $0x10,%esp
     865:	89 45 f0             	mov    %eax,-0x10(%ebp)
     868:	83 7d f0 ff          	cmpl   $0xffffffff,-0x10(%ebp)
     86c:	75 19                	jne    887 <fopen+0x7d>
     86e:	83 ec 0c             	sub    $0xc,%esp
     871:	8d 83 a3 ef ff ff    	lea    -0x105d(%ebx),%eax
     877:	50                   	push   %eax
     878:	e8 99 fe ff ff       	call   716 <printf>
     87d:	83 c4 10             	add    $0x10,%esp
     880:	b8 00 00 00 00       	mov    $0x0,%eax
     885:	eb 33                	jmp    8ba <fopen+0xb0>
     887:	c7 c0 e0 35 00 00    	mov    $0x35e0,%eax
     88d:	8b 00                	mov    (%eax),%eax
     88f:	8b 55 f4             	mov    -0xc(%ebp),%edx
     892:	c1 e2 02             	shl    $0x2,%edx
     895:	8d 34 10             	lea    (%eax,%edx,1),%esi
     898:	83 ec 0c             	sub    $0xc,%esp
     89b:	ff 75 f0             	push   -0x10(%ebp)
     89e:	e8 aa fb ff ff       	call   44d <internal_createFileFD>
     8a3:	83 c4 10             	add    $0x10,%esp
     8a6:	89 06                	mov    %eax,(%esi)
     8a8:	c7 c0 e0 35 00 00    	mov    $0x35e0,%eax
     8ae:	8b 00                	mov    (%eax),%eax
     8b0:	8b 55 f4             	mov    -0xc(%ebp),%edx
     8b3:	c1 e2 02             	shl    $0x2,%edx
     8b6:	01 d0                	add    %edx,%eax
     8b8:	8b 00                	mov    (%eax),%eax
     8ba:	8d 65 f8             	lea    -0x8(%ebp),%esp
     8bd:	5b                   	pop    %ebx
     8be:	5e                   	pop    %esi
     8bf:	5d                   	pop    %ebp
     8c0:	c3                   	ret

000008c1 <fclose>:
     8c1:	55                   	push   %ebp
     8c2:	89 e5                	mov    %esp,%ebp
     8c4:	53                   	push   %ebx
     8c5:	83 ec 14             	sub    $0x14,%esp
     8c8:	e8 12 06 00 00       	call   edf <__x86.get_pc_thunk.bx>
     8cd:	81 c3 d7 2c 00 00    	add    $0x2cd7,%ebx
     8d3:	c7 45 f4 00 00 00 00 	movl   $0x0,-0xc(%ebp)
     8da:	eb 6b                	jmp    947 <fclose+0x86>
     8dc:	c7 c0 e0 35 00 00    	mov    $0x35e0,%eax
     8e2:	8b 00                	mov    (%eax),%eax
     8e4:	8b 55 f4             	mov    -0xc(%ebp),%edx
     8e7:	c1 e2 02             	shl    $0x2,%edx
     8ea:	01 d0                	add    %edx,%eax
     8ec:	8b 00                	mov    (%eax),%eax
     8ee:	39 45 08             	cmp    %eax,0x8(%ebp)
     8f1:	75 51                	jne    944 <fclose+0x83>
     8f3:	c7 c0 e0 35 00 00    	mov    $0x35e0,%eax
     8f9:	8b 00                	mov    (%eax),%eax
     8fb:	8b 55 f4             	mov    -0xc(%ebp),%edx
     8fe:	c1 e2 02             	shl    $0x2,%edx
     901:	01 d0                	add    %edx,%eax
     903:	8b 00                	mov    (%eax),%eax
     905:	8b 00                	mov    (%eax),%eax
     907:	85 c0                	test   %eax,%eax
     909:	75 21                	jne    92c <fclose+0x6b>
     90b:	c7 c0 e0 35 00 00    	mov    $0x35e0,%eax
     911:	8b 00                	mov    (%eax),%eax
     913:	8b 55 f4             	mov    -0xc(%ebp),%edx
     916:	c1 e2 02             	shl    $0x2,%edx
     919:	01 d0                	add    %edx,%eax
     91b:	8b 00                	mov    (%eax),%eax
     91d:	8b 40 04             	mov    0x4(%eax),%eax
     920:	83 ec 0c             	sub    $0xc,%esp
     923:	50                   	push   %eax
     924:	e8 24 16 00 00       	call   1f4d <close>
     929:	83 c4 10             	add    $0x10,%esp
     92c:	c7 c0 e0 35 00 00    	mov    $0x35e0,%eax
     932:	8b 00                	mov    (%eax),%eax
     934:	8b 55 f4             	mov    -0xc(%ebp),%edx
     937:	c1 e2 02             	shl    $0x2,%edx
     93a:	01 d0                	add    %edx,%eax
     93c:	c7 00 00 00 00 00    	movl   $0x0,(%eax)
     942:	eb 09                	jmp    94d <fclose+0x8c>
     944:	ff 45 f4             	incl   -0xc(%ebp)
     947:	83 7d f4 09          	cmpl   $0x9,-0xc(%ebp)
     94b:	7e 8f                	jle    8dc <fclose+0x1b>
     94d:	b8 00 00 00 00       	mov    $0x0,%eax
     952:	8b 5d fc             	mov    -0x4(%ebp),%ebx
     955:	c9                   	leave
     956:	c3                   	ret

00000957 <fwrite>:
     957:	55                   	push   %ebp
     958:	89 e5                	mov    %esp,%ebp
     95a:	53                   	push   %ebx
     95b:	83 ec 14             	sub    $0x14,%esp
     95e:	e8 7c 05 00 00       	call   edf <__x86.get_pc_thunk.bx>
     963:	81 c3 41 2c 00 00    	add    $0x2c41,%ebx
     969:	83 7d 14 00          	cmpl   $0x0,0x14(%ebp)
     96d:	74 06                	je     975 <fwrite+0x1e>
     96f:	83 7d 08 00          	cmpl   $0x0,0x8(%ebp)
     973:	75 07                	jne    97c <fwrite+0x25>
     975:	b8 00 00 00 00       	mov    $0x0,%eax
     97a:	eb 49                	jmp    9c5 <fwrite+0x6e>
     97c:	c7 45 f4 00 00 00 00 	movl   $0x0,-0xc(%ebp)
     983:	c7 45 f0 00 00 00 00 	movl   $0x0,-0x10(%ebp)
     98a:	eb 2e                	jmp    9ba <fwrite+0x63>
     98c:	8b 45 14             	mov    0x14(%ebp),%eax
     98f:	8b 00                	mov    (%eax),%eax
     991:	85 c0                	test   %eax,%eax
     993:	75 22                	jne    9b7 <fwrite+0x60>
     995:	8b 55 0c             	mov    0xc(%ebp),%edx
     998:	8b 45 14             	mov    0x14(%ebp),%eax
     99b:	8b 40 04             	mov    0x4(%eax),%eax
     99e:	83 ec 04             	sub    $0x4,%esp
     9a1:	52                   	push   %edx
     9a2:	ff 75 08             	push   0x8(%ebp)
     9a5:	50                   	push   %eax
     9a6:	e8 eb 15 00 00       	call   1f96 <write>
     9ab:	83 c4 10             	add    $0x10,%esp
     9ae:	89 45 ec             	mov    %eax,-0x14(%ebp)
     9b1:	8b 45 ec             	mov    -0x14(%ebp),%eax
     9b4:	01 45 f4             	add    %eax,-0xc(%ebp)
     9b7:	ff 45 f0             	incl   -0x10(%ebp)
     9ba:	8b 45 f0             	mov    -0x10(%ebp),%eax
     9bd:	3b 45 10             	cmp    0x10(%ebp),%eax
     9c0:	72 ca                	jb     98c <fwrite+0x35>
     9c2:	8b 45 f4             	mov    -0xc(%ebp),%eax
     9c5:	8b 5d fc             	mov    -0x4(%ebp),%ebx
     9c8:	c9                   	leave
     9c9:	c3                   	ret

000009ca <fread>:
     9ca:	55                   	push   %ebp
     9cb:	89 e5                	mov    %esp,%ebp
     9cd:	53                   	push   %ebx
     9ce:	83 ec 14             	sub    $0x14,%esp
     9d1:	e8 09 05 00 00       	call   edf <__x86.get_pc_thunk.bx>
     9d6:	81 c3 ce 2b 00 00    	add    $0x2bce,%ebx
     9dc:	83 7d 14 00          	cmpl   $0x0,0x14(%ebp)
     9e0:	74 06                	je     9e8 <fread+0x1e>
     9e2:	83 7d 08 00          	cmpl   $0x0,0x8(%ebp)
     9e6:	75 07                	jne    9ef <fread+0x25>
     9e8:	b8 00 00 00 00       	mov    $0x0,%eax
     9ed:	eb 4f                	jmp    a3e <fread+0x74>
     9ef:	c7 45 f4 00 00 00 00 	movl   $0x0,-0xc(%ebp)
     9f6:	c7 45 f0 00 00 00 00 	movl   $0x0,-0x10(%ebp)
     9fd:	eb 34                	jmp    a33 <fread+0x69>
     9ff:	8b 45 14             	mov    0x14(%ebp),%eax
     a02:	8b 00                	mov    (%eax),%eax
     a04:	85 c0                	test   %eax,%eax
     a06:	75 28                	jne    a30 <fread+0x66>
     a08:	8b 55 0c             	mov    0xc(%ebp),%edx
     a0b:	8b 45 f4             	mov    -0xc(%ebp),%eax
     a0e:	0f af 45 0c          	imul   0xc(%ebp),%eax
     a12:	89 c1                	mov    %eax,%ecx
     a14:	8b 45 08             	mov    0x8(%ebp),%eax
     a17:	01 c1                	add    %eax,%ecx
     a19:	8b 45 14             	mov    0x14(%ebp),%eax
     a1c:	8b 40 04             	mov    0x4(%eax),%eax
     a1f:	83 ec 04             	sub    $0x4,%esp
     a22:	52                   	push   %edx
     a23:	51                   	push   %ecx
     a24:	50                   	push   %eax
     a25:	e8 43 15 00 00       	call   1f6d <read>
     a2a:	83 c4 10             	add    $0x10,%esp
     a2d:	ff 45 f4             	incl   -0xc(%ebp)
     a30:	ff 45 f0             	incl   -0x10(%ebp)
     a33:	8b 45 f0             	mov    -0x10(%ebp),%eax
     a36:	3b 45 10             	cmp    0x10(%ebp),%eax
     a39:	72 c4                	jb     9ff <fread+0x35>
     a3b:	8b 45 f4             	mov    -0xc(%ebp),%eax
     a3e:	8b 5d fc             	mov    -0x4(%ebp),%ebx
     a41:	c9                   	leave
     a42:	c3                   	ret

00000a43 <feof>:
     a43:	55                   	push   %ebp
     a44:	89 e5                	mov    %esp,%ebp
     a46:	53                   	push   %ebx
     a47:	83 ec 14             	sub    $0x14,%esp
     a4a:	e8 90 04 00 00       	call   edf <__x86.get_pc_thunk.bx>
     a4f:	81 c3 55 2b 00 00    	add    $0x2b55,%ebx
     a55:	83 7d 08 00          	cmpl   $0x0,0x8(%ebp)
     a59:	75 07                	jne    a62 <feof+0x1f>
     a5b:	b8 01 00 00 00       	mov    $0x1,%eax
     a60:	eb 68                	jmp    aca <feof+0x87>
     a62:	8b 45 08             	mov    0x8(%ebp),%eax
     a65:	8b 00                	mov    (%eax),%eax
     a67:	85 c0                	test   %eax,%eax
     a69:	75 5f                	jne    aca <feof+0x87>
     a6b:	8b 45 08             	mov    0x8(%ebp),%eax
     a6e:	8b 40 04             	mov    0x4(%eax),%eax
     a71:	83 ec 04             	sub    $0x4,%esp
     a74:	6a 01                	push   $0x1
     a76:	6a 00                	push   $0x0
     a78:	50                   	push   %eax
     a79:	e8 41 15 00 00       	call   1fbf <lseek>
     a7e:	83 c4 10             	add    $0x10,%esp
     a81:	89 45 f4             	mov    %eax,-0xc(%ebp)
     a84:	8b 45 08             	mov    0x8(%ebp),%eax
     a87:	8b 40 04             	mov    0x4(%eax),%eax
     a8a:	83 ec 04             	sub    $0x4,%esp
     a8d:	6a 02                	push   $0x2
     a8f:	6a 00                	push   $0x0
     a91:	50                   	push   %eax
     a92:	e8 28 15 00 00       	call   1fbf <lseek>
     a97:	83 c4 10             	add    $0x10,%esp
     a9a:	89 45 f0             	mov    %eax,-0x10(%ebp)
     a9d:	8b 45 08             	mov    0x8(%ebp),%eax
     aa0:	8b 40 04             	mov    0x4(%eax),%eax
     aa3:	83 ec 04             	sub    $0x4,%esp
     aa6:	6a 00                	push   $0x0
     aa8:	ff 75 f4             	push   -0xc(%ebp)
     aab:	50                   	push   %eax
     aac:	e8 0e 15 00 00       	call   1fbf <lseek>
     ab1:	83 c4 10             	add    $0x10,%esp
     ab4:	8b 45 f4             	mov    -0xc(%ebp),%eax
     ab7:	3b 45 f0             	cmp    -0x10(%ebp),%eax
     aba:	7c 07                	jl     ac3 <feof+0x80>
     abc:	b8 01 00 00 00       	mov    $0x1,%eax
     ac1:	eb 07                	jmp    aca <feof+0x87>
     ac3:	b8 00 00 00 00       	mov    $0x0,%eax
     ac8:	eb 00                	jmp    aca <feof+0x87>
     aca:	8b 5d fc             	mov    -0x4(%ebp),%ebx
     acd:	c9                   	leave
     ace:	c3                   	ret

00000acf <ftell>:
     acf:	55                   	push   %ebp
     ad0:	89 e5                	mov    %esp,%ebp
     ad2:	53                   	push   %ebx
     ad3:	83 ec 04             	sub    $0x4,%esp
     ad6:	e8 00 04 00 00       	call   edb <__x86.get_pc_thunk.ax>
     adb:	05 c9 2a 00 00       	add    $0x2ac9,%eax
     ae0:	83 7d 08 00          	cmpl   $0x0,0x8(%ebp)
     ae4:	75 07                	jne    aed <ftell+0x1e>
     ae6:	b8 00 00 00 00       	mov    $0x0,%eax
     aeb:	eb 28                	jmp    b15 <ftell+0x46>
     aed:	8b 55 08             	mov    0x8(%ebp),%edx
     af0:	8b 12                	mov    (%edx),%edx
     af2:	85 d2                	test   %edx,%edx
     af4:	75 1a                	jne    b10 <ftell+0x41>
     af6:	8b 55 08             	mov    0x8(%ebp),%edx
     af9:	8b 52 04             	mov    0x4(%edx),%edx
     afc:	83 ec 04             	sub    $0x4,%esp
     aff:	6a 01                	push   $0x1
     b01:	6a 00                	push   $0x0
     b03:	52                   	push   %edx
     b04:	89 c3                	mov    %eax,%ebx
     b06:	e8 b4 14 00 00       	call   1fbf <lseek>
     b0b:	83 c4 10             	add    $0x10,%esp
     b0e:	eb 05                	jmp    b15 <ftell+0x46>
     b10:	b8 00 00 00 00       	mov    $0x0,%eax
     b15:	8b 5d fc             	mov    -0x4(%ebp),%ebx
     b18:	c9                   	leave
     b19:	c3                   	ret

00000b1a <fseek>:
     b1a:	55                   	push   %ebp
     b1b:	89 e5                	mov    %esp,%ebp
     b1d:	53                   	push   %ebx
     b1e:	83 ec 04             	sub    $0x4,%esp
     b21:	e8 b5 03 00 00       	call   edb <__x86.get_pc_thunk.ax>
     b26:	05 7e 2a 00 00       	add    $0x2a7e,%eax
     b2b:	83 7d 08 00          	cmpl   $0x0,0x8(%ebp)
     b2f:	75 07                	jne    b38 <fseek+0x1e>
     b31:	b8 ff ff ff ff       	mov    $0xffffffff,%eax
     b36:	eb 2f                	jmp    b67 <fseek+0x4d>
     b38:	8b 55 08             	mov    0x8(%ebp),%edx
     b3b:	8b 12                	mov    (%edx),%edx
     b3d:	85 d2                	test   %edx,%edx
     b3f:	75 21                	jne    b62 <fseek+0x48>
     b41:	8b 55 08             	mov    0x8(%ebp),%edx
     b44:	8b 52 04             	mov    0x4(%edx),%edx
     b47:	83 ec 04             	sub    $0x4,%esp
     b4a:	ff 75 10             	push   0x10(%ebp)
     b4d:	ff 75 0c             	push   0xc(%ebp)
     b50:	52                   	push   %edx
     b51:	89 c3                	mov    %eax,%ebx
     b53:	e8 67 14 00 00       	call   1fbf <lseek>
     b58:	83 c4 10             	add    $0x10,%esp
     b5b:	b8 00 00 00 00       	mov    $0x0,%eax
     b60:	eb 05                	jmp    b67 <fseek+0x4d>
     b62:	b8 ff ff ff ff       	mov    $0xffffffff,%eax
     b67:	8b 5d fc             	mov    -0x4(%ebp),%ebx
     b6a:	c9                   	leave
     b6b:	c3                   	ret

00000b6c <freopen>:
     b6c:	55                   	push   %ebp
     b6d:	89 e5                	mov    %esp,%ebp
     b6f:	56                   	push   %esi
     b70:	53                   	push   %ebx
     b71:	83 ec 10             	sub    $0x10,%esp
     b74:	e8 66 03 00 00       	call   edf <__x86.get_pc_thunk.bx>
     b79:	81 c3 2b 2a 00 00    	add    $0x2a2b,%ebx
     b7f:	c7 45 f4 ff ff ff ff 	movl   $0xffffffff,-0xc(%ebp)
     b86:	c7 45 f0 00 00 00 00 	movl   $0x0,-0x10(%ebp)
     b8d:	eb 22                	jmp    bb1 <freopen+0x45>
     b8f:	c7 c0 e0 35 00 00    	mov    $0x35e0,%eax
     b95:	8b 00                	mov    (%eax),%eax
     b97:	8b 55 f0             	mov    -0x10(%ebp),%edx
     b9a:	c1 e2 02             	shl    $0x2,%edx
     b9d:	01 d0                	add    %edx,%eax
     b9f:	8b 00                	mov    (%eax),%eax
     ba1:	39 45 10             	cmp    %eax,0x10(%ebp)
     ba4:	75 08                	jne    bae <freopen+0x42>
     ba6:	8b 45 f0             	mov    -0x10(%ebp),%eax
     ba9:	89 45 f4             	mov    %eax,-0xc(%ebp)
     bac:	eb 10                	jmp    bbe <freopen+0x52>
     bae:	ff 45 f0             	incl   -0x10(%ebp)
     bb1:	c7 c0 e4 35 00 00    	mov    $0x35e4,%eax
     bb7:	8b 00                	mov    (%eax),%eax
     bb9:	39 45 f0             	cmp    %eax,-0x10(%ebp)
     bbc:	7c d1                	jl     b8f <freopen+0x23>
     bbe:	83 7d f4 ff          	cmpl   $0xffffffff,-0xc(%ebp)
     bc2:	74 51                	je     c15 <freopen+0xa9>
     bc4:	83 ec 0c             	sub    $0xc,%esp
     bc7:	ff 75 10             	push   0x10(%ebp)
     bca:	e8 f2 fc ff ff       	call   8c1 <fclose>
     bcf:	83 c4 10             	add    $0x10,%esp
     bd2:	83 ec 08             	sub    $0x8,%esp
     bd5:	6a 03                	push   $0x3
     bd7:	ff 75 08             	push   0x8(%ebp)
     bda:	e8 4a 13 00 00       	call   1f29 <open>
     bdf:	83 c4 10             	add    $0x10,%esp
     be2:	c7 c2 e0 35 00 00    	mov    $0x35e0,%edx
     be8:	8b 12                	mov    (%edx),%edx
     bea:	8b 4d f4             	mov    -0xc(%ebp),%ecx
     bed:	c1 e1 02             	shl    $0x2,%ecx
     bf0:	8d 34 0a             	lea    (%edx,%ecx,1),%esi
     bf3:	83 ec 0c             	sub    $0xc,%esp
     bf6:	50                   	push   %eax
     bf7:	e8 51 f8 ff ff       	call   44d <internal_createFileFD>
     bfc:	83 c4 10             	add    $0x10,%esp
     bff:	89 06                	mov    %eax,(%esi)
     c01:	c7 c0 e0 35 00 00    	mov    $0x35e0,%eax
     c07:	8b 00                	mov    (%eax),%eax
     c09:	8b 55 f4             	mov    -0xc(%ebp),%edx
     c0c:	c1 e2 02             	shl    $0x2,%edx
     c0f:	01 d0                	add    %edx,%eax
     c11:	8b 00                	mov    (%eax),%eax
     c13:	eb 11                	jmp    c26 <freopen+0xba>
     c15:	83 ec 08             	sub    $0x8,%esp
     c18:	ff 75 0c             	push   0xc(%ebp)
     c1b:	ff 75 08             	push   0x8(%ebp)
     c1e:	e8 e7 fb ff ff       	call   80a <fopen>
     c23:	83 c4 10             	add    $0x10,%esp
     c26:	8d 65 f8             	lea    -0x8(%ebp),%esp
     c29:	5b                   	pop    %ebx
     c2a:	5e                   	pop    %esi
     c2b:	5d                   	pop    %ebp
     c2c:	c3                   	ret

00000c2d <fputc>:
     c2d:	55                   	push   %ebp
     c2e:	89 e5                	mov    %esp,%ebp
     c30:	53                   	push   %ebx
     c31:	83 ec 14             	sub    $0x14,%esp
     c34:	e8 a2 02 00 00       	call   edb <__x86.get_pc_thunk.ax>
     c39:	05 6b 29 00 00       	add    $0x296b,%eax
     c3e:	8b 55 08             	mov    0x8(%ebp),%edx
     c41:	88 55 f7             	mov    %dl,-0x9(%ebp)
     c44:	ff 75 0c             	push   0xc(%ebp)
     c47:	6a 01                	push   $0x1
     c49:	6a 01                	push   $0x1
     c4b:	8d 55 f7             	lea    -0x9(%ebp),%edx
     c4e:	52                   	push   %edx
     c4f:	89 c3                	mov    %eax,%ebx
     c51:	e8 01 fd ff ff       	call   957 <fwrite>
     c56:	83 c4 10             	add    $0x10,%esp
     c59:	8b 5d fc             	mov    -0x4(%ebp),%ebx
     c5c:	c9                   	leave
     c5d:	c3                   	ret

00000c5e <putc>:
     c5e:	55                   	push   %ebp
     c5f:	89 e5                	mov    %esp,%ebp
     c61:	53                   	push   %ebx
     c62:	83 ec 04             	sub    $0x4,%esp
     c65:	e8 71 02 00 00       	call   edb <__x86.get_pc_thunk.ax>
     c6a:	05 3a 29 00 00       	add    $0x293a,%eax
     c6f:	83 ec 08             	sub    $0x8,%esp
     c72:	ff 75 0c             	push   0xc(%ebp)
     c75:	ff 75 08             	push   0x8(%ebp)
     c78:	89 c3                	mov    %eax,%ebx
     c7a:	e8 ae ff ff ff       	call   c2d <fputc>
     c7f:	83 c4 10             	add    $0x10,%esp
     c82:	8b 5d fc             	mov    -0x4(%ebp),%ebx
     c85:	c9                   	leave
     c86:	c3                   	ret

00000c87 <putchar>:
     c87:	55                   	push   %ebp
     c88:	89 e5                	mov    %esp,%ebp
     c8a:	53                   	push   %ebx
     c8b:	83 ec 04             	sub    $0x4,%esp
     c8e:	e8 48 02 00 00       	call   edb <__x86.get_pc_thunk.ax>
     c93:	05 11 29 00 00       	add    $0x2911,%eax
     c98:	c7 c2 e0 35 00 00    	mov    $0x35e0,%edx
     c9e:	8b 12                	mov    (%edx),%edx
     ca0:	83 c2 04             	add    $0x4,%edx
     ca3:	8b 12                	mov    (%edx),%edx
     ca5:	83 ec 08             	sub    $0x8,%esp
     ca8:	52                   	push   %edx
     ca9:	ff 75 08             	push   0x8(%ebp)
     cac:	89 c3                	mov    %eax,%ebx
     cae:	e8 ab ff ff ff       	call   c5e <putc>
     cb3:	83 c4 10             	add    $0x10,%esp
     cb6:	8b 5d fc             	mov    -0x4(%ebp),%ebx
     cb9:	c9                   	leave
     cba:	c3                   	ret

00000cbb <snprintf>:
     cbb:	55                   	push   %ebp
     cbc:	89 e5                	mov    %esp,%ebp
     cbe:	53                   	push   %ebx
     cbf:	81 ec a4 00 00 00    	sub    $0xa4,%esp
     cc5:	e8 15 02 00 00       	call   edf <__x86.get_pc_thunk.bx>
     cca:	81 c3 da 28 00 00    	add    $0x28da,%ebx
     cd0:	8d 45 14             	lea    0x14(%ebp),%eax
     cd3:	89 45 c8             	mov    %eax,-0x38(%ebp)
     cd6:	83 7d 08 00          	cmpl   $0x0,0x8(%ebp)
     cda:	74 0c                	je     ce8 <snprintf+0x2d>
     cdc:	83 7d 10 00          	cmpl   $0x0,0x10(%ebp)
     ce0:	74 06                	je     ce8 <snprintf+0x2d>
     ce2:	83 7d 0c 00          	cmpl   $0x0,0xc(%ebp)
     ce6:	75 0a                	jne    cf2 <snprintf+0x37>
     ce8:	b8 00 00 00 00       	mov    $0x0,%eax
     ced:	e9 e4 01 00 00       	jmp    ed6 <snprintf+0x21b>
     cf2:	c7 45 f4 00 00 00 00 	movl   $0x0,-0xc(%ebp)
     cf9:	c7 45 f0 00 00 00 00 	movl   $0x0,-0x10(%ebp)
     d00:	e9 b9 01 00 00       	jmp    ebe <snprintf+0x203>
     d05:	8b 45 10             	mov    0x10(%ebp),%eax
     d08:	8a 00                	mov    (%eax),%al
     d0a:	3c 25                	cmp    $0x25,%al
     d0c:	74 25                	je     d33 <snprintf+0x78>
     d0e:	8b 45 10             	mov    0x10(%ebp),%eax
     d11:	8d 50 01             	lea    0x1(%eax),%edx
     d14:	89 55 10             	mov    %edx,0x10(%ebp)
     d17:	8b 55 f4             	mov    -0xc(%ebp),%edx
     d1a:	8d 4a 01             	lea    0x1(%edx),%ecx
     d1d:	89 4d f4             	mov    %ecx,-0xc(%ebp)
     d20:	89 d1                	mov    %edx,%ecx
     d22:	8b 55 08             	mov    0x8(%ebp),%edx
     d25:	01 ca                	add    %ecx,%edx
     d27:	8a 00                	mov    (%eax),%al
     d29:	88 02                	mov    %al,(%edx)
     d2b:	ff 45 f0             	incl   -0x10(%ebp)
     d2e:	e9 8b 01 00 00       	jmp    ebe <snprintf+0x203>
     d33:	ff 45 10             	incl   0x10(%ebp)
     d36:	8b 45 10             	mov    0x10(%ebp),%eax
     d39:	8a 00                	mov    (%eax),%al
     d3b:	0f be c0             	movsbl %al,%eax
     d3e:	83 f8 78             	cmp    $0x78,%eax
     d41:	0f 84 f6 00 00 00    	je     e3d <snprintf+0x182>
     d47:	83 f8 78             	cmp    $0x78,%eax
     d4a:	0f 8f 6b 01 00 00    	jg     ebb <snprintf+0x200>
     d50:	83 f8 64             	cmp    $0x64,%eax
     d53:	74 6d                	je     dc2 <snprintf+0x107>
     d55:	83 f8 73             	cmp    $0x73,%eax
     d58:	0f 85 5d 01 00 00    	jne    ebb <snprintf+0x200>
     d5e:	8b 45 c8             	mov    -0x38(%ebp),%eax
     d61:	8d 50 04             	lea    0x4(%eax),%edx
     d64:	89 55 c8             	mov    %edx,-0x38(%ebp)
     d67:	8b 00                	mov    (%eax),%eax
     d69:	89 45 dc             	mov    %eax,-0x24(%ebp)
     d6c:	83 ec 0c             	sub    $0xc,%esp
     d6f:	ff 75 dc             	push   -0x24(%ebp)
     d72:	e8 61 0a 00 00       	call   17d8 <strlen>
     d77:	83 c4 10             	add    $0x10,%esp
     d7a:	89 45 d4             	mov    %eax,-0x2c(%ebp)
     d7d:	c7 45 ec 00 00 00 00 	movl   $0x0,-0x14(%ebp)
     d84:	eb 23                	jmp    da9 <snprintf+0xee>
     d86:	8b 55 ec             	mov    -0x14(%ebp),%edx
     d89:	8b 45 dc             	mov    -0x24(%ebp),%eax
     d8c:	8d 0c 02             	lea    (%edx,%eax,1),%ecx
     d8f:	8b 45 f4             	mov    -0xc(%ebp),%eax
     d92:	8d 50 01             	lea    0x1(%eax),%edx
     d95:	89 55 f4             	mov    %edx,-0xc(%ebp)
     d98:	89 c2                	mov    %eax,%edx
     d9a:	8b 45 08             	mov    0x8(%ebp),%eax
     d9d:	01 c2                	add    %eax,%edx
     d9f:	8a 01                	mov    (%ecx),%al
     da1:	88 02                	mov    %al,(%edx)
     da3:	ff 45 f0             	incl   -0x10(%ebp)
     da6:	ff 45 ec             	incl   -0x14(%ebp)
     da9:	8b 45 ec             	mov    -0x14(%ebp),%eax
     dac:	3b 45 d4             	cmp    -0x2c(%ebp),%eax
     daf:	0f 8d ff 00 00 00    	jge    eb4 <snprintf+0x1f9>
     db5:	8b 45 f0             	mov    -0x10(%ebp),%eax
     db8:	3b 45 0c             	cmp    0xc(%ebp),%eax
     dbb:	72 c9                	jb     d86 <snprintf+0xcb>
     dbd:	e9 f2 00 00 00       	jmp    eb4 <snprintf+0x1f9>
     dc2:	8b 45 c8             	mov    -0x38(%ebp),%eax
     dc5:	8d 50 04             	lea    0x4(%eax),%edx
     dc8:	89 55 c8             	mov    %edx,-0x38(%ebp)
     dcb:	8b 00                	mov    (%eax),%eax
     dcd:	89 45 d0             	mov    %eax,-0x30(%ebp)
     dd0:	83 ec 04             	sub    $0x4,%esp
     dd3:	6a 0a                	push   $0xa
     dd5:	8d 85 64 ff ff ff    	lea    -0x9c(%ebp),%eax
     ddb:	50                   	push   %eax
     ddc:	ff 75 d0             	push   -0x30(%ebp)
     ddf:	e8 ec 03 00 00       	call   11d0 <itoa>
     de4:	83 c4 10             	add    $0x10,%esp
     de7:	89 45 dc             	mov    %eax,-0x24(%ebp)
     dea:	83 ec 0c             	sub    $0xc,%esp
     ded:	ff 75 dc             	push   -0x24(%ebp)
     df0:	e8 e3 09 00 00       	call   17d8 <strlen>
     df5:	83 c4 10             	add    $0x10,%esp
     df8:	89 45 cc             	mov    %eax,-0x34(%ebp)
     dfb:	c7 45 e8 00 00 00 00 	movl   $0x0,-0x18(%ebp)
     e02:	eb 23                	jmp    e27 <snprintf+0x16c>
     e04:	8b 55 e8             	mov    -0x18(%ebp),%edx
     e07:	8b 45 dc             	mov    -0x24(%ebp),%eax
     e0a:	8d 0c 02             	lea    (%edx,%eax,1),%ecx
     e0d:	8b 45 f4             	mov    -0xc(%ebp),%eax
     e10:	8d 50 01             	lea    0x1(%eax),%edx
     e13:	89 55 f4             	mov    %edx,-0xc(%ebp)
     e16:	89 c2                	mov    %eax,%edx
     e18:	8b 45 08             	mov    0x8(%ebp),%eax
     e1b:	01 c2                	add    %eax,%edx
     e1d:	8a 01                	mov    (%ecx),%al
     e1f:	88 02                	mov    %al,(%edx)
     e21:	ff 45 f0             	incl   -0x10(%ebp)
     e24:	ff 45 e8             	incl   -0x18(%ebp)
     e27:	8b 45 e8             	mov    -0x18(%ebp),%eax
     e2a:	3b 45 cc             	cmp    -0x34(%ebp),%eax
     e2d:	0f 8d 84 00 00 00    	jge    eb7 <snprintf+0x1fc>
     e33:	8b 45 f0             	mov    -0x10(%ebp),%eax
     e36:	3b 45 0c             	cmp    0xc(%ebp),%eax
     e39:	72 c9                	jb     e04 <snprintf+0x149>
     e3b:	eb 7a                	jmp    eb7 <snprintf+0x1fc>
     e3d:	8b 45 c8             	mov    -0x38(%ebp),%eax
     e40:	8d 50 04             	lea    0x4(%eax),%edx
     e43:	89 55 c8             	mov    %edx,-0x38(%ebp)
     e46:	8b 00                	mov    (%eax),%eax
     e48:	89 45 e0             	mov    %eax,-0x20(%ebp)
     e4b:	83 ec 04             	sub    $0x4,%esp
     e4e:	6a 10                	push   $0x10
     e50:	8d 85 64 ff ff ff    	lea    -0x9c(%ebp),%eax
     e56:	50                   	push   %eax
     e57:	ff 75 e0             	push   -0x20(%ebp)
     e5a:	e8 71 03 00 00       	call   11d0 <itoa>
     e5f:	83 c4 10             	add    $0x10,%esp
     e62:	89 45 dc             	mov    %eax,-0x24(%ebp)
     e65:	83 ec 0c             	sub    $0xc,%esp
     e68:	ff 75 dc             	push   -0x24(%ebp)
     e6b:	e8 68 09 00 00       	call   17d8 <strlen>
     e70:	83 c4 10             	add    $0x10,%esp
     e73:	89 45 d8             	mov    %eax,-0x28(%ebp)
     e76:	c7 45 e4 00 00 00 00 	movl   $0x0,-0x1c(%ebp)
     e7d:	eb 23                	jmp    ea2 <snprintf+0x1e7>
     e7f:	8b 55 e4             	mov    -0x1c(%ebp),%edx
     e82:	8b 45 dc             	mov    -0x24(%ebp),%eax
     e85:	8d 0c 02             	lea    (%edx,%eax,1),%ecx
     e88:	8b 45 f4             	mov    -0xc(%ebp),%eax
     e8b:	8d 50 01             	lea    0x1(%eax),%edx
     e8e:	89 55 f4             	mov    %edx,-0xc(%ebp)
     e91:	89 c2                	mov    %eax,%edx
     e93:	8b 45 08             	mov    0x8(%ebp),%eax
     e96:	01 c2                	add    %eax,%edx
     e98:	8a 01                	mov    (%ecx),%al
     e9a:	88 02                	mov    %al,(%edx)
     e9c:	ff 45 f0             	incl   -0x10(%ebp)
     e9f:	ff 45 e4             	incl   -0x1c(%ebp)
     ea2:	8b 45 e4             	mov    -0x1c(%ebp),%eax
     ea5:	3b 45 d8             	cmp    -0x28(%ebp),%eax
     ea8:	7d 10                	jge    eba <snprintf+0x1ff>
     eaa:	8b 45 f0             	mov    -0x10(%ebp),%eax
     ead:	3b 45 0c             	cmp    0xc(%ebp),%eax
     eb0:	72 cd                	jb     e7f <snprintf+0x1c4>
     eb2:	eb 06                	jmp    eba <snprintf+0x1ff>
     eb4:	90                   	nop
     eb5:	eb 04                	jmp    ebb <snprintf+0x200>
     eb7:	90                   	nop
     eb8:	eb 01                	jmp    ebb <snprintf+0x200>
     eba:	90                   	nop
     ebb:	ff 45 10             	incl   0x10(%ebp)
     ebe:	8b 45 10             	mov    0x10(%ebp),%eax
     ec1:	8a 00                	mov    (%eax),%al
     ec3:	84 c0                	test   %al,%al
     ec5:	74 0c                	je     ed3 <snprintf+0x218>
     ec7:	8b 45 f0             	mov    -0x10(%ebp),%eax
     eca:	3b 45 0c             	cmp    0xc(%ebp),%eax
     ecd:	0f 82 32 fe ff ff    	jb     d05 <snprintf+0x4a>
     ed3:	8b 45 f0             	mov    -0x10(%ebp),%eax
     ed6:	8b 5d fc             	mov    -0x4(%ebp),%ebx
     ed9:	c9                   	leave
     eda:	c3                   	ret

00000edb <__x86.get_pc_thunk.ax>:
     edb:	8b 04 24             	mov    (%esp),%eax
     ede:	c3                   	ret

00000edf <__x86.get_pc_thunk.bx>:
     edf:	8b 1c 24             	mov    (%esp),%ebx
     ee2:	c3                   	ret

00000ee3 <init_stdlib>:
     ee3:	55                   	push   %ebp
     ee4:	89 e5                	mov    %esp,%ebp
     ee6:	53                   	push   %ebx
     ee7:	83 ec 04             	sub    $0x4,%esp
     eea:	e8 f0 ff ff ff       	call   edf <__x86.get_pc_thunk.bx>
     eef:	81 c3 b5 26 00 00    	add    $0x26b5,%ebx
     ef5:	c7 c0 e8 35 00 00    	mov    $0x35e8,%eax
     efb:	c7 40 04 00 00 00 01 	movl   $0x1000000,0x4(%eax)
     f02:	c7 c0 e8 35 00 00    	mov    $0x35e8,%eax
     f08:	8b 40 04             	mov    0x4(%eax),%eax
     f0b:	83 ec 0c             	sub    $0xc,%esp
     f0e:	50                   	push   %eax
     f0f:	e8 15 11 00 00       	call   2029 <memory_requestRegion>
     f14:	83 c4 10             	add    $0x10,%esp
     f17:	c7 c2 e8 35 00 00    	mov    $0x35e8,%edx
     f1d:	89 02                	mov    %eax,(%edx)
     f1f:	c7 c0 e8 35 00 00    	mov    $0x35e8,%eax
     f25:	8b 10                	mov    (%eax),%edx
     f27:	c7 c0 e8 35 00 00    	mov    $0x35e8,%eax
     f2d:	89 50 08             	mov    %edx,0x8(%eax)
     f30:	c7 c0 e8 35 00 00    	mov    $0x35e8,%eax
     f36:	8b 50 08             	mov    0x8(%eax),%edx
     f39:	c7 c0 f4 35 00 00    	mov    $0x35f4,%eax
     f3f:	89 10                	mov    %edx,(%eax)
     f41:	90                   	nop
     f42:	8b 5d fc             	mov    -0x4(%ebp),%ebx
     f45:	c9                   	leave
     f46:	c3                   	ret

00000f47 <clean_stdlib>:
     f47:	55                   	push   %ebp
     f48:	89 e5                	mov    %esp,%ebp
     f4a:	53                   	push   %ebx
     f4b:	83 ec 04             	sub    $0x4,%esp
     f4e:	e8 88 ff ff ff       	call   edb <__x86.get_pc_thunk.ax>
     f53:	05 51 26 00 00       	add    $0x2651,%eax
     f58:	c7 c2 e8 35 00 00    	mov    $0x35e8,%edx
     f5e:	8b 52 04             	mov    0x4(%edx),%edx
     f61:	89 d1                	mov    %edx,%ecx
     f63:	c7 c2 e8 35 00 00    	mov    $0x35e8,%edx
     f69:	8b 12                	mov    (%edx),%edx
     f6b:	83 ec 08             	sub    $0x8,%esp
     f6e:	51                   	push   %ecx
     f6f:	52                   	push   %edx
     f70:	89 c3                	mov    %eax,%ebx
     f72:	e8 cf 10 00 00       	call   2046 <memory_returnRegion>
     f77:	83 c4 10             	add    $0x10,%esp
     f7a:	90                   	nop
     f7b:	8b 5d fc             	mov    -0x4(%ebp),%ebx
     f7e:	c9                   	leave
     f7f:	c3                   	ret

00000f80 <malloc>:
     f80:	55                   	push   %ebp
     f81:	89 e5                	mov    %esp,%ebp
     f83:	53                   	push   %ebx
     f84:	83 ec 14             	sub    $0x14,%esp
     f87:	e8 4f ff ff ff       	call   edb <__x86.get_pc_thunk.ax>
     f8c:	05 18 26 00 00       	add    $0x2618,%eax
     f91:	c7 c2 f4 35 00 00    	mov    $0x35f4,%edx
     f97:	8b 12                	mov    (%edx),%edx
     f99:	89 55 f4             	mov    %edx,-0xc(%ebp)
     f9c:	c7 c2 f4 35 00 00    	mov    $0x35f4,%edx
     fa2:	8b 12                	mov    (%edx),%edx
     fa4:	8b 4d 08             	mov    0x8(%ebp),%ecx
     fa7:	83 c1 10             	add    $0x10,%ecx
     faa:	01 d1                	add    %edx,%ecx
     fac:	c7 c2 f4 35 00 00    	mov    $0x35f4,%edx
     fb2:	89 0a                	mov    %ecx,(%edx)
     fb4:	c7 c2 f4 35 00 00    	mov    $0x35f4,%edx
     fba:	8b 0a                	mov    (%edx),%ecx
     fbc:	c7 c2 e8 35 00 00    	mov    $0x35e8,%edx
     fc2:	8b 1a                	mov    (%edx),%ebx
     fc4:	c7 c2 e8 35 00 00    	mov    $0x35e8,%edx
     fca:	8b 52 04             	mov    0x4(%edx),%edx
     fcd:	01 da                	add    %ebx,%edx
     fcf:	39 d1                	cmp    %edx,%ecx
     fd1:	72 16                	jb     fe9 <malloc+0x69>
     fd3:	83 ec 0c             	sub    $0xc,%esp
     fd6:	8d 90 b4 ef ff ff    	lea    -0x104c(%eax),%edx
     fdc:	52                   	push   %edx
     fdd:	89 c3                	mov    %eax,%ebx
     fdf:	e8 32 f7 ff ff       	call   716 <printf>
     fe4:	83 c4 10             	add    $0x10,%esp
     fe7:	eb fe                	jmp    fe7 <malloc+0x67>
     fe9:	8b 45 f4             	mov    -0xc(%ebp),%eax
     fec:	8b 5d fc             	mov    -0x4(%ebp),%ebx
     fef:	c9                   	leave
     ff0:	c3                   	ret

00000ff1 <calloc>:
     ff1:	55                   	push   %ebp
     ff2:	89 e5                	mov    %esp,%ebp
     ff4:	53                   	push   %ebx
     ff5:	83 ec 04             	sub    $0x4,%esp
     ff8:	e8 de fe ff ff       	call   edb <__x86.get_pc_thunk.ax>
     ffd:	05 a7 25 00 00       	add    $0x25a7,%eax
    1002:	8b 55 08             	mov    0x8(%ebp),%edx
    1005:	0f af 55 0c          	imul   0xc(%ebp),%edx
    1009:	83 ec 0c             	sub    $0xc,%esp
    100c:	52                   	push   %edx
    100d:	89 c3                	mov    %eax,%ebx
    100f:	e8 6c ff ff ff       	call   f80 <malloc>
    1014:	83 c4 10             	add    $0x10,%esp
    1017:	8b 5d fc             	mov    -0x4(%ebp),%ebx
    101a:	c9                   	leave
    101b:	c3                   	ret

0000101c <free>:
    101c:	55                   	push   %ebp
    101d:	89 e5                	mov    %esp,%ebp
    101f:	e8 b7 fe ff ff       	call   edb <__x86.get_pc_thunk.ax>
    1024:	05 80 25 00 00       	add    $0x2580,%eax
    1029:	90                   	nop
    102a:	5d                   	pop    %ebp
    102b:	c3                   	ret

0000102c <realloc>:
    102c:	55                   	push   %ebp
    102d:	89 e5                	mov    %esp,%ebp
    102f:	53                   	push   %ebx
    1030:	83 ec 14             	sub    $0x14,%esp
    1033:	e8 a7 fe ff ff       	call   edf <__x86.get_pc_thunk.bx>
    1038:	81 c3 6c 25 00 00    	add    $0x256c,%ebx
    103e:	83 ec 0c             	sub    $0xc,%esp
    1041:	ff 75 0c             	push   0xc(%ebp)
    1044:	e8 37 ff ff ff       	call   f80 <malloc>
    1049:	83 c4 10             	add    $0x10,%esp
    104c:	89 45 f4             	mov    %eax,-0xc(%ebp)
    104f:	83 ec 04             	sub    $0x4,%esp
    1052:	ff 75 0c             	push   0xc(%ebp)
    1055:	ff 75 08             	push   0x8(%ebp)
    1058:	ff 75 f4             	push   -0xc(%ebp)
    105b:	e8 34 05 00 00       	call   1594 <memcpy>
    1060:	83 c4 10             	add    $0x10,%esp
    1063:	83 ec 0c             	sub    $0xc,%esp
    1066:	ff 75 08             	push   0x8(%ebp)
    1069:	e8 ae ff ff ff       	call   101c <free>
    106e:	83 c4 10             	add    $0x10,%esp
    1071:	8b 45 f4             	mov    -0xc(%ebp),%eax
    1074:	8b 5d fc             	mov    -0x4(%ebp),%ebx
    1077:	c9                   	leave
    1078:	c3                   	ret

00001079 <atoi>:
    1079:	55                   	push   %ebp
    107a:	89 e5                	mov    %esp,%ebp
    107c:	83 ec 10             	sub    $0x10,%esp
    107f:	e8 57 fe ff ff       	call   edb <__x86.get_pc_thunk.ax>
    1084:	05 20 25 00 00       	add    $0x2520,%eax
    1089:	c7 45 fc 00 00 00 00 	movl   $0x0,-0x4(%ebp)
    1090:	8b 45 08             	mov    0x8(%ebp),%eax
    1093:	8a 00                	mov    (%eax),%al
    1095:	3c 2d                	cmp    $0x2d,%al
    1097:	75 2a                	jne    10c3 <atoi+0x4a>
    1099:	ff 45 08             	incl   0x8(%ebp)
    109c:	c6 45 fb 01          	movb   $0x1,-0x5(%ebp)
    10a0:	eb 21                	jmp    10c3 <atoi+0x4a>
    10a2:	8b 55 fc             	mov    -0x4(%ebp),%edx
    10a5:	89 d0                	mov    %edx,%eax
    10a7:	c1 e0 02             	shl    $0x2,%eax
    10aa:	01 d0                	add    %edx,%eax
    10ac:	01 c0                	add    %eax,%eax
    10ae:	89 c2                	mov    %eax,%edx
    10b0:	8b 45 08             	mov    0x8(%ebp),%eax
    10b3:	8a 00                	mov    (%eax),%al
    10b5:	0f be c0             	movsbl %al,%eax
    10b8:	83 e8 30             	sub    $0x30,%eax
    10bb:	01 d0                	add    %edx,%eax
    10bd:	89 45 fc             	mov    %eax,-0x4(%ebp)
    10c0:	ff 45 08             	incl   0x8(%ebp)
    10c3:	8b 45 08             	mov    0x8(%ebp),%eax
    10c6:	8a 00                	mov    (%eax),%al
    10c8:	84 c0                	test   %al,%al
    10ca:	74 12                	je     10de <atoi+0x65>
    10cc:	8b 45 08             	mov    0x8(%ebp),%eax
    10cf:	8a 00                	mov    (%eax),%al
    10d1:	3c 20                	cmp    $0x20,%al
    10d3:	74 09                	je     10de <atoi+0x65>
    10d5:	8b 45 08             	mov    0x8(%ebp),%eax
    10d8:	8a 00                	mov    (%eax),%al
    10da:	3c 0a                	cmp    $0xa,%al
    10dc:	75 c4                	jne    10a2 <atoi+0x29>
    10de:	80 7d fb 00          	cmpb   $0x0,-0x5(%ebp)
    10e2:	74 07                	je     10eb <atoi+0x72>
    10e4:	8b 45 fc             	mov    -0x4(%ebp),%eax
    10e7:	f7 d8                	neg    %eax
    10e9:	eb 03                	jmp    10ee <atoi+0x75>
    10eb:	8b 45 fc             	mov    -0x4(%ebp),%eax
    10ee:	c9                   	leave
    10ef:	c3                   	ret

000010f0 <atof>:
    10f0:	55                   	push   %ebp
    10f1:	89 e5                	mov    %esp,%ebp
    10f3:	83 ec 18             	sub    $0x18,%esp
    10f6:	e8 e0 fd ff ff       	call   edb <__x86.get_pc_thunk.ax>
    10fb:	05 a9 24 00 00       	add    $0x24a9,%eax
    1100:	d9 ee                	fldz
    1102:	d9 5d fc             	fstps  -0x4(%ebp)
    1105:	c6 45 fb 00          	movb   $0x0,-0x5(%ebp)
    1109:	d9 e8                	fld1
    110b:	d9 5d f4             	fstps  -0xc(%ebp)
    110e:	c6 45 f3 00          	movb   $0x0,-0xd(%ebp)
    1112:	eb 03                	jmp    1117 <atof+0x27>
    1114:	ff 45 08             	incl   0x8(%ebp)
    1117:	8b 55 08             	mov    0x8(%ebp),%edx
    111a:	8a 12                	mov    (%edx),%dl
    111c:	80 fa 20             	cmp    $0x20,%dl
    111f:	74 f3                	je     1114 <atof+0x24>
    1121:	8b 55 08             	mov    0x8(%ebp),%edx
    1124:	8a 12                	mov    (%edx),%dl
    1126:	80 fa 2d             	cmp    $0x2d,%dl
    1129:	75 72                	jne    119d <atof+0xad>
    112b:	ff 45 08             	incl   0x8(%ebp)
    112e:	c6 45 f3 01          	movb   $0x1,-0xd(%ebp)
    1132:	eb 69                	jmp    119d <atof+0xad>
    1134:	80 7d fb 00          	cmpb   $0x0,-0x5(%ebp)
    1138:	74 2c                	je     1166 <atof+0x76>
    113a:	d9 45 f4             	flds   -0xc(%ebp)
    113d:	d9 80 d0 ef ff ff    	flds   -0x1030(%eax)
    1143:	de f9                	fdivrp %st,%st(1)
    1145:	d9 5d f4             	fstps  -0xc(%ebp)
    1148:	8b 55 08             	mov    0x8(%ebp),%edx
    114b:	8a 12                	mov    (%edx),%dl
    114d:	0f be d2             	movsbl %dl,%edx
    1150:	83 ea 30             	sub    $0x30,%edx
    1153:	89 55 ec             	mov    %edx,-0x14(%ebp)
    1156:	db 45 ec             	fildl  -0x14(%ebp)
    1159:	d8 4d f4             	fmuls  -0xc(%ebp)
    115c:	d9 45 fc             	flds   -0x4(%ebp)
    115f:	de c1                	faddp  %st,%st(1)
    1161:	d9 5d fc             	fstps  -0x4(%ebp)
    1164:	eb 34                	jmp    119a <atof+0xaa>
    1166:	8b 55 08             	mov    0x8(%ebp),%edx
    1169:	8a 12                	mov    (%edx),%dl
    116b:	80 fa 2e             	cmp    $0x2e,%dl
    116e:	75 09                	jne    1179 <atof+0x89>
    1170:	8a 55 fb             	mov    -0x5(%ebp),%dl
    1173:	42                   	inc    %edx
    1174:	88 55 fb             	mov    %dl,-0x5(%ebp)
    1177:	eb 21                	jmp    119a <atof+0xaa>
    1179:	d9 45 fc             	flds   -0x4(%ebp)
    117c:	dd 80 d4 ef ff ff    	fldl   -0x102c(%eax)
    1182:	de c9                	fmulp  %st,%st(1)
    1184:	8b 55 08             	mov    0x8(%ebp),%edx
    1187:	8a 12                	mov    (%edx),%dl
    1189:	0f be d2             	movsbl %dl,%edx
    118c:	83 ea 30             	sub    $0x30,%edx
    118f:	89 55 ec             	mov    %edx,-0x14(%ebp)
    1192:	db 45 ec             	fildl  -0x14(%ebp)
    1195:	de c1                	faddp  %st,%st(1)
    1197:	d9 5d fc             	fstps  -0x4(%ebp)
    119a:	ff 45 08             	incl   0x8(%ebp)
    119d:	8b 55 08             	mov    0x8(%ebp),%edx
    11a0:	8a 12                	mov    (%edx),%dl
    11a2:	84 d2                	test   %dl,%dl
    11a4:	74 18                	je     11be <atof+0xce>
    11a6:	8b 55 08             	mov    0x8(%ebp),%edx
    11a9:	8a 12                	mov    (%edx),%dl
    11ab:	80 fa 20             	cmp    $0x20,%dl
    11ae:	74 0e                	je     11be <atof+0xce>
    11b0:	8b 55 08             	mov    0x8(%ebp),%edx
    11b3:	8a 12                	mov    (%edx),%dl
    11b5:	80 fa 0a             	cmp    $0xa,%dl
    11b8:	0f 85 76 ff ff ff    	jne    1134 <atof+0x44>
    11be:	80 7d f3 00          	cmpb   $0x0,-0xd(%ebp)
    11c2:	74 07                	je     11cb <atof+0xdb>
    11c4:	d9 45 fc             	flds   -0x4(%ebp)
    11c7:	d9 e0                	fchs
    11c9:	eb 03                	jmp    11ce <atof+0xde>
    11cb:	d9 45 fc             	flds   -0x4(%ebp)
    11ce:	c9                   	leave
    11cf:	c3                   	ret

000011d0 <itoa>:
    11d0:	55                   	push   %ebp
    11d1:	89 e5                	mov    %esp,%ebp
    11d3:	83 ec 10             	sub    $0x10,%esp
    11d6:	e8 00 fd ff ff       	call   edb <__x86.get_pc_thunk.ax>
    11db:	05 c9 23 00 00       	add    $0x23c9,%eax
    11e0:	8b 45 08             	mov    0x8(%ebp),%eax
    11e3:	85 c0                	test   %eax,%eax
    11e5:	79 02                	jns    11e9 <itoa+0x19>
    11e7:	f7 d8                	neg    %eax
    11e9:	89 45 fc             	mov    %eax,-0x4(%ebp)
    11ec:	83 7d fc 00          	cmpl   $0x0,-0x4(%ebp)
    11f0:	75 15                	jne    1207 <itoa+0x37>
    11f2:	8b 45 0c             	mov    0xc(%ebp),%eax
    11f5:	c6 00 30             	movb   $0x30,(%eax)
    11f8:	8b 45 0c             	mov    0xc(%ebp),%eax
    11fb:	40                   	inc    %eax
    11fc:	c6 00 00             	movb   $0x0,(%eax)
    11ff:	8b 45 0c             	mov    0xc(%ebp),%eax
    1202:	e9 d7 00 00 00       	jmp    12de <itoa+0x10e>
    1207:	8b 45 08             	mov    0x8(%ebp),%eax
    120a:	c1 e8 1f             	shr    $0x1f,%eax
    120d:	89 45 f8             	mov    %eax,-0x8(%ebp)
    1210:	8b 45 fc             	mov    -0x4(%ebp),%eax
    1213:	89 45 f4             	mov    %eax,-0xc(%ebp)
    1216:	eb 0d                	jmp    1225 <itoa+0x55>
    1218:	8b 45 f4             	mov    -0xc(%ebp),%eax
    121b:	99                   	cltd
    121c:	f7 7d 10             	idivl  0x10(%ebp)
    121f:	89 45 f4             	mov    %eax,-0xc(%ebp)
    1222:	ff 45 f8             	incl   -0x8(%ebp)
    1225:	83 7d f4 00          	cmpl   $0x0,-0xc(%ebp)
    1229:	75 ed                	jne    1218 <itoa+0x48>
    122b:	8b 55 f8             	mov    -0x8(%ebp),%edx
    122e:	8b 45 0c             	mov    0xc(%ebp),%eax
    1231:	01 d0                	add    %edx,%eax
    1233:	c6 00 00             	movb   $0x0,(%eax)
    1236:	83 7d 10 0a          	cmpl   $0xa,0x10(%ebp)
    123a:	0f 85 89 00 00 00    	jne    12c9 <itoa+0xf9>
    1240:	eb 3a                	jmp    127c <itoa+0xac>
    1242:	8b 45 fc             	mov    -0x4(%ebp),%eax
    1245:	b9 0a 00 00 00       	mov    $0xa,%ecx
    124a:	99                   	cltd
    124b:	f7 f9                	idiv   %ecx
    124d:	89 d0                	mov    %edx,%eax
    124f:	8d 48 30             	lea    0x30(%eax),%ecx
    1252:	ff 4d f8             	decl   -0x8(%ebp)
    1255:	8b 55 f8             	mov    -0x8(%ebp),%edx
    1258:	8b 45 0c             	mov    0xc(%ebp),%eax
    125b:	01 d0                	add    %edx,%eax
    125d:	88 ca                	mov    %cl,%dl
    125f:	88 10                	mov    %dl,(%eax)
    1261:	8b 4d fc             	mov    -0x4(%ebp),%ecx
    1264:	ba 67 66 66 66       	mov    $0x66666667,%edx
    1269:	89 c8                	mov    %ecx,%eax
    126b:	f7 ea                	imul   %edx
    126d:	89 d0                	mov    %edx,%eax
    126f:	c1 f8 02             	sar    $0x2,%eax
    1272:	c1 f9 1f             	sar    $0x1f,%ecx
    1275:	89 ca                	mov    %ecx,%edx
    1277:	29 d0                	sub    %edx,%eax
    1279:	89 45 fc             	mov    %eax,-0x4(%ebp)
    127c:	83 7d fc 00          	cmpl   $0x0,-0x4(%ebp)
    1280:	75 c0                	jne    1242 <itoa+0x72>
    1282:	eb 4b                	jmp    12cf <itoa+0xff>
    1284:	8b 45 fc             	mov    -0x4(%ebp),%eax
    1287:	83 e0 0f             	and    $0xf,%eax
    128a:	89 45 f0             	mov    %eax,-0x10(%ebp)
    128d:	83 7d f0 09          	cmpl   $0x9,-0x10(%ebp)
    1291:	7e 1a                	jle    12ad <itoa+0xdd>
    1293:	8b 45 fc             	mov    -0x4(%ebp),%eax
    1296:	83 e0 0f             	and    $0xf,%eax
    1299:	8d 48 37             	lea    0x37(%eax),%ecx
    129c:	ff 4d f8             	decl   -0x8(%ebp)
    129f:	8b 55 f8             	mov    -0x8(%ebp),%edx
    12a2:	8b 45 0c             	mov    0xc(%ebp),%eax
    12a5:	01 d0                	add    %edx,%eax
    12a7:	88 ca                	mov    %cl,%dl
    12a9:	88 10                	mov    %dl,(%eax)
    12ab:	eb 18                	jmp    12c5 <itoa+0xf5>
    12ad:	8b 45 fc             	mov    -0x4(%ebp),%eax
    12b0:	83 e0 0f             	and    $0xf,%eax
    12b3:	8d 48 30             	lea    0x30(%eax),%ecx
    12b6:	ff 4d f8             	decl   -0x8(%ebp)
    12b9:	8b 55 f8             	mov    -0x8(%ebp),%edx
    12bc:	8b 45 0c             	mov    0xc(%ebp),%eax
    12bf:	01 d0                	add    %edx,%eax
    12c1:	88 ca                	mov    %cl,%dl
    12c3:	88 10                	mov    %dl,(%eax)
    12c5:	c1 7d fc 04          	sarl   $0x4,-0x4(%ebp)
    12c9:	83 7d fc 00          	cmpl   $0x0,-0x4(%ebp)
    12cd:	75 b5                	jne    1284 <itoa+0xb4>
    12cf:	83 7d 08 00          	cmpl   $0x0,0x8(%ebp)
    12d3:	79 06                	jns    12db <itoa+0x10b>
    12d5:	8b 45 0c             	mov    0xc(%ebp),%eax
    12d8:	c6 00 2d             	movb   $0x2d,(%eax)
    12db:	8b 45 0c             	mov    0xc(%ebp),%eax
    12de:	c9                   	leave
    12df:	c3                   	ret

000012e0 <exit>:
    12e0:	55                   	push   %ebp
    12e1:	89 e5                	mov    %esp,%ebp
    12e3:	53                   	push   %ebx
    12e4:	e8 f2 fb ff ff       	call   edb <__x86.get_pc_thunk.ax>
    12e9:	05 bb 22 00 00       	add    $0x22bb,%eax
    12ee:	8b 45 08             	mov    0x8(%ebp),%eax
    12f1:	89 c3                	mov    %eax,%ebx
    12f3:	b8 1f 00 00 00       	mov    $0x1f,%eax
    12f8:	cd 80                	int    $0x80
    12fa:	90                   	nop
    12fb:	8b 5d fc             	mov    -0x4(%ebp),%ebx
    12fe:	c9                   	leave
    12ff:	c3                   	ret

00001300 <srand>:
    1300:	55                   	push   %ebp
    1301:	89 e5                	mov    %esp,%ebp
    1303:	53                   	push   %ebx
    1304:	e8 d2 fb ff ff       	call   edb <__x86.get_pc_thunk.ax>
    1309:	05 9b 22 00 00       	add    $0x229b,%eax
    130e:	8b 5d 08             	mov    0x8(%ebp),%ebx
    1311:	b8 1d 00 00 00       	mov    $0x1d,%eax
    1316:	cd 80                	int    $0x80
    1318:	90                   	nop
    1319:	8b 5d fc             	mov    -0x4(%ebp),%ebx
    131c:	c9                   	leave
    131d:	c3                   	ret

0000131e <rand>:
    131e:	55                   	push   %ebp
    131f:	89 e5                	mov    %esp,%ebp
    1321:	e8 b5 fb ff ff       	call   edb <__x86.get_pc_thunk.ax>
    1326:	05 7e 22 00 00       	add    $0x227e,%eax
    132b:	b8 1e 00 00 00       	mov    $0x1e,%eax
    1330:	cd 80                	int    $0x80
    1332:	5d                   	pop    %ebp
    1333:	c3                   	ret

00001334 <strtol>:
    1334:	55                   	push   %ebp
    1335:	89 e5                	mov    %esp,%ebp
    1337:	57                   	push   %edi
    1338:	56                   	push   %esi
    1339:	53                   	push   %ebx
    133a:	83 ec 2c             	sub    $0x2c,%esp
    133d:	e8 9d fb ff ff       	call   edf <__x86.get_pc_thunk.bx>
    1342:	81 c3 62 22 00 00    	add    $0x2262,%ebx
    1348:	8b 7d 08             	mov    0x8(%ebp),%edi
    134b:	c7 45 dc 00 00 00 00 	movl   $0x0,-0x24(%ebp)
    1352:	89 f8                	mov    %edi,%eax
    1354:	8d 78 01             	lea    0x1(%eax),%edi
    1357:	8a 00                	mov    (%eax),%al
    1359:	0f be f0             	movsbl %al,%esi
    135c:	83 fe 20             	cmp    $0x20,%esi
    135f:	74 f1                	je     1352 <strtol+0x1e>
    1361:	83 fe 2d             	cmp    $0x2d,%esi
    1364:	75 13                	jne    1379 <strtol+0x45>
    1366:	c7 45 dc 01 00 00 00 	movl   $0x1,-0x24(%ebp)
    136d:	89 f8                	mov    %edi,%eax
    136f:	8d 78 01             	lea    0x1(%eax),%edi
    1372:	8a 00                	mov    (%eax),%al
    1374:	0f be f0             	movsbl %al,%esi
    1377:	eb 0f                	jmp    1388 <strtol+0x54>
    1379:	83 fe 2b             	cmp    $0x2b,%esi
    137c:	75 0a                	jne    1388 <strtol+0x54>
    137e:	89 f8                	mov    %edi,%eax
    1380:	8d 78 01             	lea    0x1(%eax),%edi
    1383:	8a 00                	mov    (%eax),%al
    1385:	0f be f0             	movsbl %al,%esi
    1388:	83 7d 10 00          	cmpl   $0x0,0x10(%ebp)
    138c:	74 06                	je     1394 <strtol+0x60>
    138e:	83 7d 10 10          	cmpl   $0x10,0x10(%ebp)
    1392:	75 23                	jne    13b7 <strtol+0x83>
    1394:	83 fe 30             	cmp    $0x30,%esi
    1397:	75 1e                	jne    13b7 <strtol+0x83>
    1399:	8a 07                	mov    (%edi),%al
    139b:	3c 78                	cmp    $0x78,%al
    139d:	74 06                	je     13a5 <strtol+0x71>
    139f:	8a 07                	mov    (%edi),%al
    13a1:	3c 58                	cmp    $0x58,%al
    13a3:	75 12                	jne    13b7 <strtol+0x83>
    13a5:	8d 47 01             	lea    0x1(%edi),%eax
    13a8:	8a 00                	mov    (%eax),%al
    13aa:	0f be f0             	movsbl %al,%esi
    13ad:	83 c7 02             	add    $0x2,%edi
    13b0:	c7 45 10 10 00 00 00 	movl   $0x10,0x10(%ebp)
    13b7:	83 7d 10 00          	cmpl   $0x0,0x10(%ebp)
    13bb:	75 14                	jne    13d1 <strtol+0x9d>
    13bd:	83 fe 30             	cmp    $0x30,%esi
    13c0:	75 07                	jne    13c9 <strtol+0x95>
    13c2:	b8 08 00 00 00       	mov    $0x8,%eax
    13c7:	eb 05                	jmp    13ce <strtol+0x9a>
    13c9:	b8 0a 00 00 00       	mov    $0xa,%eax
    13ce:	89 45 10             	mov    %eax,0x10(%ebp)
    13d1:	83 7d dc 00          	cmpl   $0x0,-0x24(%ebp)
    13d5:	74 07                	je     13de <strtol+0xaa>
    13d7:	b8 00 00 00 80       	mov    $0x80000000,%eax
    13dc:	eb 05                	jmp    13e3 <strtol+0xaf>
    13de:	b8 ff ff ff 7f       	mov    $0x7fffffff,%eax
    13e3:	8b 4d 10             	mov    0x10(%ebp),%ecx
    13e6:	89 45 d8             	mov    %eax,-0x28(%ebp)
    13e9:	8b 45 d8             	mov    -0x28(%ebp),%eax
    13ec:	ba 00 00 00 00       	mov    $0x0,%edx
    13f1:	f7 f1                	div    %ecx
    13f3:	89 d0                	mov    %edx,%eax
    13f5:	89 45 d4             	mov    %eax,-0x2c(%ebp)
    13f8:	8b 4d 10             	mov    0x10(%ebp),%ecx
    13fb:	8b 45 d8             	mov    -0x28(%ebp),%eax
    13fe:	ba 00 00 00 00       	mov    $0x0,%edx
    1403:	f7 f1                	div    %ecx
    1405:	89 45 d8             	mov    %eax,-0x28(%ebp)
    1408:	c7 45 e4 00 00 00 00 	movl   $0x0,-0x1c(%ebp)
    140f:	c7 45 e0 00 00 00 00 	movl   $0x0,-0x20(%ebp)
    1416:	83 ec 0c             	sub    $0xc,%esp
    1419:	56                   	push   %esi
    141a:	e8 68 0f 00 00       	call   2387 <isdigit>
    141f:	83 c4 10             	add    $0x10,%esp
    1422:	85 c0                	test   %eax,%eax
    1424:	74 05                	je     142b <strtol+0xf7>
    1426:	83 ee 30             	sub    $0x30,%esi
    1429:	eb 2e                	jmp    1459 <strtol+0x125>
    142b:	83 ec 0c             	sub    $0xc,%esp
    142e:	56                   	push   %esi
    142f:	e8 7a 0f 00 00       	call   23ae <isalpha>
    1434:	83 c4 10             	add    $0x10,%esp
    1437:	85 c0                	test   %eax,%eax
    1439:	74 6d                	je     14a8 <strtol+0x174>
    143b:	83 ec 0c             	sub    $0xc,%esp
    143e:	56                   	push   %esi
    143f:	e8 9d 0f 00 00       	call   23e1 <isupper>
    1444:	83 c4 10             	add    $0x10,%esp
    1447:	85 c0                	test   %eax,%eax
    1449:	74 07                	je     1452 <strtol+0x11e>
    144b:	b8 37 00 00 00       	mov    $0x37,%eax
    1450:	eb 05                	jmp    1457 <strtol+0x123>
    1452:	b8 57 00 00 00       	mov    $0x57,%eax
    1457:	29 c6                	sub    %eax,%esi
    1459:	3b 75 10             	cmp    0x10(%ebp),%esi
    145c:	7d 4d                	jge    14ab <strtol+0x177>
    145e:	83 7d e0 00          	cmpl   $0x0,-0x20(%ebp)
    1462:	78 15                	js     1479 <strtol+0x145>
    1464:	8b 45 d8             	mov    -0x28(%ebp),%eax
    1467:	8b 55 e4             	mov    -0x1c(%ebp),%edx
    146a:	39 d0                	cmp    %edx,%eax
    146c:	72 0b                	jb     1479 <strtol+0x145>
    146e:	39 c2                	cmp    %eax,%edx
    1470:	75 10                	jne    1482 <strtol+0x14e>
    1472:	8b 45 d4             	mov    -0x2c(%ebp),%eax
    1475:	39 c6                	cmp    %eax,%esi
    1477:	7e 09                	jle    1482 <strtol+0x14e>
    1479:	c7 45 e0 ff ff ff ff 	movl   $0xffffffff,-0x20(%ebp)
    1480:	eb 17                	jmp    1499 <strtol+0x165>
    1482:	c7 45 e0 01 00 00 00 	movl   $0x1,-0x20(%ebp)
    1489:	8b 45 10             	mov    0x10(%ebp),%eax
    148c:	8b 4d e4             	mov    -0x1c(%ebp),%ecx
    148f:	0f af c8             	imul   %eax,%ecx
    1492:	89 f0                	mov    %esi,%eax
    1494:	01 c1                	add    %eax,%ecx
    1496:	89 4d e4             	mov    %ecx,-0x1c(%ebp)
    1499:	89 f8                	mov    %edi,%eax
    149b:	8d 78 01             	lea    0x1(%eax),%edi
    149e:	8a 00                	mov    (%eax),%al
    14a0:	0f be f0             	movsbl %al,%esi
    14a3:	e9 6e ff ff ff       	jmp    1416 <strtol+0xe2>
    14a8:	90                   	nop
    14a9:	eb 01                	jmp    14ac <strtol+0x178>
    14ab:	90                   	nop
    14ac:	83 7d e0 00          	cmpl   $0x0,-0x20(%ebp)
    14b0:	79 17                	jns    14c9 <strtol+0x195>
    14b2:	83 7d dc 00          	cmpl   $0x0,-0x24(%ebp)
    14b6:	74 07                	je     14bf <strtol+0x18b>
    14b8:	b8 00 00 00 80       	mov    $0x80000000,%eax
    14bd:	eb 05                	jmp    14c4 <strtol+0x190>
    14bf:	b8 ff ff ff 7f       	mov    $0x7fffffff,%eax
    14c4:	89 45 e4             	mov    %eax,-0x1c(%ebp)
    14c7:	eb 09                	jmp    14d2 <strtol+0x19e>
    14c9:	83 7d dc 00          	cmpl   $0x0,-0x24(%ebp)
    14cd:	74 03                	je     14d2 <strtol+0x19e>
    14cf:	f7 5d e4             	negl   -0x1c(%ebp)
    14d2:	83 7d 0c 00          	cmpl   $0x0,0xc(%ebp)
    14d6:	74 13                	je     14eb <strtol+0x1b7>
    14d8:	83 7d e0 00          	cmpl   $0x0,-0x20(%ebp)
    14dc:	74 05                	je     14e3 <strtol+0x1af>
    14de:	8d 47 ff             	lea    -0x1(%edi),%eax
    14e1:	eb 03                	jmp    14e6 <strtol+0x1b2>
    14e3:	8b 45 08             	mov    0x8(%ebp),%eax
    14e6:	8b 55 0c             	mov    0xc(%ebp),%edx
    14e9:	89 02                	mov    %eax,(%edx)
    14eb:	8b 45 e4             	mov    -0x1c(%ebp),%eax
    14ee:	8d 65 f4             	lea    -0xc(%ebp),%esp
    14f1:	5b                   	pop    %ebx
    14f2:	5e                   	pop    %esi
    14f3:	5f                   	pop    %edi
    14f4:	5d                   	pop    %ebp
    14f5:	c3                   	ret

000014f6 <memchr>:
    14f6:	55                   	push   %ebp
    14f7:	89 e5                	mov    %esp,%ebp
    14f9:	83 ec 10             	sub    $0x10,%esp
    14fc:	e8 da f9 ff ff       	call   edb <__x86.get_pc_thunk.ax>
    1501:	05 a3 20 00 00       	add    $0x20a3,%eax
    1506:	8b 45 0c             	mov    0xc(%ebp),%eax
    1509:	88 45 fb             	mov    %al,-0x5(%ebp)
    150c:	8b 45 08             	mov    0x8(%ebp),%eax
    150f:	89 45 fc             	mov    %eax,-0x4(%ebp)
    1512:	eb 15                	jmp    1529 <memchr+0x33>
    1514:	8b 45 fc             	mov    -0x4(%ebp),%eax
    1517:	8a 00                	mov    (%eax),%al
    1519:	38 45 fb             	cmp    %al,-0x5(%ebp)
    151c:	75 05                	jne    1523 <memchr+0x2d>
    151e:	8b 45 fc             	mov    -0x4(%ebp),%eax
    1521:	eb 11                	jmp    1534 <memchr+0x3e>
    1523:	ff 45 fc             	incl   -0x4(%ebp)
    1526:	ff 4d 10             	decl   0x10(%ebp)
    1529:	83 7d 10 00          	cmpl   $0x0,0x10(%ebp)
    152d:	75 e5                	jne    1514 <memchr+0x1e>
    152f:	b8 00 00 00 00       	mov    $0x0,%eax
    1534:	c9                   	leave
    1535:	c3                   	ret

00001536 <memcmp>:
    1536:	55                   	push   %ebp
    1537:	89 e5                	mov    %esp,%ebp
    1539:	83 ec 10             	sub    $0x10,%esp
    153c:	e8 9a f9 ff ff       	call   edb <__x86.get_pc_thunk.ax>
    1541:	05 63 20 00 00       	add    $0x2063,%eax
    1546:	8b 45 08             	mov    0x8(%ebp),%eax
    1549:	89 45 fc             	mov    %eax,-0x4(%ebp)
    154c:	8b 45 0c             	mov    0xc(%ebp),%eax
    154f:	89 45 f8             	mov    %eax,-0x8(%ebp)
    1552:	eb 33                	jmp    1587 <memcmp+0x51>
    1554:	8b 45 fc             	mov    -0x4(%ebp),%eax
    1557:	8a 10                	mov    (%eax),%dl
    1559:	8b 45 f8             	mov    -0x8(%ebp),%eax
    155c:	8a 00                	mov    (%eax),%al
    155e:	38 c2                	cmp    %al,%dl
    1560:	74 1c                	je     157e <memcmp+0x48>
    1562:	8b 45 fc             	mov    -0x4(%ebp),%eax
    1565:	8a 10                	mov    (%eax),%dl
    1567:	8b 45 f8             	mov    -0x8(%ebp),%eax
    156a:	8a 00                	mov    (%eax),%al
    156c:	38 c2                	cmp    %al,%dl
    156e:	73 07                	jae    1577 <memcmp+0x41>
    1570:	b8 ff ff ff ff       	mov    $0xffffffff,%eax
    1575:	eb 1b                	jmp    1592 <memcmp+0x5c>
    1577:	b8 01 00 00 00       	mov    $0x1,%eax
    157c:	eb 14                	jmp    1592 <memcmp+0x5c>
    157e:	ff 45 fc             	incl   -0x4(%ebp)
    1581:	ff 45 f8             	incl   -0x8(%ebp)
    1584:	ff 4d 10             	decl   0x10(%ebp)
    1587:	83 7d 10 00          	cmpl   $0x0,0x10(%ebp)
    158b:	75 c7                	jne    1554 <memcmp+0x1e>
    158d:	b8 00 00 00 00       	mov    $0x0,%eax
    1592:	c9                   	leave
    1593:	c3                   	ret

00001594 <memcpy>:
    1594:	55                   	push   %ebp
    1595:	89 e5                	mov    %esp,%ebp
    1597:	83 ec 10             	sub    $0x10,%esp
    159a:	e8 3c f9 ff ff       	call   edb <__x86.get_pc_thunk.ax>
    159f:	05 05 20 00 00       	add    $0x2005,%eax
    15a4:	8b 45 08             	mov    0x8(%ebp),%eax
    15a7:	89 45 fc             	mov    %eax,-0x4(%ebp)
    15aa:	8b 45 0c             	mov    0xc(%ebp),%eax
    15ad:	89 45 f8             	mov    %eax,-0x8(%ebp)
    15b0:	eb 13                	jmp    15c5 <memcpy+0x31>
    15b2:	8b 45 f8             	mov    -0x8(%ebp),%eax
    15b5:	8a 10                	mov    (%eax),%dl
    15b7:	8b 45 fc             	mov    -0x4(%ebp),%eax
    15ba:	88 10                	mov    %dl,(%eax)
    15bc:	ff 45 fc             	incl   -0x4(%ebp)
    15bf:	ff 45 f8             	incl   -0x8(%ebp)
    15c2:	ff 4d 10             	decl   0x10(%ebp)
    15c5:	83 7d 10 00          	cmpl   $0x0,0x10(%ebp)
    15c9:	75 e7                	jne    15b2 <memcpy+0x1e>
    15cb:	8b 45 08             	mov    0x8(%ebp),%eax
    15ce:	c9                   	leave
    15cf:	c3                   	ret

000015d0 <memmove>:
    15d0:	55                   	push   %ebp
    15d1:	89 e5                	mov    %esp,%ebp
    15d3:	83 ec 10             	sub    $0x10,%esp
    15d6:	e8 00 f9 ff ff       	call   edb <__x86.get_pc_thunk.ax>
    15db:	05 c9 1f 00 00       	add    $0x1fc9,%eax
    15e0:	8b 45 08             	mov    0x8(%ebp),%eax
    15e3:	89 45 fc             	mov    %eax,-0x4(%ebp)
    15e6:	8b 45 0c             	mov    0xc(%ebp),%eax
    15e9:	89 45 f8             	mov    %eax,-0x8(%ebp)
    15ec:	8b 45 f8             	mov    -0x8(%ebp),%eax
    15ef:	3b 45 fc             	cmp    -0x4(%ebp),%eax
    15f2:	73 4f                	jae    1643 <memmove+0x73>
    15f4:	8b 55 f8             	mov    -0x8(%ebp),%edx
    15f7:	8b 45 10             	mov    0x10(%ebp),%eax
    15fa:	01 d0                	add    %edx,%eax
    15fc:	39 45 fc             	cmp    %eax,-0x4(%ebp)
    15ff:	73 42                	jae    1643 <memmove+0x73>
    1601:	8b 45 10             	mov    0x10(%ebp),%eax
    1604:	01 45 fc             	add    %eax,-0x4(%ebp)
    1607:	8b 45 10             	mov    0x10(%ebp),%eax
    160a:	01 45 f8             	add    %eax,-0x8(%ebp)
    160d:	eb 13                	jmp    1622 <memmove+0x52>
    160f:	ff 4d f8             	decl   -0x8(%ebp)
    1612:	ff 4d fc             	decl   -0x4(%ebp)
    1615:	8b 45 f8             	mov    -0x8(%ebp),%eax
    1618:	8a 10                	mov    (%eax),%dl
    161a:	8b 45 fc             	mov    -0x4(%ebp),%eax
    161d:	88 10                	mov    %dl,(%eax)
    161f:	ff 4d 10             	decl   0x10(%ebp)
    1622:	83 7d 10 00          	cmpl   $0x0,0x10(%ebp)
    1626:	75 e7                	jne    160f <memmove+0x3f>
    1628:	eb 1f                	jmp    1649 <memmove+0x79>
    162a:	8b 55 f8             	mov    -0x8(%ebp),%edx
    162d:	8d 42 01             	lea    0x1(%edx),%eax
    1630:	89 45 f8             	mov    %eax,-0x8(%ebp)
    1633:	8b 45 fc             	mov    -0x4(%ebp),%eax
    1636:	8d 48 01             	lea    0x1(%eax),%ecx
    1639:	89 4d fc             	mov    %ecx,-0x4(%ebp)
    163c:	8a 12                	mov    (%edx),%dl
    163e:	88 10                	mov    %dl,(%eax)
    1640:	ff 4d 10             	decl   0x10(%ebp)
    1643:	83 7d 10 00          	cmpl   $0x0,0x10(%ebp)
    1647:	75 e1                	jne    162a <memmove+0x5a>
    1649:	8b 45 08             	mov    0x8(%ebp),%eax
    164c:	c9                   	leave
    164d:	c3                   	ret

0000164e <memset>:
    164e:	55                   	push   %ebp
    164f:	89 e5                	mov    %esp,%ebp
    1651:	83 ec 10             	sub    $0x10,%esp
    1654:	e8 82 f8 ff ff       	call   edb <__x86.get_pc_thunk.ax>
    1659:	05 4b 1f 00 00       	add    $0x1f4b,%eax
    165e:	8b 45 0c             	mov    0xc(%ebp),%eax
    1661:	88 45 fb             	mov    %al,-0x5(%ebp)
    1664:	8b 45 08             	mov    0x8(%ebp),%eax
    1667:	89 45 fc             	mov    %eax,-0x4(%ebp)
    166a:	eb 0e                	jmp    167a <memset+0x2c>
    166c:	8b 45 fc             	mov    -0x4(%ebp),%eax
    166f:	8a 55 fb             	mov    -0x5(%ebp),%dl
    1672:	88 10                	mov    %dl,(%eax)
    1674:	ff 45 fc             	incl   -0x4(%ebp)
    1677:	ff 4d 10             	decl   0x10(%ebp)
    167a:	83 7d 10 00          	cmpl   $0x0,0x10(%ebp)
    167e:	75 ec                	jne    166c <memset+0x1e>
    1680:	8b 45 08             	mov    0x8(%ebp),%eax
    1683:	c9                   	leave
    1684:	c3                   	ret

00001685 <strcat>:
    1685:	55                   	push   %ebp
    1686:	89 e5                	mov    %esp,%ebp
    1688:	83 ec 10             	sub    $0x10,%esp
    168b:	e8 4b f8 ff ff       	call   edb <__x86.get_pc_thunk.ax>
    1690:	05 14 1f 00 00       	add    $0x1f14,%eax
    1695:	8b 45 08             	mov    0x8(%ebp),%eax
    1698:	89 45 fc             	mov    %eax,-0x4(%ebp)
    169b:	eb 03                	jmp    16a0 <strcat+0x1b>
    169d:	ff 45 fc             	incl   -0x4(%ebp)
    16a0:	8b 45 fc             	mov    -0x4(%ebp),%eax
    16a3:	8a 00                	mov    (%eax),%al
    16a5:	84 c0                	test   %al,%al
    16a7:	75 f4                	jne    169d <strcat+0x18>
    16a9:	eb 06                	jmp    16b1 <strcat+0x2c>
    16ab:	ff 45 fc             	incl   -0x4(%ebp)
    16ae:	ff 45 0c             	incl   0xc(%ebp)
    16b1:	8b 45 0c             	mov    0xc(%ebp),%eax
    16b4:	8a 10                	mov    (%eax),%dl
    16b6:	8b 45 fc             	mov    -0x4(%ebp),%eax
    16b9:	88 10                	mov    %dl,(%eax)
    16bb:	8b 45 fc             	mov    -0x4(%ebp),%eax
    16be:	8a 00                	mov    (%eax),%al
    16c0:	84 c0                	test   %al,%al
    16c2:	75 e7                	jne    16ab <strcat+0x26>
    16c4:	8b 45 08             	mov    0x8(%ebp),%eax
    16c7:	c9                   	leave
    16c8:	c3                   	ret

000016c9 <strcmp>:
    16c9:	55                   	push   %ebp
    16ca:	89 e5                	mov    %esp,%ebp
    16cc:	e8 0a f8 ff ff       	call   edb <__x86.get_pc_thunk.ax>
    16d1:	05 d3 1e 00 00       	add    $0x1ed3,%eax
    16d6:	eb 16                	jmp    16ee <strcmp+0x25>
    16d8:	8b 45 08             	mov    0x8(%ebp),%eax
    16db:	8a 00                	mov    (%eax),%al
    16dd:	84 c0                	test   %al,%al
    16df:	75 07                	jne    16e8 <strcmp+0x1f>
    16e1:	b8 00 00 00 00       	mov    $0x0,%eax
    16e6:	eb 2e                	jmp    1716 <strcmp+0x4d>
    16e8:	ff 45 08             	incl   0x8(%ebp)
    16eb:	ff 45 0c             	incl   0xc(%ebp)
    16ee:	8b 45 08             	mov    0x8(%ebp),%eax
    16f1:	8a 10                	mov    (%eax),%dl
    16f3:	8b 45 0c             	mov    0xc(%ebp),%eax
    16f6:	8a 00                	mov    (%eax),%al
    16f8:	38 c2                	cmp    %al,%dl
    16fa:	74 dc                	je     16d8 <strcmp+0xf>
    16fc:	8b 45 08             	mov    0x8(%ebp),%eax
    16ff:	8a 10                	mov    (%eax),%dl
    1701:	8b 45 0c             	mov    0xc(%ebp),%eax
    1704:	8a 00                	mov    (%eax),%al
    1706:	38 c2                	cmp    %al,%dl
    1708:	73 07                	jae    1711 <strcmp+0x48>
    170a:	b8 ff ff ff ff       	mov    $0xffffffff,%eax
    170f:	eb 05                	jmp    1716 <strcmp+0x4d>
    1711:	b8 01 00 00 00       	mov    $0x1,%eax
    1716:	5d                   	pop    %ebp
    1717:	c3                   	ret

00001718 <strcoll>:
    1718:	55                   	push   %ebp
    1719:	89 e5                	mov    %esp,%ebp
    171b:	53                   	push   %ebx
    171c:	83 ec 04             	sub    $0x4,%esp
    171f:	e8 b7 f7 ff ff       	call   edb <__x86.get_pc_thunk.ax>
    1724:	05 80 1e 00 00       	add    $0x1e80,%eax
    1729:	83 ec 08             	sub    $0x8,%esp
    172c:	ff 75 0c             	push   0xc(%ebp)
    172f:	ff 75 08             	push   0x8(%ebp)
    1732:	89 c3                	mov    %eax,%ebx
    1734:	e8 90 ff ff ff       	call   16c9 <strcmp>
    1739:	83 c4 10             	add    $0x10,%esp
    173c:	8b 5d fc             	mov    -0x4(%ebp),%ebx
    173f:	c9                   	leave
    1740:	c3                   	ret

00001741 <strcpy>:
    1741:	55                   	push   %ebp
    1742:	89 e5                	mov    %esp,%ebp
    1744:	83 ec 10             	sub    $0x10,%esp
    1747:	e8 8f f7 ff ff       	call   edb <__x86.get_pc_thunk.ax>
    174c:	05 58 1e 00 00       	add    $0x1e58,%eax
    1751:	8b 45 08             	mov    0x8(%ebp),%eax
    1754:	89 45 fc             	mov    %eax,-0x4(%ebp)
    1757:	8b 45 08             	mov    0x8(%ebp),%eax
    175a:	89 45 fc             	mov    %eax,-0x4(%ebp)
    175d:	90                   	nop
    175e:	8b 55 0c             	mov    0xc(%ebp),%edx
    1761:	8d 42 01             	lea    0x1(%edx),%eax
    1764:	89 45 0c             	mov    %eax,0xc(%ebp)
    1767:	8b 45 fc             	mov    -0x4(%ebp),%eax
    176a:	8d 48 01             	lea    0x1(%eax),%ecx
    176d:	89 4d fc             	mov    %ecx,-0x4(%ebp)
    1770:	8a 12                	mov    (%edx),%dl
    1772:	88 10                	mov    %dl,(%eax)
    1774:	8a 00                	mov    (%eax),%al
    1776:	84 c0                	test   %al,%al
    1778:	75 e4                	jne    175e <strcpy+0x1d>
    177a:	8b 45 08             	mov    0x8(%ebp),%eax
    177d:	c9                   	leave
    177e:	c3                   	ret

0000177f <strncmp>:
    177f:	55                   	push   %ebp
    1780:	89 e5                	mov    %esp,%ebp
    1782:	53                   	push   %ebx
    1783:	e8 53 f7 ff ff       	call   edb <__x86.get_pc_thunk.ax>
    1788:	05 1c 1e 00 00       	add    $0x1e1c,%eax
    178d:	8b 4d 10             	mov    0x10(%ebp),%ecx
    1790:	eb 33                	jmp    17c5 <strncmp+0x46>
    1792:	8b 45 08             	mov    0x8(%ebp),%eax
    1795:	8d 50 01             	lea    0x1(%eax),%edx
    1798:	89 55 08             	mov    %edx,0x8(%ebp)
    179b:	8a 00                	mov    (%eax),%al
    179d:	88 c3                	mov    %al,%bl
    179f:	8b 45 0c             	mov    0xc(%ebp),%eax
    17a2:	8d 50 01             	lea    0x1(%eax),%edx
    17a5:	89 55 0c             	mov    %edx,0xc(%ebp)
    17a8:	8a 00                	mov    (%eax),%al
    17aa:	88 c2                	mov    %al,%dl
    17ac:	38 d3                	cmp    %dl,%bl
    17ae:	74 0a                	je     17ba <strncmp+0x3b>
    17b0:	0f b6 c3             	movzbl %bl,%eax
    17b3:	0f b6 d2             	movzbl %dl,%edx
    17b6:	29 d0                	sub    %edx,%eax
    17b8:	eb 19                	jmp    17d3 <strncmp+0x54>
    17ba:	84 db                	test   %bl,%bl
    17bc:	75 07                	jne    17c5 <strncmp+0x46>
    17be:	b8 00 00 00 00       	mov    $0x0,%eax
    17c3:	eb 0e                	jmp    17d3 <strncmp+0x54>
    17c5:	89 c8                	mov    %ecx,%eax
    17c7:	8d 48 ff             	lea    -0x1(%eax),%ecx
    17ca:	85 c0                	test   %eax,%eax
    17cc:	75 c4                	jne    1792 <strncmp+0x13>
    17ce:	b8 00 00 00 00       	mov    $0x0,%eax
    17d3:	8b 5d fc             	mov    -0x4(%ebp),%ebx
    17d6:	c9                   	leave
    17d7:	c3                   	ret

000017d8 <strlen>:
    17d8:	55                   	push   %ebp
    17d9:	89 e5                	mov    %esp,%ebp
    17db:	83 ec 10             	sub    $0x10,%esp
    17de:	e8 f8 f6 ff ff       	call   edb <__x86.get_pc_thunk.ax>
    17e3:	05 c1 1d 00 00       	add    $0x1dc1,%eax
    17e8:	c7 45 fc 00 00 00 00 	movl   $0x0,-0x4(%ebp)
    17ef:	eb 06                	jmp    17f7 <strlen+0x1f>
    17f1:	ff 45 fc             	incl   -0x4(%ebp)
    17f4:	ff 45 08             	incl   0x8(%ebp)
    17f7:	8b 45 08             	mov    0x8(%ebp),%eax
    17fa:	8a 00                	mov    (%eax),%al
    17fc:	84 c0                	test   %al,%al
    17fe:	75 f1                	jne    17f1 <strlen+0x19>
    1800:	8b 45 fc             	mov    -0x4(%ebp),%eax
    1803:	c9                   	leave
    1804:	c3                   	ret

00001805 <strtok_r>:
    1805:	55                   	push   %ebp
    1806:	89 e5                	mov    %esp,%ebp
    1808:	53                   	push   %ebx
    1809:	83 ec 14             	sub    $0x14,%esp
    180c:	e8 ce f6 ff ff       	call   edf <__x86.get_pc_thunk.bx>
    1811:	81 c3 93 1d 00 00    	add    $0x1d93,%ebx
    1817:	83 7d 08 00          	cmpl   $0x0,0x8(%ebp)
    181b:	75 08                	jne    1825 <strtok_r+0x20>
    181d:	8b 45 10             	mov    0x10(%ebp),%eax
    1820:	8b 00                	mov    (%eax),%eax
    1822:	89 45 08             	mov    %eax,0x8(%ebp)
    1825:	8b 45 08             	mov    0x8(%ebp),%eax
    1828:	8a 00                	mov    (%eax),%al
    182a:	84 c0                	test   %al,%al
    182c:	75 0f                	jne    183d <strtok_r+0x38>
    182e:	8b 45 10             	mov    0x10(%ebp),%eax
    1831:	8b 55 08             	mov    0x8(%ebp),%edx
    1834:	89 10                	mov    %edx,(%eax)
    1836:	b8 00 00 00 00       	mov    $0x0,%eax
    183b:	eb 6f                	jmp    18ac <strtok_r+0xa7>
    183d:	83 ec 08             	sub    $0x8,%esp
    1840:	ff 75 0c             	push   0xc(%ebp)
    1843:	ff 75 08             	push   0x8(%ebp)
    1846:	e8 66 00 00 00       	call   18b1 <strspn>
    184b:	83 c4 10             	add    $0x10,%esp
    184e:	01 45 08             	add    %eax,0x8(%ebp)
    1851:	8b 45 08             	mov    0x8(%ebp),%eax
    1854:	8a 00                	mov    (%eax),%al
    1856:	84 c0                	test   %al,%al
    1858:	75 0f                	jne    1869 <strtok_r+0x64>
    185a:	8b 45 10             	mov    0x10(%ebp),%eax
    185d:	8b 55 08             	mov    0x8(%ebp),%edx
    1860:	89 10                	mov    %edx,(%eax)
    1862:	b8 00 00 00 00       	mov    $0x0,%eax
    1867:	eb 43                	jmp    18ac <strtok_r+0xa7>
    1869:	83 ec 08             	sub    $0x8,%esp
    186c:	ff 75 0c             	push   0xc(%ebp)
    186f:	ff 75 08             	push   0x8(%ebp)
    1872:	e8 7f 02 00 00       	call   1af6 <strcspn>
    1877:	83 c4 10             	add    $0x10,%esp
    187a:	8b 55 08             	mov    0x8(%ebp),%edx
    187d:	01 d0                	add    %edx,%eax
    187f:	89 45 f4             	mov    %eax,-0xc(%ebp)
    1882:	8b 45 f4             	mov    -0xc(%ebp),%eax
    1885:	8a 00                	mov    (%eax),%al
    1887:	84 c0                	test   %al,%al
    1889:	75 0d                	jne    1898 <strtok_r+0x93>
    188b:	8b 45 10             	mov    0x10(%ebp),%eax
    188e:	8b 55 f4             	mov    -0xc(%ebp),%edx
    1891:	89 10                	mov    %edx,(%eax)
    1893:	8b 45 08             	mov    0x8(%ebp),%eax
    1896:	eb 14                	jmp    18ac <strtok_r+0xa7>
    1898:	8b 45 f4             	mov    -0xc(%ebp),%eax
    189b:	c6 00 00             	movb   $0x0,(%eax)
    189e:	8b 45 f4             	mov    -0xc(%ebp),%eax
    18a1:	8d 50 01             	lea    0x1(%eax),%edx
    18a4:	8b 45 10             	mov    0x10(%ebp),%eax
    18a7:	89 10                	mov    %edx,(%eax)
    18a9:	8b 45 08             	mov    0x8(%ebp),%eax
    18ac:	8b 5d fc             	mov    -0x4(%ebp),%ebx
    18af:	c9                   	leave
    18b0:	c3                   	ret

000018b1 <strspn>:
    18b1:	55                   	push   %ebp
    18b2:	89 e5                	mov    %esp,%ebp
    18b4:	53                   	push   %ebx
    18b5:	81 ec 24 01 00 00    	sub    $0x124,%esp
    18bb:	e8 1f f6 ff ff       	call   edf <__x86.get_pc_thunk.bx>
    18c0:	81 c3 e4 1c 00 00    	add    $0x1ce4,%ebx
    18c6:	8b 45 0c             	mov    0xc(%ebp),%eax
    18c9:	8a 00                	mov    (%eax),%al
    18cb:	84 c0                	test   %al,%al
    18cd:	75 0a                	jne    18d9 <strspn+0x28>
    18cf:	b8 00 00 00 00       	mov    $0x0,%eax
    18d4:	e9 d1 01 00 00       	jmp    1aaa <strspn+0x1f9>
    18d9:	8b 45 0c             	mov    0xc(%ebp),%eax
    18dc:	40                   	inc    %eax
    18dd:	8a 00                	mov    (%eax),%al
    18df:	84 c0                	test   %al,%al
    18e1:	75 24                	jne    1907 <strspn+0x56>
    18e3:	8b 45 08             	mov    0x8(%ebp),%eax
    18e6:	89 45 d8             	mov    %eax,-0x28(%ebp)
    18e9:	eb 03                	jmp    18ee <strspn+0x3d>
    18eb:	ff 45 08             	incl   0x8(%ebp)
    18ee:	8b 45 08             	mov    0x8(%ebp),%eax
    18f1:	8a 10                	mov    (%eax),%dl
    18f3:	8b 45 0c             	mov    0xc(%ebp),%eax
    18f6:	8a 00                	mov    (%eax),%al
    18f8:	38 c2                	cmp    %al,%dl
    18fa:	74 ef                	je     18eb <strspn+0x3a>
    18fc:	8b 45 08             	mov    0x8(%ebp),%eax
    18ff:	2b 45 d8             	sub    -0x28(%ebp),%eax
    1902:	e9 a3 01 00 00       	jmp    1aaa <strspn+0x1f9>
    1907:	83 ec 04             	sub    $0x4,%esp
    190a:	6a 40                	push   $0x40
    190c:	6a 00                	push   $0x0
    190e:	8d 85 d8 fe ff ff    	lea    -0x128(%ebp),%eax
    1914:	50                   	push   %eax
    1915:	e8 34 fd ff ff       	call   164e <memset>
    191a:	83 c4 10             	add    $0x10,%esp
    191d:	89 45 f0             	mov    %eax,-0x10(%ebp)
    1920:	8b 45 f0             	mov    -0x10(%ebp),%eax
    1923:	83 c0 40             	add    $0x40,%eax
    1926:	83 ec 04             	sub    $0x4,%esp
    1929:	6a 40                	push   $0x40
    192b:	6a 00                	push   $0x0
    192d:	50                   	push   %eax
    192e:	e8 1b fd ff ff       	call   164e <memset>
    1933:	83 c4 10             	add    $0x10,%esp
    1936:	8b 45 f0             	mov    -0x10(%ebp),%eax
    1939:	83 e8 80             	sub    $0xffffff80,%eax
    193c:	83 ec 04             	sub    $0x4,%esp
    193f:	6a 40                	push   $0x40
    1941:	6a 00                	push   $0x0
    1943:	50                   	push   %eax
    1944:	e8 05 fd ff ff       	call   164e <memset>
    1949:	83 c4 10             	add    $0x10,%esp
    194c:	8b 45 f0             	mov    -0x10(%ebp),%eax
    194f:	05 c0 00 00 00       	add    $0xc0,%eax
    1954:	83 ec 04             	sub    $0x4,%esp
    1957:	6a 40                	push   $0x40
    1959:	6a 00                	push   $0x0
    195b:	50                   	push   %eax
    195c:	e8 ed fc ff ff       	call   164e <memset>
    1961:	83 c4 10             	add    $0x10,%esp
    1964:	8b 45 0c             	mov    0xc(%ebp),%eax
    1967:	89 45 f4             	mov    %eax,-0xc(%ebp)
    196a:	8b 45 f4             	mov    -0xc(%ebp),%eax
    196d:	8d 50 01             	lea    0x1(%eax),%edx
    1970:	89 55 f4             	mov    %edx,-0xc(%ebp)
    1973:	8a 00                	mov    (%eax),%al
    1975:	0f b6 d0             	movzbl %al,%edx
    1978:	8b 45 f0             	mov    -0x10(%ebp),%eax
    197b:	01 d0                	add    %edx,%eax
    197d:	c6 00 01             	movb   $0x1,(%eax)
    1980:	8b 45 f4             	mov    -0xc(%ebp),%eax
    1983:	8a 00                	mov    (%eax),%al
    1985:	84 c0                	test   %al,%al
    1987:	75 e1                	jne    196a <strspn+0xb9>
    1989:	8b 45 08             	mov    0x8(%ebp),%eax
    198c:	89 45 f4             	mov    %eax,-0xc(%ebp)
    198f:	8b 45 f4             	mov    -0xc(%ebp),%eax
    1992:	8a 00                	mov    (%eax),%al
    1994:	0f b6 d0             	movzbl %al,%edx
    1997:	8b 45 f0             	mov    -0x10(%ebp),%eax
    199a:	01 d0                	add    %edx,%eax
    199c:	8a 00                	mov    (%eax),%al
    199e:	84 c0                	test   %al,%al
    19a0:	75 0a                	jne    19ac <strspn+0xfb>
    19a2:	b8 00 00 00 00       	mov    $0x0,%eax
    19a7:	e9 fe 00 00 00       	jmp    1aaa <strspn+0x1f9>
    19ac:	8b 45 f4             	mov    -0xc(%ebp),%eax
    19af:	40                   	inc    %eax
    19b0:	8a 00                	mov    (%eax),%al
    19b2:	0f b6 d0             	movzbl %al,%edx
    19b5:	8b 45 f0             	mov    -0x10(%ebp),%eax
    19b8:	01 d0                	add    %edx,%eax
    19ba:	8a 00                	mov    (%eax),%al
    19bc:	84 c0                	test   %al,%al
    19be:	75 0a                	jne    19ca <strspn+0x119>
    19c0:	b8 01 00 00 00       	mov    $0x1,%eax
    19c5:	e9 e0 00 00 00       	jmp    1aaa <strspn+0x1f9>
    19ca:	8b 45 f4             	mov    -0xc(%ebp),%eax
    19cd:	83 c0 02             	add    $0x2,%eax
    19d0:	8a 00                	mov    (%eax),%al
    19d2:	0f b6 d0             	movzbl %al,%edx
    19d5:	8b 45 f0             	mov    -0x10(%ebp),%eax
    19d8:	01 d0                	add    %edx,%eax
    19da:	8a 00                	mov    (%eax),%al
    19dc:	84 c0                	test   %al,%al
    19de:	75 0a                	jne    19ea <strspn+0x139>
    19e0:	b8 02 00 00 00       	mov    $0x2,%eax
    19e5:	e9 c0 00 00 00       	jmp    1aaa <strspn+0x1f9>
    19ea:	8b 45 f4             	mov    -0xc(%ebp),%eax
    19ed:	83 c0 03             	add    $0x3,%eax
    19f0:	8a 00                	mov    (%eax),%al
    19f2:	0f b6 d0             	movzbl %al,%edx
    19f5:	8b 45 f0             	mov    -0x10(%ebp),%eax
    19f8:	01 d0                	add    %edx,%eax
    19fa:	8a 00                	mov    (%eax),%al
    19fc:	84 c0                	test   %al,%al
    19fe:	75 0a                	jne    1a0a <strspn+0x159>
    1a00:	b8 03 00 00 00       	mov    $0x3,%eax
    1a05:	e9 a0 00 00 00       	jmp    1aaa <strspn+0x1f9>
    1a0a:	8b 45 f4             	mov    -0xc(%ebp),%eax
    1a0d:	83 e0 fc             	and    $0xfffffffc,%eax
    1a10:	89 45 f4             	mov    %eax,-0xc(%ebp)
    1a13:	83 45 f4 04          	addl   $0x4,-0xc(%ebp)
    1a17:	8b 45 f4             	mov    -0xc(%ebp),%eax
    1a1a:	8a 00                	mov    (%eax),%al
    1a1c:	0f b6 d0             	movzbl %al,%edx
    1a1f:	8b 45 f0             	mov    -0x10(%ebp),%eax
    1a22:	01 d0                	add    %edx,%eax
    1a24:	8a 00                	mov    (%eax),%al
    1a26:	0f b6 c0             	movzbl %al,%eax
    1a29:	89 45 ec             	mov    %eax,-0x14(%ebp)
    1a2c:	8b 45 f4             	mov    -0xc(%ebp),%eax
    1a2f:	40                   	inc    %eax
    1a30:	8a 00                	mov    (%eax),%al
    1a32:	0f b6 d0             	movzbl %al,%edx
    1a35:	8b 45 f0             	mov    -0x10(%ebp),%eax
    1a38:	01 d0                	add    %edx,%eax
    1a3a:	8a 00                	mov    (%eax),%al
    1a3c:	0f b6 c0             	movzbl %al,%eax
    1a3f:	89 45 e8             	mov    %eax,-0x18(%ebp)
    1a42:	8b 45 f4             	mov    -0xc(%ebp),%eax
    1a45:	83 c0 02             	add    $0x2,%eax
    1a48:	8a 00                	mov    (%eax),%al
    1a4a:	0f b6 d0             	movzbl %al,%edx
    1a4d:	8b 45 f0             	mov    -0x10(%ebp),%eax
    1a50:	01 d0                	add    %edx,%eax
    1a52:	8a 00                	mov    (%eax),%al
    1a54:	0f b6 c0             	movzbl %al,%eax
    1a57:	89 45 e4             	mov    %eax,-0x1c(%ebp)
    1a5a:	8b 45 f4             	mov    -0xc(%ebp),%eax
    1a5d:	83 c0 03             	add    $0x3,%eax
    1a60:	8a 00                	mov    (%eax),%al
    1a62:	0f b6 d0             	movzbl %al,%edx
    1a65:	8b 45 f0             	mov    -0x10(%ebp),%eax
    1a68:	01 d0                	add    %edx,%eax
    1a6a:	8a 00                	mov    (%eax),%al
    1a6c:	0f b6 c0             	movzbl %al,%eax
    1a6f:	89 45 e0             	mov    %eax,-0x20(%ebp)
    1a72:	8b 45 ec             	mov    -0x14(%ebp),%eax
    1a75:	23 45 e8             	and    -0x18(%ebp),%eax
    1a78:	23 45 e4             	and    -0x1c(%ebp),%eax
    1a7b:	23 45 e0             	and    -0x20(%ebp),%eax
    1a7e:	85 c0                	test   %eax,%eax
    1a80:	75 91                	jne    1a13 <strspn+0x162>
    1a82:	8b 45 f4             	mov    -0xc(%ebp),%eax
    1a85:	2b 45 08             	sub    0x8(%ebp),%eax
    1a88:	89 45 dc             	mov    %eax,-0x24(%ebp)
    1a8b:	8b 45 ec             	mov    -0x14(%ebp),%eax
    1a8e:	23 45 e8             	and    -0x18(%ebp),%eax
    1a91:	85 c0                	test   %eax,%eax
    1a93:	75 0a                	jne    1a9f <strspn+0x1ee>
    1a95:	8b 55 dc             	mov    -0x24(%ebp),%edx
    1a98:	8b 45 ec             	mov    -0x14(%ebp),%eax
    1a9b:	01 d0                	add    %edx,%eax
    1a9d:	eb 0b                	jmp    1aaa <strspn+0x1f9>
    1a9f:	8b 55 dc             	mov    -0x24(%ebp),%edx
    1aa2:	8b 45 e4             	mov    -0x1c(%ebp),%eax
    1aa5:	01 d0                	add    %edx,%eax
    1aa7:	83 c0 02             	add    $0x2,%eax
    1aaa:	8b 5d fc             	mov    -0x4(%ebp),%ebx
    1aad:	c9                   	leave
    1aae:	c3                   	ret

00001aaf <__strchrnul>:
    1aaf:	55                   	push   %ebp
    1ab0:	89 e5                	mov    %esp,%ebp
    1ab2:	53                   	push   %ebx
    1ab3:	83 ec 14             	sub    $0x14,%esp
    1ab6:	e8 24 f4 ff ff       	call   edf <__x86.get_pc_thunk.bx>
    1abb:	81 c3 e9 1a 00 00    	add    $0x1ae9,%ebx
    1ac1:	83 ec 08             	sub    $0x8,%esp
    1ac4:	ff 75 0c             	push   0xc(%ebp)
    1ac7:	ff 75 08             	push   0x8(%ebp)
    1aca:	e8 14 02 00 00       	call   1ce3 <strchr>
    1acf:	83 c4 10             	add    $0x10,%esp
    1ad2:	89 45 f4             	mov    %eax,-0xc(%ebp)
    1ad5:	83 7d f4 00          	cmpl   $0x0,-0xc(%ebp)
    1ad9:	75 13                	jne    1aee <__strchrnul+0x3f>
    1adb:	83 ec 08             	sub    $0x8,%esp
    1ade:	6a 00                	push   $0x0
    1ae0:	ff 75 08             	push   0x8(%ebp)
    1ae3:	e8 fb 01 00 00       	call   1ce3 <strchr>
    1ae8:	83 c4 10             	add    $0x10,%esp
    1aeb:	89 45 f4             	mov    %eax,-0xc(%ebp)
    1aee:	8b 45 f4             	mov    -0xc(%ebp),%eax
    1af1:	8b 5d fc             	mov    -0x4(%ebp),%ebx
    1af4:	c9                   	leave
    1af5:	c3                   	ret

00001af6 <strcspn>:
    1af6:	55                   	push   %ebp
    1af7:	89 e5                	mov    %esp,%ebp
    1af9:	53                   	push   %ebx
    1afa:	81 ec 24 01 00 00    	sub    $0x124,%esp
    1b00:	e8 da f3 ff ff       	call   edf <__x86.get_pc_thunk.bx>
    1b05:	81 c3 9f 1a 00 00    	add    $0x1a9f,%ebx
    1b0b:	8b 45 0c             	mov    0xc(%ebp),%eax
    1b0e:	8a 00                	mov    (%eax),%al
    1b10:	84 c0                	test   %al,%al
    1b12:	74 0a                	je     1b1e <strcspn+0x28>
    1b14:	8b 45 0c             	mov    0xc(%ebp),%eax
    1b17:	40                   	inc    %eax
    1b18:	8a 00                	mov    (%eax),%al
    1b1a:	84 c0                	test   %al,%al
    1b1c:	75 1f                	jne    1b3d <strcspn+0x47>
    1b1e:	8b 45 0c             	mov    0xc(%ebp),%eax
    1b21:	8a 00                	mov    (%eax),%al
    1b23:	0f be c0             	movsbl %al,%eax
    1b26:	83 ec 08             	sub    $0x8,%esp
    1b29:	50                   	push   %eax
    1b2a:	ff 75 08             	push   0x8(%ebp)
    1b2d:	e8 7d ff ff ff       	call   1aaf <__strchrnul>
    1b32:	83 c4 10             	add    $0x10,%esp
    1b35:	2b 45 08             	sub    0x8(%ebp),%eax
    1b38:	e9 a1 01 00 00       	jmp    1cde <strcspn+0x1e8>
    1b3d:	83 ec 04             	sub    $0x4,%esp
    1b40:	6a 40                	push   $0x40
    1b42:	6a 00                	push   $0x0
    1b44:	8d 85 d8 fe ff ff    	lea    -0x128(%ebp),%eax
    1b4a:	50                   	push   %eax
    1b4b:	e8 fe fa ff ff       	call   164e <memset>
    1b50:	83 c4 10             	add    $0x10,%esp
    1b53:	89 45 f0             	mov    %eax,-0x10(%ebp)
    1b56:	8b 45 f0             	mov    -0x10(%ebp),%eax
    1b59:	83 c0 40             	add    $0x40,%eax
    1b5c:	83 ec 04             	sub    $0x4,%esp
    1b5f:	6a 40                	push   $0x40
    1b61:	6a 00                	push   $0x0
    1b63:	50                   	push   %eax
    1b64:	e8 e5 fa ff ff       	call   164e <memset>
    1b69:	83 c4 10             	add    $0x10,%esp
    1b6c:	8b 45 f0             	mov    -0x10(%ebp),%eax
    1b6f:	83 e8 80             	sub    $0xffffff80,%eax
    1b72:	83 ec 04             	sub    $0x4,%esp
    1b75:	6a 40                	push   $0x40
    1b77:	6a 00                	push   $0x0
    1b79:	50                   	push   %eax
    1b7a:	e8 cf fa ff ff       	call   164e <memset>
    1b7f:	83 c4 10             	add    $0x10,%esp
    1b82:	8b 45 f0             	mov    -0x10(%ebp),%eax
    1b85:	05 c0 00 00 00       	add    $0xc0,%eax
    1b8a:	83 ec 04             	sub    $0x4,%esp
    1b8d:	6a 40                	push   $0x40
    1b8f:	6a 00                	push   $0x0
    1b91:	50                   	push   %eax
    1b92:	e8 b7 fa ff ff       	call   164e <memset>
    1b97:	83 c4 10             	add    $0x10,%esp
    1b9a:	8b 45 0c             	mov    0xc(%ebp),%eax
    1b9d:	89 45 f4             	mov    %eax,-0xc(%ebp)
    1ba0:	8b 45 f4             	mov    -0xc(%ebp),%eax
    1ba3:	8d 50 01             	lea    0x1(%eax),%edx
    1ba6:	89 55 f4             	mov    %edx,-0xc(%ebp)
    1ba9:	8a 00                	mov    (%eax),%al
    1bab:	88 45 ef             	mov    %al,-0x11(%ebp)
    1bae:	0f b6 55 ef          	movzbl -0x11(%ebp),%edx
    1bb2:	8b 45 f0             	mov    -0x10(%ebp),%eax
    1bb5:	01 d0                	add    %edx,%eax
    1bb7:	c6 00 01             	movb   $0x1,(%eax)
    1bba:	80 7d ef 00          	cmpb   $0x0,-0x11(%ebp)
    1bbe:	75 e0                	jne    1ba0 <strcspn+0xaa>
    1bc0:	8b 45 08             	mov    0x8(%ebp),%eax
    1bc3:	89 45 f4             	mov    %eax,-0xc(%ebp)
    1bc6:	8b 45 f4             	mov    -0xc(%ebp),%eax
    1bc9:	8a 00                	mov    (%eax),%al
    1bcb:	0f b6 d0             	movzbl %al,%edx
    1bce:	8b 45 f0             	mov    -0x10(%ebp),%eax
    1bd1:	01 d0                	add    %edx,%eax
    1bd3:	8a 00                	mov    (%eax),%al
    1bd5:	84 c0                	test   %al,%al
    1bd7:	74 0a                	je     1be3 <strcspn+0xed>
    1bd9:	b8 00 00 00 00       	mov    $0x0,%eax
    1bde:	e9 fb 00 00 00       	jmp    1cde <strcspn+0x1e8>
    1be3:	8b 45 f4             	mov    -0xc(%ebp),%eax
    1be6:	40                   	inc    %eax
    1be7:	8a 00                	mov    (%eax),%al
    1be9:	0f b6 d0             	movzbl %al,%edx
    1bec:	8b 45 f0             	mov    -0x10(%ebp),%eax
    1bef:	01 d0                	add    %edx,%eax
    1bf1:	8a 00                	mov    (%eax),%al
    1bf3:	84 c0                	test   %al,%al
    1bf5:	74 0a                	je     1c01 <strcspn+0x10b>
    1bf7:	b8 01 00 00 00       	mov    $0x1,%eax
    1bfc:	e9 dd 00 00 00       	jmp    1cde <strcspn+0x1e8>
    1c01:	8b 45 f4             	mov    -0xc(%ebp),%eax
    1c04:	83 c0 02             	add    $0x2,%eax
    1c07:	8a 00                	mov    (%eax),%al
    1c09:	0f b6 d0             	movzbl %al,%edx
    1c0c:	8b 45 f0             	mov    -0x10(%ebp),%eax
    1c0f:	01 d0                	add    %edx,%eax
    1c11:	8a 00                	mov    (%eax),%al
    1c13:	84 c0                	test   %al,%al
    1c15:	74 0a                	je     1c21 <strcspn+0x12b>
    1c17:	b8 02 00 00 00       	mov    $0x2,%eax
    1c1c:	e9 bd 00 00 00       	jmp    1cde <strcspn+0x1e8>
    1c21:	8b 45 f4             	mov    -0xc(%ebp),%eax
    1c24:	83 c0 03             	add    $0x3,%eax
    1c27:	8a 00                	mov    (%eax),%al
    1c29:	0f b6 d0             	movzbl %al,%edx
    1c2c:	8b 45 f0             	mov    -0x10(%ebp),%eax
    1c2f:	01 d0                	add    %edx,%eax
    1c31:	8a 00                	mov    (%eax),%al
    1c33:	84 c0                	test   %al,%al
    1c35:	74 0a                	je     1c41 <strcspn+0x14b>
    1c37:	b8 03 00 00 00       	mov    $0x3,%eax
    1c3c:	e9 9d 00 00 00       	jmp    1cde <strcspn+0x1e8>
    1c41:	8b 45 f4             	mov    -0xc(%ebp),%eax
    1c44:	83 e0 fc             	and    $0xfffffffc,%eax
    1c47:	89 45 f4             	mov    %eax,-0xc(%ebp)
    1c4a:	83 45 f4 04          	addl   $0x4,-0xc(%ebp)
    1c4e:	8b 45 f4             	mov    -0xc(%ebp),%eax
    1c51:	8a 00                	mov    (%eax),%al
    1c53:	0f b6 d0             	movzbl %al,%edx
    1c56:	8b 45 f0             	mov    -0x10(%ebp),%eax
    1c59:	01 d0                	add    %edx,%eax
    1c5b:	8a 00                	mov    (%eax),%al
    1c5d:	0f b6 c0             	movzbl %al,%eax
    1c60:	89 45 e8             	mov    %eax,-0x18(%ebp)
    1c63:	8b 45 f4             	mov    -0xc(%ebp),%eax
    1c66:	40                   	inc    %eax
    1c67:	8a 00                	mov    (%eax),%al
    1c69:	0f b6 d0             	movzbl %al,%edx
    1c6c:	8b 45 f0             	mov    -0x10(%ebp),%eax
    1c6f:	01 d0                	add    %edx,%eax
    1c71:	8a 00                	mov    (%eax),%al
    1c73:	0f b6 c0             	movzbl %al,%eax
    1c76:	89 45 e4             	mov    %eax,-0x1c(%ebp)
    1c79:	8b 45 f4             	mov    -0xc(%ebp),%eax
    1c7c:	83 c0 02             	add    $0x2,%eax
    1c7f:	8a 00                	mov    (%eax),%al
    1c81:	0f b6 d0             	movzbl %al,%edx
    1c84:	8b 45 f0             	mov    -0x10(%ebp),%eax
    1c87:	01 d0                	add    %edx,%eax
    1c89:	8a 00                	mov    (%eax),%al
    1c8b:	0f b6 c0             	movzbl %al,%eax
    1c8e:	89 45 e0             	mov    %eax,-0x20(%ebp)
    1c91:	8b 45 f4             	mov    -0xc(%ebp),%eax
    1c94:	83 c0 03             	add    $0x3,%eax
    1c97:	8a 00                	mov    (%eax),%al
    1c99:	0f b6 d0             	movzbl %al,%edx
    1c9c:	8b 45 f0             	mov    -0x10(%ebp),%eax
    1c9f:	01 d0                	add    %edx,%eax
    1ca1:	8a 00                	mov    (%eax),%al
    1ca3:	0f b6 c0             	movzbl %al,%eax
    1ca6:	89 45 dc             	mov    %eax,-0x24(%ebp)
    1ca9:	8b 45 e8             	mov    -0x18(%ebp),%eax
    1cac:	0b 45 e4             	or     -0x1c(%ebp),%eax
    1caf:	0b 45 e0             	or     -0x20(%ebp),%eax
    1cb2:	0b 45 dc             	or     -0x24(%ebp),%eax
    1cb5:	85 c0                	test   %eax,%eax
    1cb7:	74 91                	je     1c4a <strcspn+0x154>
    1cb9:	8b 45 f4             	mov    -0xc(%ebp),%eax
    1cbc:	2b 45 08             	sub    0x8(%ebp),%eax
    1cbf:	89 45 d8             	mov    %eax,-0x28(%ebp)
    1cc2:	8b 45 e8             	mov    -0x18(%ebp),%eax
    1cc5:	0b 45 e4             	or     -0x1c(%ebp),%eax
    1cc8:	85 c0                	test   %eax,%eax
    1cca:	74 09                	je     1cd5 <strcspn+0x1df>
    1ccc:	8b 45 d8             	mov    -0x28(%ebp),%eax
    1ccf:	2b 45 e8             	sub    -0x18(%ebp),%eax
    1cd2:	40                   	inc    %eax
    1cd3:	eb 09                	jmp    1cde <strcspn+0x1e8>
    1cd5:	8b 45 d8             	mov    -0x28(%ebp),%eax
    1cd8:	2b 45 e0             	sub    -0x20(%ebp),%eax
    1cdb:	83 c0 03             	add    $0x3,%eax
    1cde:	8b 5d fc             	mov    -0x4(%ebp),%ebx
    1ce1:	c9                   	leave
    1ce2:	c3                   	ret

00001ce3 <strchr>:
    1ce3:	55                   	push   %ebp
    1ce4:	89 e5                	mov    %esp,%ebp
    1ce6:	83 ec 20             	sub    $0x20,%esp
    1ce9:	e8 ed f1 ff ff       	call   edb <__x86.get_pc_thunk.ax>
    1cee:	05 b6 18 00 00       	add    $0x18b6,%eax
    1cf3:	8b 45 0c             	mov    0xc(%ebp),%eax
    1cf6:	88 45 f7             	mov    %al,-0x9(%ebp)
    1cf9:	8b 45 08             	mov    0x8(%ebp),%eax
    1cfc:	89 45 f8             	mov    %eax,-0x8(%ebp)
    1cff:	eb 28                	jmp    1d29 <strchr+0x46>
    1d01:	8b 45 f8             	mov    -0x8(%ebp),%eax
    1d04:	8a 00                	mov    (%eax),%al
    1d06:	38 45 f7             	cmp    %al,-0x9(%ebp)
    1d09:	75 08                	jne    1d13 <strchr+0x30>
    1d0b:	8b 45 f8             	mov    -0x8(%ebp),%eax
    1d0e:	e9 35 01 00 00       	jmp    1e48 <strchr+0x165>
    1d13:	8b 45 f8             	mov    -0x8(%ebp),%eax
    1d16:	8a 00                	mov    (%eax),%al
    1d18:	84 c0                	test   %al,%al
    1d1a:	75 0a                	jne    1d26 <strchr+0x43>
    1d1c:	b8 00 00 00 00       	mov    $0x0,%eax
    1d21:	e9 22 01 00 00       	jmp    1e48 <strchr+0x165>
    1d26:	ff 45 f8             	incl   -0x8(%ebp)
    1d29:	8b 45 f8             	mov    -0x8(%ebp),%eax
    1d2c:	83 e0 03             	and    $0x3,%eax
    1d2f:	85 c0                	test   %eax,%eax
    1d31:	75 ce                	jne    1d01 <strchr+0x1e>
    1d33:	8b 45 f8             	mov    -0x8(%ebp),%eax
    1d36:	89 45 fc             	mov    %eax,-0x4(%ebp)
    1d39:	c7 45 f0 ff ff ff ff 	movl   $0xffffffff,-0x10(%ebp)
    1d40:	8b 45 f0             	mov    -0x10(%ebp),%eax
    1d43:	ba 81 80 80 80       	mov    $0x80808081,%edx
    1d48:	f7 e2                	mul    %edx
    1d4a:	c1 ea 07             	shr    $0x7,%edx
    1d4d:	89 d0                	mov    %edx,%eax
    1d4f:	c1 e0 07             	shl    $0x7,%eax
    1d52:	29 d0                	sub    %edx,%eax
    1d54:	01 c0                	add    %eax,%eax
    1d56:	25 fe ff ff 7f       	and    $0x7ffffffe,%eax
    1d5b:	83 c8 01             	or     $0x1,%eax
    1d5e:	89 45 f0             	mov    %eax,-0x10(%ebp)
    1d61:	0f b6 55 f7          	movzbl -0x9(%ebp),%edx
    1d65:	89 d0                	mov    %edx,%eax
    1d67:	c1 e0 08             	shl    $0x8,%eax
    1d6a:	01 d0                	add    %edx,%eax
    1d6c:	89 45 ec             	mov    %eax,-0x14(%ebp)
    1d6f:	8b 45 ec             	mov    -0x14(%ebp),%eax
    1d72:	c1 e0 10             	shl    $0x10,%eax
    1d75:	09 45 ec             	or     %eax,-0x14(%ebp)
    1d78:	8b 45 fc             	mov    -0x4(%ebp),%eax
    1d7b:	8d 50 04             	lea    0x4(%eax),%edx
    1d7e:	89 55 fc             	mov    %edx,-0x4(%ebp)
    1d81:	8b 00                	mov    (%eax),%eax
    1d83:	89 45 e8             	mov    %eax,-0x18(%ebp)
    1d86:	8b 55 e8             	mov    -0x18(%ebp),%edx
    1d89:	8b 45 f0             	mov    -0x10(%ebp),%eax
    1d8c:	01 d0                	add    %edx,%eax
    1d8e:	33 45 e8             	xor    -0x18(%ebp),%eax
    1d91:	0b 45 f0             	or     -0x10(%ebp),%eax
    1d94:	83 f8 ff             	cmp    $0xffffffff,%eax
    1d97:	75 1f                	jne    1db8 <strchr+0xd5>
    1d99:	8b 45 e8             	mov    -0x18(%ebp),%eax
    1d9c:	33 45 ec             	xor    -0x14(%ebp),%eax
    1d9f:	89 c2                	mov    %eax,%edx
    1da1:	8b 45 e8             	mov    -0x18(%ebp),%eax
    1da4:	33 45 ec             	xor    -0x14(%ebp),%eax
    1da7:	89 c1                	mov    %eax,%ecx
    1da9:	8b 45 f0             	mov    -0x10(%ebp),%eax
    1dac:	01 c8                	add    %ecx,%eax
    1dae:	31 d0                	xor    %edx,%eax
    1db0:	0b 45 f0             	or     -0x10(%ebp),%eax
    1db3:	83 f8 ff             	cmp    $0xffffffff,%eax
    1db6:	74 c0                	je     1d78 <strchr+0x95>
    1db8:	8b 45 fc             	mov    -0x4(%ebp),%eax
    1dbb:	83 e8 04             	sub    $0x4,%eax
    1dbe:	89 45 e4             	mov    %eax,-0x1c(%ebp)
    1dc1:	8b 45 e4             	mov    -0x1c(%ebp),%eax
    1dc4:	8a 00                	mov    (%eax),%al
    1dc6:	38 45 f7             	cmp    %al,-0x9(%ebp)
    1dc9:	75 05                	jne    1dd0 <strchr+0xed>
    1dcb:	8b 45 e4             	mov    -0x1c(%ebp),%eax
    1dce:	eb 78                	jmp    1e48 <strchr+0x165>
    1dd0:	8b 45 e4             	mov    -0x1c(%ebp),%eax
    1dd3:	8a 00                	mov    (%eax),%al
    1dd5:	84 c0                	test   %al,%al
    1dd7:	75 07                	jne    1de0 <strchr+0xfd>
    1dd9:	b8 00 00 00 00       	mov    $0x0,%eax
    1dde:	eb 68                	jmp    1e48 <strchr+0x165>
    1de0:	ff 45 e4             	incl   -0x1c(%ebp)
    1de3:	8b 45 e4             	mov    -0x1c(%ebp),%eax
    1de6:	8a 00                	mov    (%eax),%al
    1de8:	38 45 f7             	cmp    %al,-0x9(%ebp)
    1deb:	75 05                	jne    1df2 <strchr+0x10f>
    1ded:	8b 45 e4             	mov    -0x1c(%ebp),%eax
    1df0:	eb 56                	jmp    1e48 <strchr+0x165>
    1df2:	8b 45 e4             	mov    -0x1c(%ebp),%eax
    1df5:	8a 00                	mov    (%eax),%al
    1df7:	84 c0                	test   %al,%al
    1df9:	75 07                	jne    1e02 <strchr+0x11f>
    1dfb:	b8 00 00 00 00       	mov    $0x0,%eax
    1e00:	eb 46                	jmp    1e48 <strchr+0x165>
    1e02:	ff 45 e4             	incl   -0x1c(%ebp)
    1e05:	8b 45 e4             	mov    -0x1c(%ebp),%eax
    1e08:	8a 00                	mov    (%eax),%al
    1e0a:	38 45 f7             	cmp    %al,-0x9(%ebp)
    1e0d:	75 05                	jne    1e14 <strchr+0x131>
    1e0f:	8b 45 e4             	mov    -0x1c(%ebp),%eax
    1e12:	eb 34                	jmp    1e48 <strchr+0x165>
    1e14:	8b 45 e4             	mov    -0x1c(%ebp),%eax
    1e17:	8a 00                	mov    (%eax),%al
    1e19:	84 c0                	test   %al,%al
    1e1b:	75 07                	jne    1e24 <strchr+0x141>
    1e1d:	b8 00 00 00 00       	mov    $0x0,%eax
    1e22:	eb 24                	jmp    1e48 <strchr+0x165>
    1e24:	ff 45 e4             	incl   -0x1c(%ebp)
    1e27:	8b 45 e4             	mov    -0x1c(%ebp),%eax
    1e2a:	8a 00                	mov    (%eax),%al
    1e2c:	38 45 f7             	cmp    %al,-0x9(%ebp)
    1e2f:	75 05                	jne    1e36 <strchr+0x153>
    1e31:	8b 45 e4             	mov    -0x1c(%ebp),%eax
    1e34:	eb 12                	jmp    1e48 <strchr+0x165>
    1e36:	8b 45 e4             	mov    -0x1c(%ebp),%eax
    1e39:	8a 00                	mov    (%eax),%al
    1e3b:	84 c0                	test   %al,%al
    1e3d:	0f 85 35 ff ff ff    	jne    1d78 <strchr+0x95>
    1e43:	b8 00 00 00 00       	mov    $0x0,%eax
    1e48:	c9                   	leave
    1e49:	c3                   	ret

00001e4a <strncpy>:
    1e4a:	55                   	push   %ebp
    1e4b:	89 e5                	mov    %esp,%ebp
    1e4d:	83 ec 10             	sub    $0x10,%esp
    1e50:	e8 86 f0 ff ff       	call   edb <__x86.get_pc_thunk.ax>
    1e55:	05 4f 17 00 00       	add    $0x174f,%eax
    1e5a:	c7 45 fc 00 00 00 00 	movl   $0x0,-0x4(%ebp)
    1e61:	eb 25                	jmp    1e88 <strncpy+0x3e>
    1e63:	8b 55 fc             	mov    -0x4(%ebp),%edx
    1e66:	8b 45 0c             	mov    0xc(%ebp),%eax
    1e69:	01 d0                	add    %edx,%eax
    1e6b:	8a 00                	mov    (%eax),%al
    1e6d:	84 c0                	test   %al,%al
    1e6f:	74 21                	je     1e92 <strncpy+0x48>
    1e71:	8b 55 fc             	mov    -0x4(%ebp),%edx
    1e74:	8b 45 0c             	mov    0xc(%ebp),%eax
    1e77:	01 d0                	add    %edx,%eax
    1e79:	8b 4d fc             	mov    -0x4(%ebp),%ecx
    1e7c:	8b 55 08             	mov    0x8(%ebp),%edx
    1e7f:	01 ca                	add    %ecx,%edx
    1e81:	8a 00                	mov    (%eax),%al
    1e83:	88 02                	mov    %al,(%edx)
    1e85:	ff 45 fc             	incl   -0x4(%ebp)
    1e88:	8b 45 fc             	mov    -0x4(%ebp),%eax
    1e8b:	3b 45 10             	cmp    0x10(%ebp),%eax
    1e8e:	72 d3                	jb     1e63 <strncpy+0x19>
    1e90:	eb 16                	jmp    1ea8 <strncpy+0x5e>
    1e92:	90                   	nop
    1e93:	eb 13                	jmp    1ea8 <strncpy+0x5e>
    1e95:	8b 45 fc             	mov    -0x4(%ebp),%eax
    1e98:	8d 50 01             	lea    0x1(%eax),%edx
    1e9b:	89 55 fc             	mov    %edx,-0x4(%ebp)
    1e9e:	89 c2                	mov    %eax,%edx
    1ea0:	8b 45 08             	mov    0x8(%ebp),%eax
    1ea3:	01 d0                	add    %edx,%eax
    1ea5:	c6 00 00             	movb   $0x0,(%eax)
    1ea8:	8b 45 fc             	mov    -0x4(%ebp),%eax
    1eab:	3b 45 10             	cmp    0x10(%ebp),%eax
    1eae:	72 e5                	jb     1e95 <strncpy+0x4b>
    1eb0:	8b 45 08             	mov    0x8(%ebp),%eax
    1eb3:	c9                   	leave
    1eb4:	c3                   	ret

00001eb5 <strdup>:
    1eb5:	55                   	push   %ebp
    1eb6:	89 e5                	mov    %esp,%ebp
    1eb8:	53                   	push   %ebx
    1eb9:	83 ec 14             	sub    $0x14,%esp
    1ebc:	e8 1e f0 ff ff       	call   edf <__x86.get_pc_thunk.bx>
    1ec1:	81 c3 e3 16 00 00    	add    $0x16e3,%ebx
    1ec7:	83 7d 08 00          	cmpl   $0x0,0x8(%ebp)
    1ecb:	75 07                	jne    1ed4 <strdup+0x1f>
    1ecd:	b8 00 00 00 00       	mov    $0x0,%eax
    1ed2:	eb 50                	jmp    1f24 <strdup+0x6f>
    1ed4:	83 ec 0c             	sub    $0xc,%esp
    1ed7:	ff 75 08             	push   0x8(%ebp)
    1eda:	e8 f9 f8 ff ff       	call   17d8 <strlen>
    1edf:	83 c4 10             	add    $0x10,%esp
    1ee2:	89 45 f4             	mov    %eax,-0xc(%ebp)
    1ee5:	8b 45 f4             	mov    -0xc(%ebp),%eax
    1ee8:	40                   	inc    %eax
    1ee9:	83 ec 0c             	sub    $0xc,%esp
    1eec:	50                   	push   %eax
    1eed:	e8 8e f0 ff ff       	call   f80 <malloc>
    1ef2:	83 c4 10             	add    $0x10,%esp
    1ef5:	89 45 f0             	mov    %eax,-0x10(%ebp)
    1ef8:	83 7d f0 00          	cmpl   $0x0,-0x10(%ebp)
    1efc:	75 07                	jne    1f05 <strdup+0x50>
    1efe:	b8 00 00 00 00       	mov    $0x0,%eax
    1f03:	eb 1f                	jmp    1f24 <strdup+0x6f>
    1f05:	8b 55 f4             	mov    -0xc(%ebp),%edx
    1f08:	8b 45 f0             	mov    -0x10(%ebp),%eax
    1f0b:	01 d0                	add    %edx,%eax
    1f0d:	c6 00 00             	movb   $0x0,(%eax)
    1f10:	83 ec 08             	sub    $0x8,%esp
    1f13:	ff 75 08             	push   0x8(%ebp)
    1f16:	ff 75 f0             	push   -0x10(%ebp)
    1f19:	e8 23 f8 ff ff       	call   1741 <strcpy>
    1f1e:	83 c4 10             	add    $0x10,%esp
    1f21:	8b 45 f0             	mov    -0x10(%ebp),%eax
    1f24:	8b 5d fc             	mov    -0x4(%ebp),%ebx
    1f27:	c9                   	leave
    1f28:	c3                   	ret

00001f29 <open>:
    1f29:	55                   	push   %ebp
    1f2a:	89 e5                	mov    %esp,%ebp
    1f2c:	53                   	push   %ebx
    1f2d:	e8 a9 ef ff ff       	call   edb <__x86.get_pc_thunk.ax>
    1f32:	05 72 16 00 00       	add    $0x1672,%eax
    1f37:	8b 45 0c             	mov    0xc(%ebp),%eax
    1f3a:	89 c1                	mov    %eax,%ecx
    1f3c:	8b 45 08             	mov    0x8(%ebp),%eax
    1f3f:	89 c3                	mov    %eax,%ebx
    1f41:	b8 35 00 00 00       	mov    $0x35,%eax
    1f46:	cd 80                	int    $0x80
    1f48:	8b 5d fc             	mov    -0x4(%ebp),%ebx
    1f4b:	c9                   	leave
    1f4c:	c3                   	ret

00001f4d <close>:
    1f4d:	55                   	push   %ebp
    1f4e:	89 e5                	mov    %esp,%ebp
    1f50:	53                   	push   %ebx
    1f51:	e8 85 ef ff ff       	call   edb <__x86.get_pc_thunk.ax>
    1f56:	05 4e 16 00 00       	add    $0x164e,%eax
    1f5b:	8b 45 08             	mov    0x8(%ebp),%eax
    1f5e:	89 c3                	mov    %eax,%ebx
    1f60:	b8 36 00 00 00       	mov    $0x36,%eax
    1f65:	cd 80                	int    $0x80
    1f67:	90                   	nop
    1f68:	8b 5d fc             	mov    -0x4(%ebp),%ebx
    1f6b:	c9                   	leave
    1f6c:	c3                   	ret

00001f6d <read>:
    1f6d:	55                   	push   %ebp
    1f6e:	89 e5                	mov    %esp,%ebp
    1f70:	53                   	push   %ebx
    1f71:	e8 65 ef ff ff       	call   edb <__x86.get_pc_thunk.ax>
    1f76:	05 2e 16 00 00       	add    $0x162e,%eax
    1f7b:	8b 45 10             	mov    0x10(%ebp),%eax
    1f7e:	89 c2                	mov    %eax,%edx
    1f80:	8b 45 0c             	mov    0xc(%ebp),%eax
    1f83:	89 c1                	mov    %eax,%ecx
    1f85:	8b 45 08             	mov    0x8(%ebp),%eax
    1f88:	89 c3                	mov    %eax,%ebx
    1f8a:	b8 37 00 00 00       	mov    $0x37,%eax
    1f8f:	cd 80                	int    $0x80
    1f91:	8b 5d fc             	mov    -0x4(%ebp),%ebx
    1f94:	c9                   	leave
    1f95:	c3                   	ret

00001f96 <write>:
    1f96:	55                   	push   %ebp
    1f97:	89 e5                	mov    %esp,%ebp
    1f99:	53                   	push   %ebx
    1f9a:	e8 3c ef ff ff       	call   edb <__x86.get_pc_thunk.ax>
    1f9f:	05 05 16 00 00       	add    $0x1605,%eax
    1fa4:	8b 45 10             	mov    0x10(%ebp),%eax
    1fa7:	89 c2                	mov    %eax,%edx
    1fa9:	8b 45 0c             	mov    0xc(%ebp),%eax
    1fac:	89 c1                	mov    %eax,%ecx
    1fae:	8b 45 08             	mov    0x8(%ebp),%eax
    1fb1:	89 c3                	mov    %eax,%ebx
    1fb3:	b8 38 00 00 00       	mov    $0x38,%eax
    1fb8:	cd 80                	int    $0x80
    1fba:	8b 5d fc             	mov    -0x4(%ebp),%ebx
    1fbd:	c9                   	leave
    1fbe:	c3                   	ret

00001fbf <lseek>:
    1fbf:	55                   	push   %ebp
    1fc0:	89 e5                	mov    %esp,%ebp
    1fc2:	53                   	push   %ebx
    1fc3:	e8 13 ef ff ff       	call   edb <__x86.get_pc_thunk.ax>
    1fc8:	05 dc 15 00 00       	add    $0x15dc,%eax
    1fcd:	8b 45 10             	mov    0x10(%ebp),%eax
    1fd0:	89 c2                	mov    %eax,%edx
    1fd2:	8b 45 0c             	mov    0xc(%ebp),%eax
    1fd5:	89 c1                	mov    %eax,%ecx
    1fd7:	8b 45 08             	mov    0x8(%ebp),%eax
    1fda:	89 c3                	mov    %eax,%ebx
    1fdc:	b8 39 00 00 00       	mov    $0x39,%eax
    1fe1:	cd 80                	int    $0x80
    1fe3:	8b 5d fc             	mov    -0x4(%ebp),%ebx
    1fe6:	c9                   	leave
    1fe7:	c3                   	ret

00001fe8 <creat>:
    1fe8:	55                   	push   %ebp
    1fe9:	89 e5                	mov    %esp,%ebp
    1feb:	53                   	push   %ebx
    1fec:	e8 ea ee ff ff       	call   edb <__x86.get_pc_thunk.ax>
    1ff1:	05 b3 15 00 00       	add    $0x15b3,%eax
    1ff6:	8b 45 08             	mov    0x8(%ebp),%eax
    1ff9:	89 c3                	mov    %eax,%ebx
    1ffb:	b8 3a 00 00 00       	mov    $0x3a,%eax
    2000:	cd 80                	int    $0x80
    2002:	8b 5d fc             	mov    -0x4(%ebp),%ebx
    2005:	c9                   	leave
    2006:	c3                   	ret

00002007 <ftruncate>:
    2007:	55                   	push   %ebp
    2008:	89 e5                	mov    %esp,%ebp
    200a:	53                   	push   %ebx
    200b:	e8 cb ee ff ff       	call   edb <__x86.get_pc_thunk.ax>
    2010:	05 94 15 00 00       	add    $0x1594,%eax
    2015:	8b 4d 0c             	mov    0xc(%ebp),%ecx
    2018:	8b 45 08             	mov    0x8(%ebp),%eax
    201b:	89 c3                	mov    %eax,%ebx
    201d:	b8 3f 00 00 00       	mov    $0x3f,%eax
    2022:	cd 80                	int    $0x80
    2024:	8b 5d fc             	mov    -0x4(%ebp),%ebx
    2027:	c9                   	leave
    2028:	c3                   	ret

00002029 <memory_requestRegion>:
    2029:	55                   	push   %ebp
    202a:	89 e5                	mov    %esp,%ebp
    202c:	53                   	push   %ebx
    202d:	e8 a9 ee ff ff       	call   edb <__x86.get_pc_thunk.ax>
    2032:	05 72 15 00 00       	add    $0x1572,%eax
    2037:	8b 5d 08             	mov    0x8(%ebp),%ebx
    203a:	b8 20 00 00 00       	mov    $0x20,%eax
    203f:	cd 80                	int    $0x80
    2041:	8b 5d fc             	mov    -0x4(%ebp),%ebx
    2044:	c9                   	leave
    2045:	c3                   	ret

00002046 <memory_returnRegion>:
    2046:	55                   	push   %ebp
    2047:	89 e5                	mov    %esp,%ebp
    2049:	53                   	push   %ebx
    204a:	e8 8c ee ff ff       	call   edb <__x86.get_pc_thunk.ax>
    204f:	05 55 15 00 00       	add    $0x1555,%eax
    2054:	8b 4d 0c             	mov    0xc(%ebp),%ecx
    2057:	8b 45 08             	mov    0x8(%ebp),%eax
    205a:	89 c3                	mov    %eax,%ebx
    205c:	b8 2b 00 00 00       	mov    $0x2b,%eax
    2061:	cd 80                	int    $0x80
    2063:	90                   	nop
    2064:	8b 5d fc             	mov    -0x4(%ebp),%ebx
    2067:	c9                   	leave
    2068:	c3                   	ret

00002069 <getKernelFeature>:
    2069:	55                   	push   %ebp
    206a:	89 e5                	mov    %esp,%ebp
    206c:	53                   	push   %ebx
    206d:	83 ec 10             	sub    $0x10,%esp
    2070:	e8 66 ee ff ff       	call   edb <__x86.get_pc_thunk.ax>
    2075:	05 2f 15 00 00       	add    $0x152f,%eax
    207a:	8b 5d 0c             	mov    0xc(%ebp),%ebx
    207d:	b8 17 00 00 00       	mov    $0x17,%eax
    2082:	cd 80                	int    $0x80
    2084:	89 45 f8             	mov    %eax,-0x8(%ebp)
    2087:	89 5d f4             	mov    %ebx,-0xc(%ebp)
    208a:	8b 45 f8             	mov    -0x8(%ebp),%eax
    208d:	89 45 ec             	mov    %eax,-0x14(%ebp)
    2090:	8b 45 f4             	mov    -0xc(%ebp),%eax
    2093:	89 45 f0             	mov    %eax,-0x10(%ebp)
    2096:	8b 4d 08             	mov    0x8(%ebp),%ecx
    2099:	8b 45 ec             	mov    -0x14(%ebp),%eax
    209c:	8b 55 f0             	mov    -0x10(%ebp),%edx
    209f:	89 01                	mov    %eax,(%ecx)
    20a1:	89 51 04             	mov    %edx,0x4(%ecx)
    20a4:	8b 45 08             	mov    0x8(%ebp),%eax
    20a7:	8b 5d fc             	mov    -0x4(%ebp),%ebx
    20aa:	c9                   	leave
    20ab:	c2 04 00             	ret    $0x4

000020ae <exec>:
    20ae:	55                   	push   %ebp
    20af:	89 e5                	mov    %esp,%ebp
    20b1:	53                   	push   %ebx
    20b2:	e8 24 ee ff ff       	call   edb <__x86.get_pc_thunk.ax>
    20b7:	05 ed 14 00 00       	add    $0x14ed,%eax
    20bc:	8b 45 10             	mov    0x10(%ebp),%eax
    20bf:	89 c2                	mov    %eax,%edx
    20c1:	8b 45 0c             	mov    0xc(%ebp),%eax
    20c4:	89 c1                	mov    %eax,%ecx
    20c6:	8b 45 08             	mov    0x8(%ebp),%eax
    20c9:	89 c3                	mov    %eax,%ebx
    20cb:	b8 06 00 00 00       	mov    $0x6,%eax
    20d0:	cd 80                	int    $0x80
    20d2:	90                   	nop
    20d3:	8b 5d fc             	mov    -0x4(%ebp),%ebx
    20d6:	c9                   	leave
    20d7:	c3                   	ret

000020d8 <set_schedule>:
    20d8:	55                   	push   %ebp
    20d9:	89 e5                	mov    %esp,%ebp
    20db:	53                   	push   %ebx
    20dc:	e8 fa ed ff ff       	call   edb <__x86.get_pc_thunk.ax>
    20e1:	05 c3 14 00 00       	add    $0x14c3,%eax
    20e6:	8b 5d 08             	mov    0x8(%ebp),%ebx
    20e9:	b8 07 00 00 00       	mov    $0x7,%eax
    20ee:	cd 80                	int    $0x80
    20f0:	90                   	nop
    20f1:	8b 5d fc             	mov    -0x4(%ebp),%ebx
    20f4:	c9                   	leave
    20f5:	c3                   	ret

000020f6 <yield>:
    20f6:	55                   	push   %ebp
    20f7:	89 e5                	mov    %esp,%ebp
    20f9:	e8 dd ed ff ff       	call   edb <__x86.get_pc_thunk.ax>
    20fe:	05 a6 14 00 00       	add    $0x14a6,%eax
    2103:	b8 34 00 00 00       	mov    $0x34,%eax
    2108:	cd 80                	int    $0x80
    210a:	90                   	nop
    210b:	5d                   	pop    %ebp
    210c:	c3                   	ret

0000210d <task_lock>:
    210d:	55                   	push   %ebp
    210e:	89 e5                	mov    %esp,%ebp
    2110:	53                   	push   %ebx
    2111:	e8 c5 ed ff ff       	call   edb <__x86.get_pc_thunk.ax>
    2116:	05 8e 14 00 00       	add    $0x148e,%eax
    211b:	8b 45 08             	mov    0x8(%ebp),%eax
    211e:	89 c3                	mov    %eax,%ebx
    2120:	b8 32 00 00 00       	mov    $0x32,%eax
    2125:	cd 80                	int    $0x80
    2127:	90                   	nop
    2128:	8b 5d fc             	mov    -0x4(%ebp),%ebx
    212b:	c9                   	leave
    212c:	c3                   	ret

0000212d <manual_task>:
    212d:	55                   	push   %ebp
    212e:	89 e5                	mov    %esp,%ebp
    2130:	53                   	push   %ebx
    2131:	e8 a5 ed ff ff       	call   edb <__x86.get_pc_thunk.ax>
    2136:	05 6e 14 00 00       	add    $0x146e,%eax
    213b:	8b 45 0c             	mov    0xc(%ebp),%eax
    213e:	89 c1                	mov    %eax,%ecx
    2140:	8b 45 08             	mov    0x8(%ebp),%eax
    2143:	89 c3                	mov    %eax,%ebx
    2145:	b8 26 00 00 00       	mov    $0x26,%eax
    214a:	cd 80                	int    $0x80
    214c:	90                   	nop
    214d:	8b 5d fc             	mov    -0x4(%ebp),%ebx
    2150:	c9                   	leave
    2151:	c3                   	ret

00002152 <vp_init>:
    2152:	55                   	push   %ebp
    2153:	89 e5                	mov    %esp,%ebp
    2155:	53                   	push   %ebx
    2156:	83 ec 14             	sub    $0x14,%esp
    2159:	e8 81 ed ff ff       	call   edf <__x86.get_pc_thunk.bx>
    215e:	81 c3 46 14 00 00    	add    $0x1446,%ebx
    2164:	83 ec 08             	sub    $0x8,%esp
    2167:	6a 01                	push   $0x1
    2169:	8d 83 dc ef ff ff    	lea    -0x1024(%ebx),%eax
    216f:	50                   	push   %eax
    2170:	e8 b4 fd ff ff       	call   1f29 <open>
    2175:	83 c4 10             	add    $0x10,%esp
    2178:	89 45 f4             	mov    %eax,-0xc(%ebp)
    217b:	83 7d f4 ff          	cmpl   $0xffffffff,-0xc(%ebp)
    217f:	74 23                	je     21a4 <vp_init+0x52>
    2181:	83 ec 04             	sub    $0x4,%esp
    2184:	6a 1c                	push   $0x1c
    2186:	c7 c0 f8 35 00 00    	mov    $0x35f8,%eax
    218c:	50                   	push   %eax
    218d:	ff 75 f4             	push   -0xc(%ebp)
    2190:	e8 d8 fd ff ff       	call   1f6d <read>
    2195:	83 c4 10             	add    $0x10,%esp
    2198:	c7 c0 14 36 00 00    	mov    $0x3614,%eax
    219e:	c7 00 01 00 00 00    	movl   $0x1,(%eax)
    21a4:	83 ec 0c             	sub    $0xc,%esp
    21a7:	ff 75 f4             	push   -0xc(%ebp)
    21aa:	e8 9e fd ff ff       	call   1f4d <close>
    21af:	83 c4 10             	add    $0x10,%esp
    21b2:	90                   	nop
    21b3:	8b 5d fc             	mov    -0x4(%ebp),%ebx
    21b6:	c9                   	leave
    21b7:	c3                   	ret

000021b8 <vp_open>:
    21b8:	55                   	push   %ebp
    21b9:	89 e5                	mov    %esp,%ebp
    21bb:	53                   	push   %ebx
    21bc:	83 ec 04             	sub    $0x4,%esp
    21bf:	e8 1b ed ff ff       	call   edf <__x86.get_pc_thunk.bx>
    21c4:	81 c3 e0 13 00 00    	add    $0x13e0,%ebx
    21ca:	c7 c0 14 36 00 00    	mov    $0x3614,%eax
    21d0:	8b 00                	mov    (%eax),%eax
    21d2:	85 c0                	test   %eax,%eax
    21d4:	75 05                	jne    21db <vp_open+0x23>
    21d6:	e8 77 ff ff ff       	call   2152 <vp_init>
    21db:	c7 c0 f8 35 00 00    	mov    $0x35f8,%eax
    21e1:	8b 00                	mov    (%eax),%eax
    21e3:	83 ec 04             	sub    $0x4,%esp
    21e6:	ff 75 10             	push   0x10(%ebp)
    21e9:	ff 75 0c             	push   0xc(%ebp)
    21ec:	ff 75 08             	push   0x8(%ebp)
    21ef:	ff d0                	call   *%eax
    21f1:	83 c4 10             	add    $0x10,%esp
    21f4:	8b 5d fc             	mov    -0x4(%ebp),%ebx
    21f7:	c9                   	leave
    21f8:	c3                   	ret

000021f9 <vp_close>:
    21f9:	55                   	push   %ebp
    21fa:	89 e5                	mov    %esp,%ebp
    21fc:	53                   	push   %ebx
    21fd:	83 ec 04             	sub    $0x4,%esp
    2200:	e8 da ec ff ff       	call   edf <__x86.get_pc_thunk.bx>
    2205:	81 c3 9f 13 00 00    	add    $0x139f,%ebx
    220b:	c7 c0 14 36 00 00    	mov    $0x3614,%eax
    2211:	8b 00                	mov    (%eax),%eax
    2213:	85 c0                	test   %eax,%eax
    2215:	75 05                	jne    221c <vp_close+0x23>
    2217:	e8 36 ff ff ff       	call   2152 <vp_init>
    221c:	c7 c0 f8 35 00 00    	mov    $0x35f8,%eax
    2222:	8b 40 04             	mov    0x4(%eax),%eax
    2225:	83 ec 0c             	sub    $0xc,%esp
    2228:	ff 75 08             	push   0x8(%ebp)
    222b:	ff d0                	call   *%eax
    222d:	83 c4 10             	add    $0x10,%esp
    2230:	90                   	nop
    2231:	8b 5d fc             	mov    -0x4(%ebp),%ebx
    2234:	c9                   	leave
    2235:	c3                   	ret

00002236 <vp_set_buffer>:
    2236:	55                   	push   %ebp
    2237:	89 e5                	mov    %esp,%ebp
    2239:	53                   	push   %ebx
    223a:	83 ec 04             	sub    $0x4,%esp
    223d:	e8 9d ec ff ff       	call   edf <__x86.get_pc_thunk.bx>
    2242:	81 c3 62 13 00 00    	add    $0x1362,%ebx
    2248:	c7 c0 14 36 00 00    	mov    $0x3614,%eax
    224e:	8b 00                	mov    (%eax),%eax
    2250:	85 c0                	test   %eax,%eax
    2252:	75 05                	jne    2259 <vp_set_buffer+0x23>
    2254:	e8 f9 fe ff ff       	call   2152 <vp_init>
    2259:	c7 c0 f8 35 00 00    	mov    $0x35f8,%eax
    225f:	8b 40 08             	mov    0x8(%eax),%eax
    2262:	83 ec 04             	sub    $0x4,%esp
    2265:	ff 75 10             	push   0x10(%ebp)
    2268:	ff 75 0c             	push   0xc(%ebp)
    226b:	ff 75 08             	push   0x8(%ebp)
    226e:	ff d0                	call   *%eax
    2270:	83 c4 10             	add    $0x10,%esp
    2273:	90                   	nop
    2274:	8b 5d fc             	mov    -0x4(%ebp),%ebx
    2277:	c9                   	leave
    2278:	c3                   	ret

00002279 <vp_copy>:
    2279:	55                   	push   %ebp
    227a:	89 e5                	mov    %esp,%ebp
    227c:	53                   	push   %ebx
    227d:	83 ec 04             	sub    $0x4,%esp
    2280:	e8 5a ec ff ff       	call   edf <__x86.get_pc_thunk.bx>
    2285:	81 c3 1f 13 00 00    	add    $0x131f,%ebx
    228b:	c7 c0 14 36 00 00    	mov    $0x3614,%eax
    2291:	8b 00                	mov    (%eax),%eax
    2293:	85 c0                	test   %eax,%eax
    2295:	75 05                	jne    229c <vp_copy+0x23>
    2297:	e8 b6 fe ff ff       	call   2152 <vp_init>
    229c:	c7 c0 f8 35 00 00    	mov    $0x35f8,%eax
    22a2:	8b 40 0c             	mov    0xc(%eax),%eax
    22a5:	83 ec 0c             	sub    $0xc,%esp
    22a8:	ff 75 08             	push   0x8(%ebp)
    22ab:	ff d0                	call   *%eax
    22ad:	83 c4 10             	add    $0x10,%esp
    22b0:	90                   	nop
    22b1:	8b 5d fc             	mov    -0x4(%ebp),%ebx
    22b4:	c9                   	leave
    22b5:	c3                   	ret

000022b6 <vp_add_event_handler>:
    22b6:	55                   	push   %ebp
    22b7:	89 e5                	mov    %esp,%ebp
    22b9:	53                   	push   %ebx
    22ba:	83 ec 04             	sub    $0x4,%esp
    22bd:	e8 1d ec ff ff       	call   edf <__x86.get_pc_thunk.bx>
    22c2:	81 c3 e2 12 00 00    	add    $0x12e2,%ebx
    22c8:	c7 c0 14 36 00 00    	mov    $0x3614,%eax
    22ce:	8b 00                	mov    (%eax),%eax
    22d0:	85 c0                	test   %eax,%eax
    22d2:	75 05                	jne    22d9 <vp_add_event_handler+0x23>
    22d4:	e8 79 fe ff ff       	call   2152 <vp_init>
    22d9:	c7 c0 f8 35 00 00    	mov    $0x35f8,%eax
    22df:	8b 40 10             	mov    0x10(%eax),%eax
    22e2:	83 ec 08             	sub    $0x8,%esp
    22e5:	ff 75 0c             	push   0xc(%ebp)
    22e8:	ff 75 08             	push   0x8(%ebp)
    22eb:	ff d0                	call   *%eax
    22ed:	83 c4 10             	add    $0x10,%esp
    22f0:	90                   	nop
    22f1:	8b 5d fc             	mov    -0x4(%ebp),%ebx
    22f4:	c9                   	leave
    22f5:	c3                   	ret

000022f6 <vp_drawChar>:
    22f6:	55                   	push   %ebp
    22f7:	89 e5                	mov    %esp,%ebp
    22f9:	53                   	push   %ebx
    22fa:	83 ec 14             	sub    $0x14,%esp
    22fd:	e8 dd eb ff ff       	call   edf <__x86.get_pc_thunk.bx>
    2302:	81 c3 a2 12 00 00    	add    $0x12a2,%ebx
    2308:	8b 45 14             	mov    0x14(%ebp),%eax
    230b:	88 45 f4             	mov    %al,-0xc(%ebp)
    230e:	c7 c0 14 36 00 00    	mov    $0x3614,%eax
    2314:	8b 00                	mov    (%eax),%eax
    2316:	85 c0                	test   %eax,%eax
    2318:	75 05                	jne    231f <vp_drawChar+0x29>
    231a:	e8 33 fe ff ff       	call   2152 <vp_init>
    231f:	c7 c0 f8 35 00 00    	mov    $0x35f8,%eax
    2325:	8b 40 14             	mov    0x14(%eax),%eax
    2328:	0f be 55 f4          	movsbl -0xc(%ebp),%edx
    232c:	83 ec 08             	sub    $0x8,%esp
    232f:	ff 75 1c             	push   0x1c(%ebp)
    2332:	ff 75 18             	push   0x18(%ebp)
    2335:	52                   	push   %edx
    2336:	ff 75 10             	push   0x10(%ebp)
    2339:	ff 75 0c             	push   0xc(%ebp)
    233c:	ff 75 08             	push   0x8(%ebp)
    233f:	ff d0                	call   *%eax
    2341:	83 c4 20             	add    $0x20,%esp
    2344:	90                   	nop
    2345:	8b 5d fc             	mov    -0x4(%ebp),%ebx
    2348:	c9                   	leave
    2349:	c3                   	ret

0000234a <vp_getc>:
    234a:	55                   	push   %ebp
    234b:	89 e5                	mov    %esp,%ebp
    234d:	53                   	push   %ebx
    234e:	83 ec 04             	sub    $0x4,%esp
    2351:	e8 89 eb ff ff       	call   edf <__x86.get_pc_thunk.bx>
    2356:	81 c3 4e 12 00 00    	add    $0x124e,%ebx
    235c:	c7 c0 14 36 00 00    	mov    $0x3614,%eax
    2362:	8b 00                	mov    (%eax),%eax
    2364:	85 c0                	test   %eax,%eax
    2366:	75 05                	jne    236d <vp_getc+0x23>
    2368:	e8 e5 fd ff ff       	call   2152 <vp_init>
    236d:	c7 c0 f8 35 00 00    	mov    $0x35f8,%eax
    2373:	8b 40 18             	mov    0x18(%eax),%eax
    2376:	83 ec 0c             	sub    $0xc,%esp
    2379:	ff 75 08             	push   0x8(%ebp)
    237c:	ff d0                	call   *%eax
    237e:	83 c4 10             	add    $0x10,%esp
    2381:	90                   	nop
    2382:	8b 5d fc             	mov    -0x4(%ebp),%ebx
    2385:	c9                   	leave
    2386:	c3                   	ret

00002387 <isdigit>:
    2387:	55                   	push   %ebp
    2388:	89 e5                	mov    %esp,%ebp
    238a:	e8 4c eb ff ff       	call   edb <__x86.get_pc_thunk.ax>
    238f:	05 15 12 00 00       	add    $0x1215,%eax
    2394:	83 7d 08 39          	cmpl   $0x39,0x8(%ebp)
    2398:	7f 0d                	jg     23a7 <isdigit+0x20>
    239a:	83 7d 08 2f          	cmpl   $0x2f,0x8(%ebp)
    239e:	7e 07                	jle    23a7 <isdigit+0x20>
    23a0:	b8 01 00 00 00       	mov    $0x1,%eax
    23a5:	eb 05                	jmp    23ac <isdigit+0x25>
    23a7:	b8 00 00 00 00       	mov    $0x0,%eax
    23ac:	5d                   	pop    %ebp
    23ad:	c3                   	ret

000023ae <isalpha>:
    23ae:	55                   	push   %ebp
    23af:	89 e5                	mov    %esp,%ebp
    23b1:	e8 25 eb ff ff       	call   edb <__x86.get_pc_thunk.ax>
    23b6:	05 ee 11 00 00       	add    $0x11ee,%eax
    23bb:	83 7d 08 40          	cmpl   $0x40,0x8(%ebp)
    23bf:	7e 06                	jle    23c7 <isalpha+0x19>
    23c1:	83 7d 08 5a          	cmpl   $0x5a,0x8(%ebp)
    23c5:	7e 0c                	jle    23d3 <isalpha+0x25>
    23c7:	83 7d 08 60          	cmpl   $0x60,0x8(%ebp)
    23cb:	7e 0d                	jle    23da <isalpha+0x2c>
    23cd:	83 7d 08 7a          	cmpl   $0x7a,0x8(%ebp)
    23d1:	7f 07                	jg     23da <isalpha+0x2c>
    23d3:	b8 01 00 00 00       	mov    $0x1,%eax
    23d8:	eb 05                	jmp    23df <isalpha+0x31>
    23da:	b8 00 00 00 00       	mov    $0x0,%eax
    23df:	5d                   	pop    %ebp
    23e0:	c3                   	ret

000023e1 <isupper>:
    23e1:	55                   	push   %ebp
    23e2:	89 e5                	mov    %esp,%ebp
    23e4:	e8 f2 ea ff ff       	call   edb <__x86.get_pc_thunk.ax>
    23e9:	05 bb 11 00 00       	add    $0x11bb,%eax
    23ee:	83 7d 08 40          	cmpl   $0x40,0x8(%ebp)
    23f2:	7e 0d                	jle    2401 <isupper+0x20>
    23f4:	83 7d 08 5a          	cmpl   $0x5a,0x8(%ebp)
    23f8:	7f 07                	jg     2401 <isupper+0x20>
    23fa:	b8 01 00 00 00       	mov    $0x1,%eax
    23ff:	eb 05                	jmp    2406 <isupper+0x25>
    2401:	b8 00 00 00 00       	mov    $0x0,%eax
    2406:	5d                   	pop    %ebp
    2407:	c3                   	ret

00002408 <tolower>:
    2408:	55                   	push   %ebp
    2409:	89 e5                	mov    %esp,%ebp
    240b:	e8 cb ea ff ff       	call   edb <__x86.get_pc_thunk.ax>
    2410:	05 94 11 00 00       	add    $0x1194,%eax
    2415:	83 7d 08 40          	cmpl   $0x40,0x8(%ebp)
    2419:	7e 0e                	jle    2429 <tolower+0x21>
    241b:	83 7d 08 5a          	cmpl   $0x5a,0x8(%ebp)
    241f:	7f 08                	jg     2429 <tolower+0x21>
    2421:	8b 45 08             	mov    0x8(%ebp),%eax
    2424:	83 e8 41             	sub    $0x41,%eax
    2427:	eb 03                	jmp    242c <tolower+0x24>
    2429:	8b 45 08             	mov    0x8(%ebp),%eax
    242c:	5d                   	pop    %ebp
    242d:	c3                   	ret

0000242e <toupper>:
    242e:	55                   	push   %ebp
    242f:	89 e5                	mov    %esp,%ebp
    2431:	e8 a5 ea ff ff       	call   edb <__x86.get_pc_thunk.ax>
    2436:	05 6e 11 00 00       	add    $0x116e,%eax
    243b:	83 7d 08 60          	cmpl   $0x60,0x8(%ebp)
    243f:	7e 0e                	jle    244f <toupper+0x21>
    2441:	83 7d 08 7a          	cmpl   $0x7a,0x8(%ebp)
    2445:	7f 08                	jg     244f <toupper+0x21>
    2447:	8b 45 08             	mov    0x8(%ebp),%eax
    244a:	83 e8 20             	sub    $0x20,%eax
    244d:	eb 03                	jmp    2452 <toupper+0x24>
    244f:	8b 45 08             	mov    0x8(%ebp),%eax
    2452:	5d                   	pop    %ebp
    2453:	c3                   	ret

00002454 <__do_global_ctors_aux>:
    2454:	a1 94 35 00 00       	mov    0x3594,%eax
    2459:	83 f8 ff             	cmp    $0xffffffff,%eax
    245c:	74 1e                	je     247c <__do_global_ctors_aux+0x28>
    245e:	55                   	push   %ebp
    245f:	89 e5                	mov    %esp,%ebp
    2461:	53                   	push   %ebx
    2462:	52                   	push   %edx
    2463:	bb 94 35 00 00       	mov    $0x3594,%ebx
    2468:	ff d0                	call   *%eax
    246a:	83 eb 04             	sub    $0x4,%ebx
    246d:	8b 03                	mov    (%ebx),%eax
    246f:	83 f8 ff             	cmp    $0xffffffff,%eax
    2472:	75 f4                	jne    2468 <__do_global_ctors_aux+0x14>
    2474:	8b 5d fc             	mov    -0x4(%ebp),%ebx
    2477:	c9                   	leave
    2478:	c3                   	ret
    2479:	8d 76 00             	lea    0x0(%esi),%esi
    247c:	c3                   	ret

Disassembly of section .fini:

0000247d <_fini>:
    247d:	e8 9a dc ff ff       	call   11c <__do_global_dtors_aux>
    2482:	c2 00 00             	ret    $0x0

Disassembly of section .rodata:

00002488 <.rodata>:
    2488:	46                   	inc    %esi
    2489:	69 62 6f 6e 61 63 63 	imul   $0x6363616e,0x6f(%edx),%esp
    2490:	69 20 53 65 72 69    	imul   $0x69726553,(%eax),%esp
    2496:	65 73 3a             	gs jae 24d3 <_fini+0x56>
    2499:	20 25 64 2c 20 25    	and    %ah,0x25202c64
    249f:	64 2c 20             	fs sub $0x20,%al
    24a2:	00 25 64 2c 20 00    	add    %ah,0x202c64
    24a8:	5b                   	pop    %ebx
    24a9:	53                   	push   %ebx
    24aa:	45                   	inc    %ebp
    24ab:	52                   	push   %edx
    24ac:	56                   	push   %esi
    24ad:	49                   	dec    %ecx
    24ae:	43                   	inc    %ebx
    24af:	45                   	inc    %ebp
    24b0:	5d                   	pop    %ebp
    24b1:	20 41 4c             	and    %al,0x4c(%ecx)
    24b4:	45                   	inc    %ebp
    24b5:	52                   	push   %edx
    24b6:	54                   	push   %esp
    24b7:	3a 20                	cmp    (%eax),%ah
    24b9:	46                   	inc    %esi
    24ba:	69 6c 65 20 77 61 73 	imul   $0x20736177,0x20(%ebp,%eiz,2),%ebp
    24c1:	20 
    24c2:	72 65                	jb     2529 <_fini+0xac>
    24c4:	61                   	popa
    24c5:	64 21 0a             	and    %ecx,%fs:(%edx)
    24c8:	00 52 65             	add    %dl,0x65(%edx)
    24cb:	61                   	popa
    24cc:	64 20 25 64 20 74 69 	and    %ah,%fs:0x69742064
    24d3:	6d                   	insl   (%dx),%es:(%edi)
    24d4:	65 73 21             	gs jae 24f8 <_fini+0x7b>
    24d7:	00 48 65             	add    %cl,0x65(%eax)
    24da:	6c                   	insb   (%dx),%es:(%edi)
    24db:	6c                   	insb   (%dx),%es:(%edi)
    24dc:	6f                   	outsl  %ds:(%esi),(%dx)
    24dd:	20 66 72             	and    %ah,0x72(%esi)
    24e0:	6f                   	outsl  %ds:(%esi),(%dx)
    24e1:	6d                   	insl   (%dx),%es:(%edi)
    24e2:	20 53 65             	and    %dl,0x65(%ebx)
    24e5:	72 76                	jb     255d <_fini+0xe0>
    24e7:	69 63 65 21 20 46 69 	imul   $0x69462021,0x65(%ebx),%esp
    24ee:	62 20                	bound  %esp,(%eax)
    24f0:	69 73 20 61 74 20 30 	imul   $0x30207461,0x20(%ebx),%esi
    24f7:	78 25                	js     251e <_fini+0xa1>
    24f9:	78 0a                	js     2505 <_fini+0x88>
    24fb:	00 77 00             	add    %dh,0x0(%edi)
    24fe:	2f                   	das
    24ff:	2d 2f 64 65 76       	sub    $0x7665642f,%eax
    2504:	2f                   	das
    2505:	73 65                	jae    256c <_fini+0xef>
    2507:	72 69                	jb     2572 <_fini+0xf5>
    2509:	61                   	popa
    250a:	6c                   	insb   (%dx),%es:(%edi)
    250b:	00 72 00             	add    %dh,0x0(%edx)
    250e:	2f                   	das
    250f:	2d 2f 66 73 43       	sub    $0x4373662f,%eax
    2514:	54                   	push   %esp
    2515:	52                   	push   %edx
    2516:	4c                   	dec    %esp
    2517:	00 43 61             	add    %al,0x61(%ebx)
    251a:	6e                   	outsb  %ds:(%esi),(%dx)
    251b:	6e                   	outsb  %ds:(%esi),(%dx)
    251c:	6f                   	outsl  %ds:(%esi),(%dx)
    251d:	74 20                	je     253f <_fini+0xc2>
    251f:	6f                   	outsl  %ds:(%esi),(%dx)
    2520:	70 65                	jo     2587 <_fini+0x10a>
    2522:	6e                   	outsb  %ds:(%esi),(%dx)
    2523:	20 66 69             	and    %ah,0x69(%esi)
    2526:	6c                   	insb   (%dx),%es:(%edi)
    2527:	65 21 00             	and    %eax,%gs:(%eax)
    252a:	53                   	push   %ebx
    252b:	65 72 76             	gs jb  25a4 <__EH_FRAME_BEGIN__+0x14>
    252e:	00 66 69             	add    %ah,0x69(%esi)
    2531:	6c                   	insb   (%dx),%es:(%edi)
    2532:	65 00 2f             	add    %ch,%gs:(%edi)
    2535:	2d 2f 64 65 76       	sub    $0x7665642f,%eax
    253a:	2f                   	das
    253b:	63 6f 6e             	arpl   %ebp,0x6e(%edi)
    253e:	73 6f                	jae    25af <__EH_FRAME_BEGIN__+0x1f>
    2540:	6c                   	insb   (%dx),%es:(%edi)
    2541:	65 00 25 00 0a 00 66 	add    %ah,%gs:0x66000a00
    2548:	6f                   	outsl  %ds:(%esi),(%dx)
    2549:	70 65                	jo     25b0 <__EH_FRAME_BEGIN__+0x20>
    254b:	6e                   	outsb  %ds:(%esi),(%dx)
    254c:	20 66 61             	and    %ah,0x61(%esi)
    254f:	69 6c 0a 00 00 00 00 	imul   $0x0,0x0(%edx,%ecx,1),%ebp
    2556:	00 
    2557:	00 41 6c             	add    %al,0x6c(%ecx)
    255a:	6c                   	insb   (%dx),%es:(%edi)
    255b:	6f                   	outsl  %ds:(%esi),(%dx)
    255c:	63 20                	arpl   %esp,(%eax)
    255e:	45                   	inc    %ebp
    255f:	72 72                	jb     25d3 <__EH_FRAME_BEGIN__+0x43>
    2561:	6f                   	outsl  %ds:(%esi),(%dx)
    2562:	72 20                	jb     2584 <_fini+0x107>
    2564:	4f                   	dec    %edi
    2565:	75 74                	jne    25db <__EH_FRAME_BEGIN__+0x4b>
    2567:	20 6f 66             	and    %ch,0x66(%edi)
    256a:	20 4d 65             	and    %cl,0x65(%ebp)
    256d:	6d                   	insl   (%dx),%es:(%edi)
    256e:	6f                   	outsl  %ds:(%esi),(%dx)
    256f:	72 79                	jb     25ea <__EH_FRAME_BEGIN__+0x5a>
    2571:	21 0a                	and    %ecx,(%edx)
    2573:	00 00                	add    %al,(%eax)
    2575:	00 20                	add    %ah,(%eax)
    2577:	41                   	inc    %ecx
    2578:	00 00                	add    %al,(%eax)
    257a:	00 00                	add    %al,(%eax)
    257c:	00 00                	add    %al,(%eax)
    257e:	24 40                	and    $0x40,%al
    2580:	2f                   	das
    2581:	2d 2f 73 79 73       	sub    $0x7379732f,%eax
    2586:	2f                   	das
    2587:	76 69                	jbe    25f2 <__EH_FRAME_BEGIN__+0x62>
    2589:	65 77 70             	gs ja  25fc <__EH_FRAME_BEGIN__+0x6c>
    258c:	6f                   	outsl  %ds:(%esi),(%dx)
    258d:	72 74                	jb     2603 <__EH_FRAME_BEGIN__+0x73>
	...

Disassembly of section .eh_frame:

00002590 <__EH_FRAME_BEGIN__>:
    2590:	00 00                	add    %al,(%eax)
	...

Disassembly of section .ctors:

00003594 <__CTOR_LIST__>:
    3594:	ff                   	(bad)
    3595:	ff                   	(bad)
    3596:	ff                   	(bad)
    3597:	ff                 	incl   (%eax)

00003598 <__CTOR_END__>:
    3598:	00 00                	add    %al,(%eax)
	...

Disassembly of section .dtors:

0000359c <__DTOR_LIST__>:
    359c:	ff                   	(bad)
    359d:	ff                   	(bad)
    359e:	ff                   	(bad)
    359f:	ff                 	incl   (%eax)

000035a0 <__DTOR_END__>:
    35a0:	00 00                	add    %al,(%eax)
	...

Disassembly of section .got.plt:

000035a4 <_GLOBAL_OFFSET_TABLE_>:
	...

Disassembly of section .data:

000035b0 <__dso_handle>:
    35b0:	00 00                	add    %al,(%eax)
	...

Disassembly of section .comment:

00000000 <.comment>:
   0:	47                   	inc    %edi
   1:	43                   	inc    %ebx
   2:	43                   	inc    %ebx
   3:	3a 20                	cmp    (%eax),%ah
   5:	28 47 4e             	sub    %al,0x4e(%edi)
   8:	55                   	push   %ebp
   9:	29 20                	sub    %esp,(%eax)
   b:	31 34 2e             	xor    %esi,(%esi,%ebp,1)
   e:	32 2e                	xor    (%esi),%ch
  10:	30 00                	xor    %al,(%eax)
  12:	47                   	inc    %edi
  13:	4e                   	dec    %esi
  14:	55                   	push   %ebp
  15:	20 43 20             	and    %al,0x20(%ebx)
  18:	63 72 74             	arpl   %esi,0x74(%edx)
  1b:	69 2e 73 00 47 4e    	imul   $0x4e470073,(%esi),%ebp
  21:	55                   	push   %ebp
  22:	20 43 20             	and    %al,0x20(%ebx)
  25:	63 72 74             	arpl   %esi,0x74(%edx)
  28:	6e                   	outsb  %ds:(%esi),(%dx)
  29:	2e 6f                	outsl  %cs:(%esi),(%dx)
	...

Disassembly of section .debug_aranges:

00000000 <.debug_aranges>:
   0:	1c 00                	sbb    $0x0,%al
   2:	00 00                	add    %al,(%eax)
   4:	02 00                	add    (%eax),%al
   6:	00 00                	add    %al,(%eax)
   8:	00 00                	add    %al,(%eax)
   a:	04 00                	add    $0x0,%al
   c:	00 00                	add    %al,(%eax)
   e:	00 00                	add    %al,(%eax)
  10:	4d                   	dec    %ebp
  11:	04 00                	add    $0x0,%al
  13:	00 8e 0a 00 00 00    	add    %cl,0xa(%esi)
  19:	00 00                	add    %al,(%eax)
  1b:	00 00                	add    %al,(%eax)
  1d:	00 00                	add    %al,(%eax)
  1f:	00 1c 00             	add    %bl,(%eax,%eax,1)
  22:	00 00                	add    %al,(%eax)
  24:	02 00                	add    (%eax),%al
  26:	68 08 00 00 04       	push   $0x4000008
  2b:	00 00                	add    %al,(%eax)
  2d:	00 00                	add    %al,(%eax)
  2f:	00 e3                	add    %ah,%bl
  31:	0e                   	push   %cs
  32:	00 00                	add    %al,(%eax)
  34:	13 06                	adc    (%esi),%eax
	...
  3e:	00 00                	add    %al,(%eax)
  40:	1c 00                	sbb    $0x0,%al
  42:	00 00                	add    %al,(%eax)
  44:	02 00                	add    (%eax),%al
  46:	40                   	inc    %eax
  47:	0d 00 00 04 00       	or     $0x40000,%eax
  4c:	00 00                	add    %al,(%eax)
  4e:	00 00                	add    %al,(%eax)
  50:	f6 14 00             	notb   (%eax,%eax,1)
  53:	00 33                	add    %dh,(%ebx)
  55:	0a 00                	or     (%eax),%al
	...
  5f:	00 1c 00             	add    %bl,(%eax,%eax,1)
  62:	00 00                	add    %al,(%eax)
  64:	02 00                	add    (%eax),%al
  66:	88 14 00             	mov    %dl,(%eax,%eax,1)
  69:	00 04 00             	add    %al,(%eax,%eax,1)
  6c:	00 00                	add    %al,(%eax)
  6e:	00 00                	add    %al,(%eax)
  70:	29 1f                	sub    %ebx,(%edi)
  72:	00 00                	add    %al,(%eax)
  74:	00 01                	add    %al,(%ecx)
	...
  7e:	00 00                	add    %al,(%eax)
  80:	1c 00                	sbb    $0x0,%al
  82:	00 00                	add    %al,(%eax)
  84:	02 00                	add    (%eax),%al
  86:	d1 17                	rcll   $1,(%edi)
  88:	00 00                	add    %al,(%eax)
  8a:	04 00                	add    $0x0,%al
  8c:	00 00                	add    %al,(%eax)
  8e:	00 00                	add    %al,(%eax)
  90:	29 20                	sub    %esp,(%eax)
  92:	00 00                	add    %al,(%eax)
  94:	85 00                	test   %eax,(%eax)
	...
  9e:	00 00                	add    %al,(%eax)
  a0:	1c 00                	sbb    $0x0,%al
  a2:	00 00                	add    %al,(%eax)
  a4:	02 00                	add    (%eax),%al
  a6:	bc 19 00 00 04       	mov    $0x4000019,%esp
  ab:	00 00                	add    %al,(%eax)
  ad:	00 00                	add    %al,(%eax)
  af:	00 ae 20 00 00 a4    	add    %ch,-0x5bffffe0(%esi)
	...
  bd:	00 00                	add    %al,(%eax)
  bf:	00 1c 00             	add    %bl,(%eax,%eax,1)
  c2:	00 00                	add    %al,(%eax)
  c4:	02 00                	add    (%eax),%al
  c6:	d1 1b                	rcrl   $1,(%ebx)
  c8:	00 00                	add    %al,(%eax)
  ca:	04 00                	add    $0x0,%al
  cc:	00 00                	add    %al,(%eax)
  ce:	00 00                	add    %al,(%eax)
  d0:	52                   	push   %edx
  d1:	21 00                	and    %eax,(%eax)
  d3:	00 35 02 00 00 00    	add    %dh,0x2
  d9:	00 00                	add    %al,(%eax)
  db:	00 00                	add    %al,(%eax)
  dd:	00 00                	add    %al,(%eax)
  df:	00 1c 00             	add    %bl,(%eax,%eax,1)
  e2:	00 00                	add    %al,(%eax)
  e4:	02 00                	add    (%eax),%al
  e6:	e7 20                	out    %eax,$0x20
  e8:	00 00                	add    %al,(%eax)
  ea:	04 00                	add    $0x0,%al
  ec:	00 00                	add    %al,(%eax)
  ee:	00 00                	add    %al,(%eax)
  f0:	87 23                	xchg   %esp,(%ebx)
  f2:	00 00                	add    %al,(%eax)
  f4:	cd 00                	int    $0x0
	...

Disassembly of section .debug_info:

00000000 <.debug_info>:
       0:	64 08 00             	or     %al,%fs:(%eax)
       3:	00 05 00 01 04 00    	add    %al,0x40100
       9:	00 00                	add    %al,(%eax)
       b:	00 12                	add    %dl,(%edx)
       d:	3a 01                	cmp    (%ecx),%al
       f:	00 00                	add    %al,(%eax)
      11:	1d 00 00 00 00       	sbb    $0x0,%eax
      16:	11 00                	adc    %eax,(%eax)
      18:	00 00                	add    %al,(%eax)
      1a:	4d                   	dec    %ebp
      1b:	04 00                	add    $0x0,%al
      1d:	00 8e 0a 00 00 00    	add    %cl,0xa(%esi)
      23:	00 00                	add    %al,(%eax)
      25:	00 13                	add    %dl,(%ebx)
      27:	50                   	push   %eax
      28:	00 00                	add    %al,(%eax)
      2a:	00 08                	add    %cl,(%eax)
      2c:	07                   	pop    %es
      2d:	04 08                	add    $0x8,%al
      2f:	47                   	inc    %edi
      30:	00 00                	add    %al,(%eax)
      32:	00 14 f9             	add    %dl,(%ecx,%edi,8)
      35:	00 00                	add    %al,(%eax)
      37:	00 07                	add    %al,(%edi)
      39:	07                   	pop    %es
      3a:	04 b3                	add    $0xb3,%al
      3c:	00 00                	add    %al,(%eax)
      3e:	00 00                	add    %al,(%eax)
      40:	15 c8 00 00 00       	adc    $0xc8,%eax
      45:	04 00                	add    $0x0,%al
      47:	16                   	push   %ss
      48:	18 01                	sbb    %al,(%ecx)
      4a:	00 00                	add    %al,(%eax)
      4c:	02 06                	add    (%esi),%al
      4e:	16                   	push   %ss
      4f:	53                   	push   %ebx
      50:	00 00                	add    %al,(%eax)
      52:	00 0a                	add    %cl,(%edx)
      54:	58                   	pop    %eax
      55:	00 00                	add    %al,(%eax)
      57:	00 0a                	add    %cl,(%edx)
      59:	26 00 00             	add    %al,%es:(%eax)
      5c:	00 0b                	add    %cl,(%ebx)
      5e:	50                   	push   %eax
      5f:	00 00                	add    %al,(%eax)
      61:	00 02                	add    %al,(%edx)
      63:	12 15 26 00 00 00    	adc    0x26,%dl
      69:	0b 07                	or     (%edi),%eax
      6b:	00 00                	add    %al,(%eax)
      6d:	00 02                	add    %al,(%edx)
      6f:	16                   	push   %ss
      70:	1b 75 00             	sbb    0x0(%ebp),%esi
      73:	00 00                	add    %al,(%eax)
      75:	09 04 07             	or     %eax,(%edi,%eax,1)
      78:	c6 03 00             	movb   $0x0,(%ebx)
      7b:	00 0b                	add    %cl,(%ebx)
      7d:	18 00                	sbb    %al,(%eax)
      7f:	00 00                	add    %al,(%eax)
      81:	03 04 1b             	add    (%ebx,%ebx,1),%eax
      84:	88 00                	mov    %al,(%eax)
      86:	00 00                	add    %al,(%eax)
      88:	17                   	pop    %ss
      89:	04 0e                	add    $0xe,%al
      8b:	00 00                	add    %al,(%eax)
      8d:	00 92 00 00 00 09    	add    %dl,0x9000000(%edx)
      93:	01 06                	add    %eax,(%esi)
      95:	ac                   	lods   %ds:(%esi),%al
      96:	03 00                	add    (%eax),%eax
      98:	00 18                	add    %bl,(%eax)
      9a:	92                   	xchg   %eax,%edx
      9b:	00 00                	add    %al,(%eax)
      9d:	00 09                	add    %cl,(%ecx)
      9f:	02 07                	add    (%edi),%al
      a1:	78 00                	js     a3 <_start+0x1f>
      a3:	00 00                	add    %al,(%eax)
      a5:	19 04 05 69 6e 74 00 	sbb    %eax,0x746e69(,%eax,1)
      ac:	09 04 07             	or     %eax,(%edi,%eax,1)
      af:	cb                   	lret
      b0:	03 00                	add    (%eax),%eax
      b2:	00 1a                	add    %bl,(%edx)
      b4:	07                   	pop    %es
      b5:	04 ac                	add    $0xac,%al
      b7:	00 00                	add    %al,(%eax)
      b9:	00 07                	add    %al,(%edi)
      bb:	05 07 c8 00 00       	add    $0xc807,%eax
      c0:	00 1b                	add    %bl,(%ebx)
      c2:	48                   	dec    %eax
      c3:	00 00                	add    %al,(%eax)
      c5:	00 00                	add    %al,(%eax)
      c7:	00 1c 04             	add    %bl,(%esp,%eax,1)
      ca:	07                   	pop    %es
      cb:	08 02                	or     %al,(%edx)
      cd:	dd 00                	fldl   (%eax)
      cf:	00 00                	add    %al,(%eax)
      d1:	1d 66 64 00 07       	sbb    $0x7006466,%eax
      d6:	09 07                	or     %eax,(%edi)
      d8:	a5                   	movsl  %ds:(%esi),%es:(%edi)
      d9:	00 00                	add    %al,(%eax)
      db:	00 00                	add    %al,(%eax)
      dd:	1e                   	push   %ds
      de:	47                   	inc    %edi
      df:	00 00                	add    %al,(%eax)
      e1:	00 01                	add    %al,(%ecx)
      e3:	08 0f                	or     %cl,(%edi)
      e5:	05 03 e0 35 00       	add    $0x35e003,%eax
      ea:	00 1f                	add    %bl,(%edi)
      ec:	62 00                	bound  %eax,(%eax)
      ee:	00 00                	add    %al,(%eax)
      f0:	01 09                	add    %ecx,(%ecx)
      f2:	05 a5 00 00 00       	add    $0xa5,%eax
      f7:	05 03 e4 35 00       	add    $0x35e403,%eax
      fc:	00 07                	add    %al,(%edi)
      fe:	2d 00 00 00 04       	sub    $0x4000000,%eax
     103:	10 05 a5 00 00 00    	adc    %al,0xa5
     109:	1d 01 00 00 03       	sbb    $0x3000001,%eax
     10e:	a5                   	movsl  %ds:(%esi),%es:(%edi)
     10f:	00 00                	add    %al,(%eax)
     111:	00 03                	add    %al,(%ebx)
     113:	a5                   	movsl  %ds:(%esi),%es:(%edi)
     114:	00 00                	add    %al,(%eax)
     116:	00 03                	add    %al,(%ebx)
     118:	a5                   	movsl  %ds:(%esi),%es:(%edi)
     119:	00 00                	add    %al,(%eax)
     11b:	00 00                	add    %al,(%eax)
     11d:	07                   	pop    %es
     11e:	df 00                	filds  (%eax)
     120:	00 00                	add    %al,(%eax)
     122:	04 09                	add    $0x9,%al
     124:	05 a5 00 00 00       	add    $0xa5,%eax
     129:	3d 01 00 00 03       	cmp    $0x3000001,%eax
     12e:	a5                   	movsl  %ds:(%esi),%es:(%edi)
     12f:	00 00                	add    %al,(%eax)
     131:	00 03                	add    %al,(%ebx)
     133:	3d 01 00 00 03       	cmp    $0x3000001,%eax
     138:	a5                   	movsl  %ds:(%esi),%es:(%edi)
     139:	00 00                	add    %al,(%eax)
     13b:	00 00                	add    %al,(%eax)
     13d:	20 04 07             	and    %al,(%edi,%eax,1)
     140:	8c 00                	mov    %es,(%eax)
     142:	00 00                	add    %al,(%eax)
     144:	04 0a                	add    $0xa,%al
     146:	05 a5 00 00 00       	add    $0xa5,%eax
     14b:	5f                   	pop    %edi
     14c:	01 00                	add    %eax,(%eax)
     14e:	00 03                	add    %al,(%ebx)
     150:	a5                   	movsl  %ds:(%esi),%es:(%edi)
     151:	00 00                	add    %al,(%eax)
     153:	00 03                	add    %al,(%ebx)
     155:	3d 01 00 00 03       	cmp    $0x3000001,%eax
     15a:	a5                   	movsl  %ds:(%esi),%es:(%edi)
     15b:	00 00                	add    %al,(%eax)
     15d:	00 00                	add    %al,(%eax)
     15f:	21 cc                	and    %ecx,%esp
     161:	06                   	push   %es
     162:	00 00                	add    %al,(%eax)
     164:	04 08                	add    $0x8,%al
     166:	06                   	push   %es
     167:	71 01                	jno    16a <__do_global_dtors_aux+0x4e>
     169:	00 00                	add    %al,(%eax)
     16b:	03 a5 00 00 00 00    	add    0x0(%ebp),%esp
     171:	07                   	pop    %es
     172:	55                   	push   %ebp
     173:	00 00                	add    %al,(%eax)
     175:	00 05 1d 08 69 00    	add    %al,0x69081d
     17b:	00 00                	add    %al,(%eax)
     17d:	87 01                	xchg   %eax,(%ecx)
     17f:	00 00                	add    %al,(%eax)
     181:	03 87 01 00 00 00    	add    0x1(%edi),%eax
     187:	0a 99 00 00 00 07    	or     0x7000000(%ecx),%bl
     18d:	73 00                	jae    18f <frame_dummy+0x3>
     18f:	00 00                	add    %al,(%eax)
     191:	06                   	push   %es
     192:	17                   	pop    %ss
     193:	07                   	pop    %es
     194:	ac                   	lods   %ds:(%esi),%al
     195:	01 00                	add    %eax,(%eax)
     197:	00 ac 01 00 00 03 a5 	add    %ch,-0x5afd0000(%ecx,%eax,1)
     19e:	00 00                	add    %al,(%eax)
     1a0:	00 03                	add    %al,(%ebx)
     1a2:	ac                   	lods   %ds:(%esi),%al
     1a3:	01 00                	add    %eax,(%eax)
     1a5:	00 03                	add    %al,(%ebx)
     1a7:	a5                   	movsl  %ds:(%esi),%es:(%edi)
     1a8:	00 00                	add    %al,(%eax)
     1aa:	00 00                	add    %al,(%eax)
     1ac:	0a 92 00 00 00 07    	or     0x7000000(%edx),%dl
     1b2:	c4 06                	les    (%esi),%eax
     1b4:	00 00                	add    %al,(%eax)
     1b6:	04 07                	add    $0x7,%al
     1b8:	05 a5 00 00 00       	add    $0xa5,%eax
     1bd:	cc                   	int3
     1be:	01 00                	add    %eax,(%eax)
     1c0:	00 03                	add    %al,(%ebx)
     1c2:	ac                   	lods   %ds:(%esi),%al
     1c3:	01 00                	add    %eax,(%eax)
     1c5:	00 03                	add    %al,(%ebx)
     1c7:	a5                   	movsl  %ds:(%esi),%es:(%edi)
     1c8:	00 00                	add    %al,(%eax)
     1ca:	00 00                	add    %al,(%eax)
     1cc:	07                   	pop    %es
     1cd:	ac                   	lods   %ds:(%esi),%al
     1ce:	00 00                	add    %al,(%eax)
     1d0:	00 05 15 07 3d 01    	add    %al,0x13d0715
     1d6:	00 00                	add    %al,(%eax)
     1d8:	ec                   	in     (%dx),%al
     1d9:	01 00                	add    %eax,(%eax)
     1db:	00 03                	add    %al,(%ebx)
     1dd:	3d 01 00 00 03       	cmp    $0x3000001,%eax
     1e2:	a5                   	movsl  %ds:(%esi),%es:(%edi)
     1e3:	00 00                	add    %al,(%eax)
     1e5:	00 03                	add    %al,(%ebx)
     1e7:	69 00 00 00 00 07    	imul   $0x7000000,(%eax),%eax
     1ed:	d8 01                	fadds  (%ecx)
     1ef:	00 00                	add    %al,(%eax)
     1f1:	06                   	push   %es
     1f2:	0e                   	push   %cs
     1f3:	07                   	pop    %es
     1f4:	3d 01 00 00 02       	cmp    $0x2000001,%eax
     1f9:	02 00                	add    (%eax),%al
     1fb:	00 03                	add    %al,(%ebx)
     1fd:	69 00 00 00 00 04    	imul   $0x4000000,(%eax),%eax
     203:	33 00                	xor    (%eax),%eax
     205:	00 00                	add    %al,(%eax)
     207:	da 05 a5 00 00 00    	fiaddl 0xa5
     20d:	bb 0c 00 00 20       	mov    $0x2000000c,%ebx
     212:	02 00                	add    (%eax),%al
     214:	00 01                	add    %al,(%ecx)
     216:	9c                   	pushf
     217:	28 03                	sub    %al,(%ebx)
     219:	00 00                	add    %al,(%eax)
     21b:	05 73 74 72 00       	add    $0x727473,%eax
     220:	da 14 ac             	ficoml (%esp,%ebp,4)
     223:	01 00                	add    %eax,(%eax)
     225:	00 02                	add    %al,(%edx)
     227:	91                   	xchg   %eax,%ecx
     228:	00 01                	add    %al,(%ecx)
     22a:	9a 05 00 00 da 20 69 	lcall  $0x6920,$0xda000005
     231:	00 00                	add    %al,(%eax)
     233:	00 02                	add    %al,(%edx)
     235:	91                   	xchg   %eax,%ecx
     236:	04 01                	add    $0x1,%al
     238:	d6                   	(bad)
     239:	00 00                	add    %al,(%eax)
     23b:	00 da                	add    %bl,%dl
     23d:	32 87 01 00 00 02    	xor    0x2000001(%edi),%al
     243:	91                   	xchg   %eax,%ecx
     244:	08 0c 06             	or     %cl,(%esi,%eax,1)
     247:	92                   	xchg   %eax,%edx
     248:	00 00                	add    %al,(%eax)
     24a:	00 db                	add    %bl,%bl
     24c:	0a 7c 00 00          	or     0x0(%eax,%eax,1),%bh
     250:	00 02                	add    %al,(%edx)
     252:	91                   	xchg   %eax,%ecx
     253:	40                   	inc    %eax
     254:	06                   	push   %es
     255:	28 00                	sub    %al,(%eax)
     257:	00 00                	add    %al,(%eax)
     259:	de 07                	fiadds (%edi)
     25b:	28 03                	sub    %al,(%ebx)
     25d:	00 00                	add    %al,(%eax)
     25f:	03 91 dc 7e 02 69    	add    0x69027edc(%ecx),%edx
     265:	64 78 00             	fs js  268 <read_notification+0x1d>
     268:	df 06                	filds  (%esi)
     26a:	a5                   	movsl  %ds:(%esi),%es:(%edi)
     26b:	00 00                	add    %al,(%eax)
     26d:	00 02                	add    %al,(%edx)
     26f:	91                   	xchg   %eax,%ecx
     270:	6c                   	insb   (%dx),%es:(%edi)
     271:	02 73 00             	add    0x0(%ebx),%dh
     274:	e0 08                	loopne 27e <read_notification+0x33>
     276:	ac                   	lods   %ds:(%esi),%al
     277:	01 00                	add    %eax,(%eax)
     279:	00 02                	add    %al,(%edx)
     27b:	91                   	xchg   %eax,%ecx
     27c:	54                   	push   %esp
     27d:	02 6e 00             	add    0x0(%esi),%ch
     280:	e1 09                	loope  28b <read_notification+0x40>
     282:	69 00 00 00 02 91    	imul   $0x91020000,(%eax),%eax
     288:	68 0d 0c 00 00       	push   $0xc0d
     28d:	00 b5 02 00 00 02    	add    %dh,0x2000002(%ebp)
     293:	6c                   	insb   (%dx),%es:(%edi)
     294:	00 ec                	add    %ch,%ah
     296:	0a a5 00 00 00 02    	or     0x2000000(%ebp),%ah
     29c:	91                   	xchg   %eax,%ecx
     29d:	4c                   	dec    %esp
     29e:	08 7d 0d             	or     %bh,0xd(%ebp)
     2a1:	00 00                	add    %al,(%eax)
     2a3:	40                   	inc    %eax
     2a4:	00 00                	add    %al,(%eax)
     2a6:	00 02                	add    %al,(%edx)
     2a8:	69 00 ed 0e a5 00    	imul   $0xa50eed,(%eax),%eax
     2ae:	00 00                	add    %al,(%eax)
     2b0:	02 91 64 00 00 0d    	add    0xd000064(%ecx),%dl
     2b6:	17                   	pop    %ss
     2b7:	00 00                	add    %al,(%eax)
     2b9:	00 ef                	add    %ch,%bh
     2bb:	02 00                	add    (%eax),%al
     2bd:	00 02                	add    %al,(%edx)
     2bf:	76 61                	jbe    322 <main+0x75>
     2c1:	6c                   	insb   (%dx),%es:(%edi)
     2c2:	00 f4                	add    %dh,%ah
     2c4:	0a a5 00 00 00 02    	or     0x2000000(%ebp),%ah
     2ca:	91                   	xchg   %eax,%ecx
     2cb:	48                   	dec    %eax
     2cc:	02 6c 00 f6          	add    -0xa(%eax,%eax,1),%ch
     2d0:	0a a5 00 00 00 02    	or     0x2000000(%ebp),%ah
     2d6:	91                   	xchg   %eax,%ecx
     2d7:	44                   	inc    %esp
     2d8:	08 fb                	or     %bh,%bl
     2da:	0d 00 00 40 00       	or     $0x400000,%eax
     2df:	00 00                	add    %al,(%eax)
     2e1:	02 69 00             	add    0x0(%ecx),%ch
     2e4:	f7 0e a5 00 00 00    	testl  $0xa5,(%esi)
     2ea:	02 91 60 00 00 22    	add    0x22000060(%ecx),%dl
     2f0:	22 00                	and    (%eax),%al
     2f2:	00 00                	add    %al,(%eax)
     2f4:	02 76 61             	add    0x61(%esi),%dh
     2f7:	6c                   	insb   (%dx),%es:(%edi)
     2f8:	00 fe                	add    %bh,%dh
     2fa:	0a a5 00 00 00 02    	or     0x2000000(%ebp),%ah
     300:	91                   	xchg   %eax,%ecx
     301:	58                   	pop    %eax
     302:	0e                   	push   %cs
     303:	6c                   	insb   (%dx),%es:(%edi)
     304:	00 00                	add    %al,(%eax)
     306:	01 0a                	add    %ecx,(%edx)
     308:	a5                   	movsl  %ds:(%esi),%es:(%edi)
     309:	00 00                	add    %al,(%eax)
     30b:	00 02                	add    %al,(%edx)
     30d:	91                   	xchg   %eax,%ecx
     30e:	50                   	push   %eax
     30f:	08 76 0e             	or     %dh,0xe(%esi)
     312:	00 00                	add    %al,(%eax)
     314:	3c 00                	cmp    $0x0,%al
     316:	00 00                	add    %al,(%eax)
     318:	0e                   	push   %cs
     319:	69 00 01 01 0e a5    	imul   $0xa50e0101,(%eax),%eax
     31f:	00 00                	add    %al,(%eax)
     321:	00 02                	add    %al,(%edx)
     323:	91                   	xchg   %eax,%ecx
     324:	5c                   	pop    %esp
     325:	00 00                	add    %al,(%eax)
     327:	00 0f                	add    %cl,(%edi)
     329:	92                   	xchg   %eax,%edx
     32a:	00 00                	add    %al,(%eax)
     32c:	00 38                	add    %bh,(%eax)
     32e:	03 00                	add    (%eax),%eax
     330:	00 10                	add    %dl,(%eax)
     332:	75 00                	jne    334 <main+0x87>
     334:	00 00                	add    %al,(%eax)
     336:	63 00                	arpl   %eax,(%eax)
     338:	04 99                	add    $0x99,%al
     33a:	00 00                	add    %al,(%eax)
     33c:	00 d6                	add    %dl,%dh
     33e:	05 a5 00 00 00       	add    $0xa5,%eax
     343:	87 0c 00             	xchg   %ecx,(%eax,%eax,1)
     346:	00 34 00             	add    %dh,(%eax,%eax,1)
     349:	00 00                	add    %al,(%eax)
     34b:	01 9c 5e 03 00 00 05 	add    %ebx,0x5000003(%esi,%ebx,2)
     352:	63 00                	arpl   %eax,(%eax)
     354:	d6                   	(bad)
     355:	11 a5 00 00 00 02    	adc    %esp,0x2000000(%ebp)
     35b:	91                   	xchg   %eax,%ecx
     35c:	00 00                	add    %al,(%eax)
     35e:	04 2c                	add    $0x2c,%al
     360:	01 00                	add    %eax,(%eax)
     362:	00 d2                	add    %dl,%dl
     364:	05 a5 00 00 00       	add    $0xa5,%eax
     369:	5e                   	pop    %esi
     36a:	0c 00                	or     $0x0,%al
     36c:	00 29                	add    %ch,(%ecx)
     36e:	00 00                	add    %al,(%eax)
     370:	00 01                	add    %al,(%ecx)
     372:	9c                   	pushf
     373:	92                   	xchg   %eax,%edx
     374:	03 00                	add    (%eax),%eax
     376:	00 05 63 00 d2 0e    	add    %al,0xed20063
     37c:	a5                   	movsl  %ds:(%esi),%es:(%edi)
     37d:	00 00                	add    %al,(%eax)
     37f:	00 02                	add    %al,(%edx)
     381:	91                   	xchg   %eax,%ecx
     382:	00 01                	add    %al,(%ecx)
     384:	00 00                	add    %al,(%eax)
     386:	00 00                	add    %al,(%eax)
     388:	d2 17                	rclb   %cl,(%edi)
     38a:	92                   	xchg   %eax,%edx
     38b:	03 00                	add    (%eax),%eax
     38d:	00 02                	add    %al,(%edx)
     38f:	91                   	xchg   %eax,%ecx
     390:	04 00                	add    $0x0,%al
     392:	0a 5d 00             	or     0x0(%ebp),%bl
     395:	00 00                	add    %al,(%eax)
     397:	04 2b                	add    $0x2b,%al
     399:	01 00                	add    %eax,(%eax)
     39b:	00 cd                	add    %cl,%ch
     39d:	05 a5 00 00 00       	add    $0xa5,%eax
     3a2:	2d 0c 00 00 31       	sub    $0x3100000c,%eax
     3a7:	00 00                	add    %al,(%eax)
     3a9:	00 01                	add    %al,(%ecx)
     3ab:	9c                   	pushf
     3ac:	d8 03                	fadds  (%ebx)
     3ae:	00 00                	add    %al,(%eax)
     3b0:	05 63 00 cd 0f       	add    $0xfcd0063,%eax
     3b5:	a5                   	movsl  %ds:(%esi),%es:(%edi)
     3b6:	00 00                	add    %al,(%eax)
     3b8:	00 02                	add    %al,(%edx)
     3ba:	91                   	xchg   %eax,%ecx
     3bb:	00 01                	add    %al,(%ecx)
     3bd:	00 00                	add    %al,(%eax)
     3bf:	00 00                	add    %al,(%eax)
     3c1:	cd 18                	int    $0x18
     3c3:	92                   	xchg   %eax,%edx
     3c4:	03 00                	add    (%eax),%eax
     3c6:	00 02                	add    %al,(%edx)
     3c8:	91                   	xchg   %eax,%ecx
     3c9:	04 02                	add    $0x2,%al
     3cb:	63 63 00             	arpl   %esp,0x0(%ebx)
     3ce:	ce                   	into
     3cf:	0a 92 00 00 00 02    	or     0x2000000(%edx),%dl
     3d5:	91                   	xchg   %eax,%ecx
     3d6:	6f                   	outsl  %ds:(%esi),(%dx)
     3d7:	00 04 f1             	add    %al,(%ecx,%esi,8)
     3da:	00 00                	add    %al,(%eax)
     3dc:	00 bd 07 92 03 00    	add    %bh,0x39207(%ebp)
     3e2:	00 6c 0b 00          	add    %ch,0x0(%ebx,%ecx,1)
     3e6:	00 c1                	add    %al,%cl
     3e8:	00 00                	add    %al,(%eax)
     3ea:	00 01                	add    %al,(%ecx)
     3ec:	9c                   	pushf
     3ed:	40                   	inc    %eax
     3ee:	04 00                	add    $0x0,%al
     3f0:	00 01                	add    %al,(%ecx)
     3f2:	0f 01 00             	sgdtl  (%eax)
     3f5:	00 bd 1b 87 01 00    	add    %bh,0x1871b(%ebp)
     3fb:	00 02                	add    %al,(%edx)
     3fd:	91                   	xchg   %eax,%ecx
     3fe:	00 01                	add    %al,(%ecx)
     400:	03 01                	add    (%ecx),%eax
     402:	00 00                	add    %al,(%eax)
     404:	bd 31 87 01 00       	mov    $0x18731,%ebp
     409:	00 02                	add    %al,(%edx)
     40b:	91                   	xchg   %eax,%ecx
     40c:	04 01                	add    $0x1,%al
     40e:	00 00                	add    %al,(%eax)
     410:	00 00                	add    %al,(%eax)
     412:	bd 3d 92 03 00       	mov    $0x3923d,%ebp
     417:	00 02                	add    %al,(%edx)
     419:	91                   	xchg   %eax,%ecx
     41a:	08 06                	or     %al,(%esi)
     41c:	e4 00                	in     $0x0,%al
     41e:	00 00                	add    %al,(%eax)
     420:	be 06 a5 00 00       	mov    $0xa506,%esi
     425:	00 02                	add    %al,(%edx)
     427:	91                   	xchg   %eax,%ecx
     428:	6c                   	insb   (%dx),%es:(%edi)
     429:	08 86 0b 00 00 38    	or     %al,0x3800000b(%esi)
     42f:	00 00                	add    %al,(%eax)
     431:	00 02                	add    %al,(%edx)
     433:	69 00 bf 0a a5 00    	imul   $0xa50abf,(%eax),%eax
     439:	00 00                	add    %al,(%eax)
     43b:	02 91 68 00 00 04    	add    0x4000068(%ecx),%dl
     441:	5c                   	pop    %esp
     442:	00 00                	add    %al,(%eax)
     444:	00 b4 05 a5 00 00 00 	add    %dh,0xa5(%ebp,%eax,1)
     44b:	1a 0b                	sbb    (%ebx),%cl
     44d:	00 00                	add    %al,(%eax)
     44f:	52                   	push   %edx
     450:	00 00                	add    %al,(%eax)
     452:	00 01                	add    %al,(%ecx)
     454:	9c                   	pushf
     455:	84 04 00             	test   %al,(%eax,%eax,1)
     458:	00 01                	add    %al,(%ecx)
     45a:	00 00                	add    %al,(%eax)
     45c:	00 00                	add    %al,(%eax)
     45e:	b4 11                	mov    $0x11,%ah
     460:	92                   	xchg   %eax,%edx
     461:	03 00                	add    (%eax),%eax
     463:	00 02                	add    %al,(%edx)
     465:	91                   	xchg   %eax,%ecx
     466:	00 01                	add    %al,(%ecx)
     468:	6c                   	insb   (%dx),%es:(%edi)
     469:	00 00                	add    %al,(%eax)
     46b:	00 b4 1e 84 04 00 00 	add    %dh,0x484(%esi,%ebx,1)
     472:	02 91 04 01 08 01    	add    0x1080104(%ecx),%dl
     478:	00 00                	add    %al,(%eax)
     47a:	b4 2a                	mov    $0x2a,%ah
     47c:	a5                   	movsl  %ds:(%esi),%es:(%edi)
     47d:	00 00                	add    %al,(%eax)
     47f:	00 02                	add    %al,(%edx)
     481:	91                   	xchg   %eax,%ecx
     482:	08 00                	or     %al,(%eax)
     484:	09 04 05 84 03 00 00 	or     %eax,0x384(,%eax,1)
     48b:	04 42                	add    $0x42,%al
     48d:	00 00                	add    %al,(%eax)
     48f:	00 ad 06 84 04 00    	add    %ch,0x48406(%ebp)
     495:	00 cf                	add    %cl,%bh
     497:	0a 00                	or     (%eax),%al
     499:	00 4b 00             	add    %cl,0x0(%ebx)
     49c:	00 00                	add    %al,(%eax)
     49e:	01 9c b3 04 00 00 01 	add    %ebx,0x1000004(%ebx,%esi,4)
     4a5:	00 00                	add    %al,(%eax)
     4a7:	00 00                	add    %al,(%eax)
     4a9:	ad                   	lods   %ds:(%esi),%eax
     4aa:	12 92 03 00 00 02    	adc    0x2000003(%edx),%dl
     4b0:	91                   	xchg   %eax,%ecx
     4b1:	00 00                	add    %al,(%eax)
     4b3:	04 cb                	add    $0xcb,%al
     4b5:	00 00                	add    %al,(%eax)
     4b7:	00 a1 05 a5 00 00    	add    %ah,0xa505(%ecx)
     4bd:	00 43 0a             	add    %al,0xa(%ebx)
     4c0:	00 00                	add    %al,(%eax)
     4c2:	8c 00                	mov    %es,(%eax)
     4c4:	00 00                	add    %al,(%eax)
     4c6:	01 9c f7 04 00 00 01 	add    %ebx,0x1000004(%edi,%esi,8)
     4cd:	00 00                	add    %al,(%eax)
     4cf:	00 00                	add    %al,(%eax)
     4d1:	a1 10 92 03 00       	mov    0x39210,%eax
     4d6:	00 02                	add    %al,(%edx)
     4d8:	91                   	xchg   %eax,%ecx
     4d9:	00 06                	add    %al,(%esi)
     4db:	f8                   	clc
     4dc:	02 00                	add    (%eax),%al
     4de:	00 a2 06 a5 00 00    	add    %ah,0xa506(%edx)
     4e4:	00 02                	add    %al,(%edx)
     4e6:	91                   	xchg   %eax,%ecx
     4e7:	6c                   	insb   (%dx),%es:(%edi)
     4e8:	02 65 6e             	add    0x6e(%ebp),%ah
     4eb:	64 00 a2 0c a5 00 00 	add    %ah,%fs:0xa50c(%edx)
     4f2:	00 02                	add    %al,(%edx)
     4f4:	91                   	xchg   %eax,%ecx
     4f5:	68 00 04 d2 01       	push   $0x1d20400
     4fa:	00 00                	add    %al,(%eax)
     4fc:	92                   	xchg   %eax,%edx
     4fd:	08 69 00             	or     %ch,0x0(%ecx)
     500:	00 00                	add    %al,(%eax)
     502:	ca 09 00             	lret   $0x9
     505:	00 79 00             	add    %bh,0x0(%ecx)
     508:	00 00                	add    %al,(%eax)
     50a:	01 9c 6b 05 00 00 05 	add    %ebx,0x5000005(%ebx,%ebp,2)
     511:	70 74                	jo     587 <vfprintf+0x59>
     513:	72 00                	jb     515 <init_stdio+0x8b>
     515:	92                   	xchg   %eax,%edx
     516:	14 3d                	adc    $0x3d,%al
     518:	01 00                	add    %eax,(%eax)
     51a:	00 02                	add    %al,(%edx)
     51c:	91                   	xchg   %eax,%ecx
     51d:	00 01                	add    %al,(%ecx)
     51f:	9a 05 00 00 92 20 69 	lcall  $0x6920,$0x92000005
     526:	00 00                	add    %al,(%eax)
     528:	00 02                	add    %al,(%edx)
     52a:	91                   	xchg   %eax,%ecx
     52b:	04 05                	add    $0x5,%al
     52d:	6e                   	outsb  %ds:(%esi),(%dx)
     52e:	00 92 2d 69 00 00    	add    %dl,0x692d(%edx)
     534:	00 02                	add    %al,(%edx)
     536:	91                   	xchg   %eax,%ecx
     537:	08 01                	or     %al,(%ecx)
     539:	00 00                	add    %al,(%eax)
     53b:	00 00                	add    %al,(%eax)
     53d:	92                   	xchg   %eax,%edx
     53e:	36 92                	ss xchg %eax,%edx
     540:	03 00                	add    (%eax),%eax
     542:	00 02                	add    %al,(%edx)
     544:	91                   	xchg   %eax,%ecx
     545:	0c 06                	or     $0x6,%al
     547:	dd 00                	fldl   (%eax)
     549:	00 00                	add    %al,(%eax)
     54b:	94                   	xchg   %eax,%esp
     54c:	06                   	push   %es
     54d:	a5                   	movsl  %ds:(%esi),%es:(%edi)
     54e:	00 00                	add    %al,(%eax)
     550:	00 02                	add    %al,(%edx)
     552:	91                   	xchg   %eax,%ecx
     553:	6c                   	insb   (%dx),%es:(%edi)
     554:	08 f6                	or     %dh,%dh
     556:	09 00                	or     %eax,(%eax)
     558:	00 45 00             	add    %al,0x0(%ebp)
     55b:	00 00                	add    %al,(%eax)
     55d:	02 69 00             	add    0x0(%ecx),%ch
     560:	95                   	xchg   %eax,%ebp
     561:	0a a5 00 00 00 02    	or     0x2000000(%ebp),%ah
     567:	91                   	xchg   %eax,%ecx
     568:	68 00 00 04 8b       	push   $0x8b040000
     56d:	00 00                	add    %al,(%eax)
     56f:	00 7a 08             	add    %bh,0x8(%edx)
     572:	69 00 00 00 57 09    	imul   $0x9570000,(%eax),%eax
     578:	00 00                	add    %al,(%eax)
     57a:	73 00                	jae    57c <vfprintf+0x4e>
     57c:	00 00                	add    %al,(%eax)
     57e:	01 9c f7 05 00 00 05 	add    %ebx,0x5000005(%edi,%esi,8)
     585:	70 74                	jo     5fb <vfprintf+0xcd>
     587:	72 00                	jb     589 <vfprintf+0x5b>
     589:	7a 1b                	jp     5a6 <vfprintf+0x78>
     58b:	f7 05 00 00 02 91 00 	testl  $0x59a0100,0x91020000
     592:	01 9a 05 
     595:	00 00                	add    %al,(%eax)
     597:	7a 27                	jp     5c0 <vfprintf+0x92>
     599:	69 00 00 00 02 91    	imul   $0x91020000,(%eax),%eax
     59f:	04 05                	add    $0x5,%al
     5a1:	6e                   	outsb  %ds:(%esi),(%dx)
     5a2:	00 7a 34             	add    %bh,0x34(%edx)
     5a5:	69 00 00 00 02 91    	imul   $0x91020000,(%eax),%eax
     5ab:	08 01                	or     %al,(%ecx)
     5ad:	00 00                	add    %al,(%eax)
     5af:	00 00                	add    %al,(%eax)
     5b1:	7a 3d                	jp     5f0 <vfprintf+0xc2>
     5b3:	92                   	xchg   %eax,%edx
     5b4:	03 00                	add    (%eax),%eax
     5b6:	00 02                	add    %al,(%edx)
     5b8:	91                   	xchg   %eax,%ecx
     5b9:	0c 06                	or     $0x6,%al
     5bb:	20 00                	and    %al,(%eax)
     5bd:	00 00                	add    %al,(%eax)
     5bf:	7c 06                	jl     5c7 <vfprintf+0x99>
     5c1:	a5                   	movsl  %ds:(%esi),%es:(%edi)
     5c2:	00 00                	add    %al,(%eax)
     5c4:	00 02                	add    %al,(%edx)
     5c6:	91                   	xchg   %eax,%ecx
     5c7:	6c                   	insb   (%dx),%es:(%edi)
     5c8:	08 83 09 00 00 3f    	or     %al,0x3f000009(%ebx)
     5ce:	00 00                	add    %al,(%eax)
     5d0:	00 02                	add    %al,(%edx)
     5d2:	69 00 7d 0a a5 00    	imul   $0xa50a7d,(%eax),%eax
     5d8:	00 00                	add    %al,(%eax)
     5da:	02 91 68 08 95 09    	add    0x9950868(%ecx),%dl
     5e0:	00 00                	add    %al,(%eax)
     5e2:	22 00                	and    (%eax),%al
     5e4:	00 00                	add    %al,(%eax)
     5e6:	06                   	push   %es
     5e7:	d0 00                	rolb   $1,(%eax)
     5e9:	00 00                	add    %al,(%eax)
     5eb:	7f 08                	jg     5f5 <vfprintf+0xc7>
     5ed:	a5                   	movsl  %ds:(%esi),%es:(%edi)
     5ee:	00 00                	add    %al,(%eax)
     5f0:	00 02                	add    %al,(%edx)
     5f2:	91                   	xchg   %eax,%ecx
     5f3:	64 00 00             	add    %al,%fs:(%eax)
     5f6:	00 0a                	add    %cl,(%edx)
     5f8:	fc                   	cld
     5f9:	05 00 00 23 04       	add    $0x4230000,%eax
     5fe:	24 01                	and    $0x1,%al
     600:	00 00                	add    %al,(%eax)
     602:	6d                   	insl   (%dx),%es:(%edi)
     603:	05 a5 00 00 00       	add    $0xa5,%eax
     608:	c1 08 00             	rorl   $0x0,(%eax)
     60b:	00 96 00 00 00 01    	add    %dl,0x1000000(%esi)
     611:	9c                   	pushf
     612:	3b 06                	cmp    (%esi),%eax
     614:	00 00                	add    %al,(%eax)
     616:	01 00                	add    %eax,(%eax)
     618:	00 00                	add    %al,(%eax)
     61a:	00 6d 12             	add    %ch,0x12(%ebp)
     61d:	92                   	xchg   %eax,%edx
     61e:	03 00                	add    (%eax),%eax
     620:	00 02                	add    %al,(%edx)
     622:	91                   	xchg   %eax,%ecx
     623:	00 08                	add    %cl,(%eax)
     625:	d3 08                	rorl   %cl,(%eax)
     627:	00 00                	add    %al,(%eax)
     629:	7a 00                	jp     62b <vfprintf+0xfd>
     62b:	00 00                	add    %al,(%eax)
     62d:	02 69 00             	add    0x0(%ecx),%ch
     630:	6e                   	outsb  %ds:(%esi),(%dx)
     631:	0a a5 00 00 00 02    	or     0x2000000(%ebp),%ah
     637:	91                   	xchg   %eax,%ecx
     638:	6c                   	insb   (%dx),%es:(%edi)
     639:	00 00                	add    %al,(%eax)
     63b:	04 ba                	add    $0xba,%al
     63d:	00 00                	add    %al,(%eax)
     63f:	00 5e 07             	add    %bl,0x7(%esi)
     642:	92                   	xchg   %eax,%edx
     643:	03 00                	add    (%eax),%eax
     645:	00 0a                	add    %cl,(%edx)
     647:	08 00                	or     %al,(%eax)
     649:	00 b7 00 00 00 01    	add    %dh,0x1000000(%edi)
     64f:	9c                   	pushf
     650:	8a 06                	mov    (%esi),%al
     652:	00 00                	add    %al,(%eax)
     654:	01 0f                	add    %ecx,(%edi)
     656:	01 00                	add    %eax,(%eax)
     658:	00 5e 19             	add    %bl,0x19(%esi)
     65b:	87 01                	xchg   %eax,(%ecx)
     65d:	00 00                	add    %al,(%eax)
     65f:	02 91 00 01 03 01    	add    0x1030100(%ecx),%dl
     665:	00 00                	add    %al,(%eax)
     667:	5e                   	pop    %esi
     668:	2f                   	das
     669:	87 01                	xchg   %eax,(%ecx)
     66b:	00 00                	add    %al,(%eax)
     66d:	02 91 04 02 69 00    	add    0x690204(%ecx),%dl
     673:	5f                   	pop    %edi
     674:	06                   	push   %es
     675:	a5                   	movsl  %ds:(%esi),%es:(%edi)
     676:	00 00                	add    %al,(%eax)
     678:	00 02                	add    %al,(%edx)
     67a:	91                   	xchg   %eax,%ecx
     67b:	6c                   	insb   (%dx),%es:(%edi)
     67c:	02 66 64             	add    0x64(%esi),%ah
     67f:	00 64 06 a5          	add    %ah,-0x5b(%esi,%eax,1)
     683:	00 00                	add    %al,(%eax)
     685:	00 02                	add    %al,(%edx)
     687:	91                   	xchg   %eax,%ecx
     688:	68 00 04 3d 00       	push   $0x3d0400
     68d:	00 00                	add    %al,(%eax)
     68f:	58                   	pop    %eax
     690:	05 a5 00 00 00       	add    $0xa5,%eax
     695:	af                   	scas   %es:(%edi),%eax
     696:	07                   	pop    %es
     697:	00 00                	add    %al,(%eax)
     699:	5b                   	pop    %ebx
     69a:	00 00                	add    %al,(%eax)
     69c:	00 01                	add    %al,(%ecx)
     69e:	9c                   	pushf
     69f:	bc 06 00 00 05       	mov    $0x5000006,%esp
     6a4:	73 00                	jae    6a6 <vfprintf+0x178>
     6a6:	58                   	pop    %eax
     6a7:	16                   	push   %ss
     6a8:	87 01                	xchg   %eax,(%ecx)
     6aa:	00 00                	add    %al,(%eax)
     6ac:	02 91 00 02 6e 00    	add    0x6e0200(%ecx),%dl
     6b2:	59                   	pop    %ecx
     6b3:	06                   	push   %es
     6b4:	a5                   	movsl  %ds:(%esi),%es:(%edi)
     6b5:	00 00                	add    %al,(%eax)
     6b7:	00 02                	add    %al,(%edx)
     6b9:	91                   	xchg   %eax,%ecx
     6ba:	6c                   	insb   (%dx),%es:(%edi)
     6bb:	00 04 3c             	add    %al,(%esp,%edi,1)
     6be:	00 00                	add    %al,(%eax)
     6c0:	00 53 05             	add    %dl,0x5(%ebx)
     6c3:	a5                   	movsl  %ds:(%esi),%es:(%edi)
     6c4:	00 00                	add    %al,(%eax)
     6c6:	00 6c 07 00          	add    %ch,0x0(%edi,%eax,1)
     6ca:	00 43 00             	add    %al,0x0(%ebx)
     6cd:	00 00                	add    %al,(%eax)
     6cf:	01 9c f0 06 00 00 05 	add    %ebx,0x5000006(%eax,%esi,8)
     6d6:	73 00                	jae    6d8 <vfprintf+0x1aa>
     6d8:	53                   	push   %ebx
     6d9:	17                   	pop    %ss
     6da:	87 01                	xchg   %eax,(%ecx)
     6dc:	00 00                	add    %al,(%eax)
     6de:	02 91 00 01 a9 05    	add    0x5a90100(%ecx),%dl
     6e4:	00 00                	add    %al,(%eax)
     6e6:	53                   	push   %ebx
     6e7:	20 92 03 00 00 02    	and    %dl,0x2000003(%edx)
     6ed:	91                   	xchg   %eax,%ecx
     6ee:	04 00                	add    $0x0,%al
     6f0:	04 33                	add    $0x33,%al
     6f2:	01 00                	add    %eax,(%eax)
     6f4:	00 4c 05 a5          	add    %cl,-0x5b(%ebp,%eax,1)
     6f8:	00 00                	add    %al,(%eax)
     6fa:	00 16                	add    %dl,(%esi)
     6fc:	07                   	pop    %es
     6fd:	00 00                	add    %al,(%eax)
     6ff:	56                   	push   %esi
     700:	00 00                	add    %al,(%eax)
     702:	00 01                	add    %al,(%ecx)
     704:	9c                   	pushf
     705:	27                   	daa
     706:	07                   	pop    %es
     707:	00 00                	add    %al,(%eax)
     709:	05 66 6d 74 00       	add    $0x746d66,%eax
     70e:	4c                   	dec    %esp
     70f:	18 87 01 00 00 02    	sbb    %al,0x2000001(%edi)
     715:	91                   	xchg   %eax,%ecx
     716:	00 0c 06             	add    %cl,(%esi,%eax,1)
     719:	92                   	xchg   %eax,%edx
     71a:	00 00                	add    %al,(%eax)
     71c:	00 4d 0a             	add    %cl,0xa(%ebp)
     71f:	7c 00                	jl     721 <printf+0xb>
     721:	00 00                	add    %al,(%eax)
     723:	02 91 6c 00 04 32    	add    0x3204006c(%ecx),%dl
     729:	01 00                	add    %eax,(%eax)
     72b:	00 46 05             	add    %al,0x5(%esi)
     72e:	a5                   	movsl  %ds:(%esi),%es:(%edi)
     72f:	00 00                	add    %al,(%eax)
     731:	00 e3                	add    %ah,%bl
     733:	06                   	push   %es
     734:	00 00                	add    %al,(%eax)
     736:	33 00                	xor    (%eax),%eax
     738:	00 00                	add    %al,(%eax)
     73a:	01 9c 6c 07 00 00 01 	add    %ebx,0x1000007(%esp,%ebp,2)
     741:	a9 05 00 00 46       	test   $0x46000005,%eax
     746:	13 92 03 00 00 02    	adc    0x2000003(%edx),%edx
     74c:	91                   	xchg   %eax,%ecx
     74d:	00 05 66 6d 74 00    	add    %al,0x746d66
     753:	46                   	inc    %esi
     754:	25 87 01 00 00       	and    $0x187,%eax
     759:	02 91 04 0c 06 92    	add    -0x6df9f3fc(%ecx),%dl
     75f:	00 00                	add    %al,(%eax)
     761:	00 47 0a             	add    %al,0xa(%edi)
     764:	7c 00                	jl     766 <printf+0x50>
     766:	00 00                	add    %al,(%eax)
     768:	02 91 6c 00 04 31    	add    0x3104006c(%ecx),%dl
     76e:	01 00                	add    %eax,(%eax)
     770:	00 1b                	add    %bl,(%ebx)
     772:	05 a5 00 00 00       	add    $0xa5,%eax
     777:	2e 05 00 00 b5 01    	cs add $0x1b50000,%eax
     77d:	00 00                	add    %al,(%eax)
     77f:	01 9c 05 08 00 00 01 	add    %ebx,0x1000008(%ebp,%eax,1)
     786:	a9 05 00 00 1b       	test   $0x1b000005,%eax
     78b:	14 92                	adc    $0x92,%al
     78d:	03 00                	add    (%eax),%eax
     78f:	00 02                	add    %al,(%edx)
     791:	91                   	xchg   %eax,%ecx
     792:	00 05 66 6d 74 00    	add    %al,0x746d66
     798:	1b 26                	sbb    (%esi),%esp
     79a:	87 01                	xchg   %eax,(%ecx)
     79c:	00 00                	add    %al,(%eax)
     79e:	02 91 04 01 92 00    	add    0x920104(%ecx),%dl
     7a4:	00 00                	add    %al,(%eax)
     7a6:	1b 33                	sbb    (%ebx),%esi
     7a8:	7c 00                	jl     7aa <fputs+0x3e>
     7aa:	00 00                	add    %al,(%eax)
     7ac:	02 91 08 02 73 00    	add    0x730208(%ecx),%dl
     7b2:	1c 07                	sbb    $0x7,%al
     7b4:	05 08 00 00 03       	add    $0x3000008,%eax
     7b9:	91                   	xchg   %eax,%ecx
     7ba:	b8 7f 02 6e 75       	mov    $0x756e027f,%eax
     7bf:	6d                   	insl   (%dx),%es:(%edi)
     7c0:	00 1d 06 a5 00 00    	add    %bl,0xa506
     7c6:	00 02                	add    %al,(%edx)
     7c8:	91                   	xchg   %eax,%ecx
     7c9:	68 11 66 00 1e       	push   $0x1e006611
     7ce:	08 15 08 00 00 11    	or     %dl,0x11000008
     7d4:	64 00 1f             	add    %bl,%fs:(%edi)
     7d7:	09 1c 08             	or     %ebx,(%eax,%ecx,1)
     7da:	00 00                	add    %al,(%eax)
     7dc:	06                   	push   %es
     7dd:	a1 00 00 00 20       	mov    0x20000000,%eax
     7e2:	08 ac 01 00 00 02 91 	or     %ch,-0x6efe0000(%ecx,%eax,1)
     7e9:	60                   	pusha
     7ea:	02 62 00             	add    0x0(%edx),%ah
     7ed:	21 08                	and    %ecx,(%eax)
     7ef:	ac                   	lods   %ds:(%esi),%al
     7f0:	01 00                	add    %eax,(%eax)
     7f2:	00 02                	add    %al,(%edx)
     7f4:	91                   	xchg   %eax,%ecx
     7f5:	64 06                	fs push %es
     7f7:	a7                   	cmpsl  %es:(%edi),%ds:(%esi)
     7f8:	00 00                	add    %al,(%eax)
     7fa:	00 22                	add    %ah,(%edx)
     7fc:	06                   	push   %es
     7fd:	a5                   	movsl  %ds:(%esi),%es:(%edi)
     7fe:	00 00                	add    %al,(%eax)
     800:	00 02                	add    %al,(%edx)
     802:	91                   	xchg   %eax,%ecx
     803:	6c                   	insb   (%dx),%es:(%edi)
     804:	00 0f                	add    %cl,(%edi)
     806:	92                   	xchg   %eax,%edx
     807:	00 00                	add    %al,(%eax)
     809:	00 15 08 00 00 10    	add    %dl,0x10000008
     80f:	75 00                	jne    811 <fopen+0x7>
     811:	00 00                	add    %al,(%eax)
     813:	27                   	daa
     814:	00 09                	add    %cl,(%ecx)
     816:	04 04                	add    $0x4,%al
     818:	b6 01                	mov    $0x1,%dh
     81a:	00 00                	add    %al,(%eax)
     81c:	09 08                	or     %ecx,(%eax)
     81e:	04 b3                	add    $0xb3,%al
     820:	00 00                	add    %al,(%eax)
     822:	00 24 c0             	add    %ah,(%eax,%eax,8)
     825:	00 00                	add    %al,(%eax)
     827:	00 01                	add    %al,(%ecx)
     829:	12 06                	adc    (%esi),%al
     82b:	8a 04 00             	mov    (%eax,%eax,1),%al
     82e:	00 a4 00 00 00 01 9c 	add    %ah,-0x63ff0000(%eax,%eax,1)
     835:	25 bc 01 00 00       	and    $0x1bc,%eax
     83a:	01 0b                	add    %ecx,(%ebx)
     83c:	07                   	pop    %es
     83d:	92                   	xchg   %eax,%edx
     83e:	03 00                	add    (%eax),%eax
     840:	00 4d 04             	add    %cl,0x4(%ebp)
     843:	00 00                	add    %al,(%eax)
     845:	3d 00 00 00 01       	cmp    $0x1000000,%eax
     84a:	9c                   	pushf
     84b:	05 66 64 00 0b       	add    $0xb006466,%eax
     850:	21 a5 00 00 00 02    	and    %esp,0x2000000(%ebp)
     856:	91                   	xchg   %eax,%ecx
     857:	00 06                	add    %al,(%esi)
     859:	a9 05 00 00 0c       	test   $0xc000005,%eax
     85e:	08 92 03 00 00 02    	or     %dl,0x2000003(%edx)
     864:	91                   	xchg   %eax,%ecx
     865:	6c                   	insb   (%dx),%es:(%edi)
     866:	00 00                	add    %al,(%eax)
     868:	d4 04                	aam    $0x4
     86a:	00 00                	add    %al,(%eax)
     86c:	05 00 01 04 1b       	add    $0x1b040100,%eax
     871:	02 00                	add    (%eax),%al
     873:	00 12                	add    %dl,(%edx)
     875:	3a 01                	cmp    (%ecx),%al
     877:	00 00                	add    %al,(%eax)
     879:	1d 91 00 00 00       	sbb    $0x91,%eax
     87e:	11 00                	adc    %eax,(%eax)
     880:	00 00                	add    %al,(%eax)
     882:	e3 0e                	jecxz  892 <fopen+0x88>
     884:	00 00                	add    %al,(%eax)
     886:	13 06                	adc    (%esi),%eax
     888:	00 00                	add    %al,(%eax)
     88a:	16                   	push   %ss
     88b:	05 00 00 13 07       	add    $0x7130000,%eax
     890:	00 00                	add    %al,(%eax)
     892:	00 06                	add    %al,(%esi)
     894:	06                   	push   %es
     895:	1b 32                	sbb    (%edx),%esi
     897:	00 00                	add    %al,(%eax)
     899:	00 04 04             	add    %al,(%esp,%eax,1)
     89c:	07                   	pop    %es
     89d:	c6 03 00             	movb   $0x0,(%ebx)
     8a0:	00 04 01             	add    %al,(%ecx,%eax,1)
     8a3:	06                   	push   %es
     8a4:	ac                   	lods   %ds:(%esi),%al
     8a5:	03 00                	add    (%eax),%eax
     8a7:	00 14 39             	add    %dl,(%ecx,%edi,1)
     8aa:	00 00                	add    %al,(%eax)
     8ac:	00 04 04             	add    %al,(%esp,%eax,1)
     8af:	07                   	pop    %es
     8b0:	cb                   	lret
     8b1:	03 00                	add    (%eax),%eax
     8b3:	00 15 04 04 02 05    	add    %dl,0x5020404
     8b9:	c3                   	ret
     8ba:	02 00                	add    (%eax),%al
     8bc:	00 0e                	add    %cl,(%esi)
     8be:	20 02                	and    %al,(%edx)
     8c0:	00 00                	add    %al,(%eax)
     8c2:	0c 06                	or     $0x6,%al
     8c4:	85 00                	test   %eax,(%eax)
     8c6:	00 00                	add    %al,(%eax)
     8c8:	07                   	pop    %es
     8c9:	b7 02                	mov    $0x2,%bh
     8cb:	00 00                	add    %al,(%eax)
     8cd:	07                   	pop    %es
     8ce:	0b 4c 00 00          	or     0x0(%eax,%eax,1),%ecx
     8d2:	00 00                	add    %al,(%eax)
     8d4:	07                   	pop    %es
     8d5:	de 02                	fiadds (%edx)
     8d7:	00 00                	add    %al,(%eax)
     8d9:	08 09                	or     %cl,(%ecx)
     8db:	85 00                	test   %eax,(%eax)
     8dd:	00 00                	add    %al,(%eax)
     8df:	04 07                	add    $0x7,%al
     8e1:	f1                   	int1
     8e2:	02 00                	add    (%eax),%al
     8e4:	00 09                	add    %cl,(%ecx)
     8e6:	0b 4c 00 00          	or     0x0(%eax,%eax,1),%ecx
     8ea:	00 08                	add    %cl,(%eax)
     8ec:	00 16                	add    %dl,(%esi)
     8ee:	04 05                	add    $0x5,%al
     8f0:	69 6e 74 00 0f 04 03 	imul   $0x3040f00,0x74(%esi),%ebp
     8f7:	00 00                	add    %al,(%eax)
     8f9:	0c 16                	or     $0x16,%al
     8fb:	55                   	push   %ebp
     8fc:	00 00                	add    %al,(%eax)
     8fe:	00 05 03 e8 35 00    	add    %al,0x35e803
     904:	00 0e                	add    %cl,(%esi)
     906:	1b 02                	sbb    (%edx),%eax
     908:	00 00                	add    %al,(%eax)
     90a:	04 0e                	add    $0xe,%al
     90c:	b5 00                	mov    $0x0,%ch
     90e:	00 00                	add    %al,(%eax)
     910:	07                   	pop    %es
     911:	f8                   	clc
     912:	02 00                	add    (%eax),%al
     914:	00 0f                	add    %cl,(%edi)
     916:	0b 4c 00 00          	or     0x0(%eax,%eax,1),%ecx
     91a:	00 00                	add    %al,(%eax)
     91c:	00 0f                	add    %cl,(%edi)
     91e:	6e                   	outsb  %ds:(%esi),(%dx)
     91f:	02 00                	add    (%eax),%al
     921:	00 12                	add    %dl,(%edx)
     923:	0d 9d 00 00 00       	or     $0x9d,%eax
     928:	05 03 f4 35 00       	add    $0x35f403,%eax
     92d:	00 04 02             	add    %al,(%edx,%eax,1)
     930:	07                   	pop    %es
     931:	78 00                	js     933 <fclose+0x72>
     933:	00 00                	add    %al,(%eax)
     935:	05 e6 01 00 00       	add    $0x1e6,%eax
     93a:	02 11                	add    (%ecx),%dl
     93c:	13 85 00 00 00 e3    	adc    -0x1d000000(%ebp),%eax
     942:	00 00                	add    %al,(%eax)
     944:	00 02                	add    %al,(%edx)
     946:	85 00                	test   %eax,(%eax)
     948:	00 00                	add    %al,(%eax)
     94a:	00 05 3f 02 00 00    	add    %al,0x23f
     950:	02 0f                	add    (%edi),%cl
     952:	13 85 00 00 00 f9    	adc    -0x7000000(%ebp),%eax
     958:	00 00                	add    %al,(%eax)
     95a:	00 02                	add    %al,(%edx)
     95c:	85 00                	test   %eax,(%eax)
     95e:	00 00                	add    %al,(%eax)
     960:	00 05 2e 02 00 00    	add    %al,0x22e
     966:	02 0f                	add    (%edi),%cl
     968:	2f                   	das
     969:	85 00                	test   %eax,(%eax)
     96b:	00 00                	add    %al,(%eax)
     96d:	0f 01 00             	sgdtl  (%eax)
     970:	00 02                	add    %al,(%edx)
     972:	85 00                	test   %eax,(%eax)
     974:	00 00                	add    %al,(%eax)
     976:	00 05 a3 02 00 00    	add    %al,0x2a3
     97c:	03 13                	add    (%ebx),%edx
     97e:	07                   	pop    %es
     97f:	4c                   	dec    %esp
     980:	00 00                	add    %al,(%eax)
     982:	00 2f                	add    %ch,(%edi)
     984:	01 00                	add    %eax,(%eax)
     986:	00 02                	add    %al,(%edx)
     988:	4c                   	dec    %esp
     989:	00 00                	add    %al,(%eax)
     98b:	00 02                	add    %al,(%edx)
     98d:	2f                   	das
     98e:	01 00                	add    %eax,(%eax)
     990:	00 02                	add    %al,(%edx)
     992:	26 00 00             	add    %al,%es:(%eax)
     995:	00 00                	add    %al,(%eax)
     997:	08 34 01             	or     %dh,(%ecx,%eax,1)
     99a:	00 00                	add    %al,(%eax)
     99c:	17                   	pop    %ss
     99d:	05 33 01 00 00       	add    $0x133,%eax
     9a2:	04 23                	add    $0x23,%al
     9a4:	05 85 00 00 00       	add    $0x85,%eax
     9a9:	4c                   	dec    %esp
     9aa:	01 00                	add    %eax,(%eax)
     9ac:	00 02                	add    %al,(%edx)
     9ae:	4c                   	dec    %esp
     9af:	01 00                	add    %eax,(%eax)
     9b1:	00 18                	add    %bl,(%eax)
     9b3:	00 08                	add    %cl,(%eax)
     9b5:	40                   	inc    %eax
     9b6:	00 00                	add    %al,(%eax)
     9b8:	00 19                	add    %bl,(%ecx)
     9ba:	5a                   	pop    %edx
     9bb:	02 00                	add    (%eax),%al
     9bd:	00 05 05 06 68 01    	add    %al,0x1680605
     9c3:	00 00                	add    %al,(%eax)
     9c5:	02 4c 00 00          	add    0x0(%eax,%eax,1),%cl
     9c9:	00 02                	add    %al,(%edx)
     9cb:	45                   	inc    %ebp
     9cc:	00 00                	add    %al,(%eax)
     9ce:	00 00                	add    %al,(%eax)
     9d0:	05 7d 02 00 00       	add    $0x27d,%eax
     9d5:	05 04 07 4c 00       	add    $0x4c0704,%eax
     9da:	00 00                	add    %al,(%eax)
     9dc:	7e 01                	jle    9df <fread+0x15>
     9de:	00 00                	add    %al,(%eax)
     9e0:	02 45 00             	add    0x0(%ebp),%al
     9e3:	00 00                	add    %al,(%eax)
     9e5:	00 09                	add    %cl,(%ecx)
     9e7:	fd                   	std
     9e8:	02 00                	add    (%eax),%al
     9ea:	00 bd 05 85 00 00    	add    %bh,0x8505(%ebp)
     9f0:	00 34 13             	add    %dh,(%ebx,%edx,1)
     9f3:	00 00                	add    %al,(%eax)
     9f5:	c2 01 00             	ret    $0x1
     9f8:	00 01                	add    %al,(%ecx)
     9fa:	9c                   	pushf
     9fb:	0f 02 00             	lar    (%eax),%eax
     9fe:	00 03                	add    %al,(%ebx)
     a00:	9e                   	sahf
     a01:	02 00                	add    (%eax),%al
     a03:	00 bd 18 4c 01 00    	add    %bh,0x14c18(%ebp)
     a09:	00 02                	add    %al,(%edx)
     a0b:	91                   	xchg   %eax,%ecx
     a0c:	00 03                	add    %al,(%ebx)
     a0e:	df 01                	filds  (%ecx)
     a10:	00 00                	add    %al,(%eax)
     a12:	bd 25 0f 02 00       	mov    $0x20f25,%ebp
     a17:	00 02                	add    %al,(%edx)
     a19:	91                   	xchg   %eax,%ecx
     a1a:	04 03                	add    $0x3,%al
     a1c:	be 02 00 00 bd       	mov    $0xbd000002,%esi
     a21:	3a 85 00 00 00 02    	cmp    0x2000000(%ebp),%al
     a27:	91                   	xchg   %eax,%ecx
     a28:	08 01                	or     %al,(%ecx)
     a2a:	73 00                	jae    a2c <fread+0x62>
     a2c:	bf 17 4c 01 00       	mov    $0x14c17,%edi
     a31:	00 01                	add    %al,(%ecx)
     a33:	57                   	push   %edi
     a34:	0b 61 63             	or     0x63(%ecx),%esp
     a37:	63 00                	arpl   %eax,(%eax)
     a39:	c0 19 32             	rcrb   $0x32,(%ecx)
     a3c:	00 00                	add    %al,(%eax)
     a3e:	00 01                	add    %al,(%ecx)
     a40:	63 00                	arpl   %eax,(%eax)
     a42:	c1 0f 85             	rorl   $0x85,(%edi)
     a45:	00 00                	add    %al,(%eax)
     a47:	00 01                	add    %al,(%ecx)
     a49:	56                   	push   %esi
     a4a:	10 92 02 00 00 c2    	adc    %dl,-0x3dfffffe(%edx)
     a50:	19 32                	sbb    %esi,(%edx)
     a52:	00 00                	add    %al,(%eax)
     a54:	00 0b                	add    %cl,(%ebx)
     a56:	6e                   	outsb  %ds:(%esi),(%dx)
     a57:	65 67 00 c3          	gs addr16 add %al,%bl
     a5b:	0f 85 00 00 00 0b    	jne    b000a61 <_end+0xaffd449>
     a61:	61                   	popa
     a62:	6e                   	outsb  %ds:(%esi),(%dx)
     a63:	79 00                	jns    a65 <feof+0x22>
     a65:	c3                   	ret
     a66:	18 85 00 00 00 10    	sbb    %al,0x10000000(%ebp)
     a6c:	14 02                	adc    $0x2,%al
     a6e:	00 00                	add    %al,(%eax)
     a70:	c3                   	ret
     a71:	1d 85 00 00 00       	sbb    $0x85,%eax
     a76:	00 08                	add    %cl,(%eax)
     a78:	14 02                	adc    $0x2,%al
     a7a:	00 00                	add    %al,(%eax)
     a7c:	08 39                	or     %bh,(%ecx)
     a7e:	00 00                	add    %al,(%eax)
     a80:	00 1a                	add    %bl,(%edx)
     a82:	48                   	dec    %eax
     a83:	02 00                	add    (%eax),%al
     a85:	00 01                	add    %al,(%ecx)
     a87:	a9 05 85 00 00       	test   $0x8505,%eax
     a8c:	00 1e                	add    %bl,(%esi)
     a8e:	13 00                	adc    (%eax),%eax
     a90:	00 16                	add    %dl,(%esi)
     a92:	00 00                	add    %al,(%eax)
     a94:	00 01                	add    %al,(%ecx)
     a96:	9c                   	pushf
     a97:	41                   	inc    %ecx
     a98:	02 00                	add    (%eax),%al
     a9a:	00 01                	add    %al,(%ecx)
     a9c:	65 61                	gs popa
     a9e:	78 00                	js     aa0 <feof+0x5d>
     aa0:	aa                   	stos   %al,%es:(%edi)
     aa1:	18 45 00             	sbb    %al,0x0(%ebp)
     aa4:	00 00                	add    %al,(%eax)
     aa6:	01 50 00             	add    %edx,0x0(%eax)
     aa9:	0c 47                	or     $0x47,%al
     aab:	02 00                	add    (%eax),%al
     aad:	00 a1 00 13 00 00    	add    %ah,0x1300(%ecx)
     ab3:	1e                   	push   %ds
     ab4:	00 00                	add    %al,(%eax)
     ab6:	00 01                	add    %al,(%ecx)
     ab8:	9c                   	pushf
     ab9:	7e 02                	jle    abd <feof+0x7a>
     abb:	00 00                	add    %al,(%eax)
     abd:	03 d9                	add    %ecx,%ebx
     abf:	02 00                	add    (%eax),%al
     ac1:	00 a1 19 45 00 00    	add    %ah,0x4519(%ecx)
     ac7:	00 02                	add    %al,(%edx)
     ac9:	91                   	xchg   %eax,%ecx
     aca:	00 01                	add    %al,(%ecx)
     acc:	65 61                	gs popa
     ace:	78 00                	js     ad0 <ftell+0x1>
     ad0:	a2 18 45 00 00       	mov    %al,0x4518
     ad5:	00 01                	add    %al,(%ecx)
     ad7:	50                   	push   %eax
     ad8:	01 65 62             	add    %esp,0x62(%ebp)
     adb:	78 00                	js     add <ftell+0xe>
     add:	a3 18 45 00 00       	mov    %eax,0x4518
     ae2:	00 01                	add    %al,(%ecx)
     ae4:	53                   	push   %ebx
     ae5:	00 0c 0f             	add    %cl,(%edi,%ecx,1)
     ae8:	02 00                	add    (%eax),%al
     aea:	00 98 e0 12 00 00    	add    %bl,0x12e0(%eax)
     af0:	20 00                	and    %al,(%eax)
     af2:	00 00                	add    %al,(%eax)
     af4:	01 9c bb 02 00 00 03 	add    %ebx,0x3000002(%ebx,%edi,4)
     afb:	55                   	push   %ebp
     afc:	02 00                	add    (%eax),%al
     afe:	00 98 0f 85 00 00    	add    %bl,0x850f(%eax)
     b04:	00 02                	add    %al,(%edx)
     b06:	91                   	xchg   %eax,%ecx
     b07:	00 01                	add    %al,(%ecx)
     b09:	65 61                	gs popa
     b0b:	78 00                	js     b0d <ftell+0x3e>
     b0d:	99                   	cltd
     b0e:	18 45 00             	sbb    %al,0x0(%ebp)
     b11:	00 00                	add    %al,(%eax)
     b13:	01 50 01             	add    %edx,0x1(%eax)
     b16:	65 62 78 00          	bound  %edi,%gs:0x0(%eax)
     b1a:	9a 18 45 00 00 00 01 	lcall  $0x100,$0x4518
     b21:	53                   	push   %ebx
     b22:	00 0d 73 00 00 00    	add    %cl,0x73
     b28:	6c                   	insb   (%dx),%es:(%edi)
     b29:	07                   	pop    %es
     b2a:	14 02                	adc    $0x2,%al
     b2c:	00 00                	add    %al,(%eax)
     b2e:	d0 11                	rclb   $1,(%ecx)
     b30:	00 00                	add    %al,(%eax)
     b32:	10 01                	adc    %al,(%ecx)
     b34:	00 00                	add    %al,(%eax)
     b36:	01 9c 39 03 00 00 06 	add    %ebx,0x6000003(%ecx,%edi,1)
     b3d:	6b 00 6c             	imul   $0x6c,(%eax),%eax
     b40:	10 85 00 00 00 02    	adc    %al,0x2000000(%ebp)
     b46:	91                   	xchg   %eax,%ecx
     b47:	00 06                	add    %al,(%esi)
     b49:	62 75 66             	bound  %esi,0x66(%ebp)
     b4c:	00 6c 19 14          	add    %ch,0x14(%ecx,%ebx,1)
     b50:	02 00                	add    (%eax),%al
     b52:	00 02                	add    %al,(%edx)
     b54:	91                   	xchg   %eax,%ecx
     b55:	04 03                	add    $0x3,%al
     b57:	03 02                	add    (%edx),%eax
     b59:	00 00                	add    %al,(%eax)
     b5b:	6c                   	insb   (%dx),%es:(%edi)
     b5c:	22 85 00 00 00 02    	and    0x2000000(%ebp),%al
     b62:	91                   	xchg   %eax,%ecx
     b63:	08 01                	or     %al,(%ecx)
     b65:	69 00 6d 09 85 00    	imul   $0x85096d,(%eax),%eax
     b6b:	00 00                	add    %al,(%eax)
     b6d:	02 91 74 01 69 64    	add    0x64690174(%ecx),%dl
     b73:	78 00                	js     b75 <freopen+0x9>
     b75:	75 09                	jne    b80 <freopen+0x14>
     b77:	85 00                	test   %eax,(%eax)
     b79:	00 00                	add    %al,(%eax)
     b7b:	02 91 70 01 6a 00    	add    0x6a0170(%ecx),%dl
     b81:	76 09                	jbe    b8c <freopen+0x20>
     b83:	85 00                	test   %eax,(%eax)
     b85:	00 00                	add    %al,(%eax)
     b87:	02 91 6c 1b 84 12    	add    0x12841b6c(%ecx),%dl
     b8d:	00 00                	add    %al,(%eax)
     b8f:	45                   	inc    %ebp
     b90:	00 00                	add    %al,(%eax)
     b92:	00 01                	add    %al,(%ecx)
     b94:	6b 00 8a             	imul   $0xffffff8a,(%eax),%eax
     b97:	11 85 00 00 00 02    	adc    %eax,0x2000000(%ebp)
     b9d:	91                   	xchg   %eax,%ecx
     b9e:	68 00 00 0d 73       	push   $0x730d0000
     ba3:	02 00                	add    (%eax),%al
     ba5:	00 4d 07             	add    %cl,0x7(%ebp)
     ba8:	99                   	cltd
     ba9:	03 00                	add    (%eax),%eax
     bab:	00 f0                	add    %dh,%al
     bad:	10 00                	adc    %al,(%eax)
     baf:	00 e0                	add    %ah,%al
     bb1:	00 00                	add    %al,(%eax)
     bb3:	00 01                	add    %al,(%ecx)
     bb5:	9c                   	pushf
     bb6:	99                   	cltd
     bb7:	03 00                	add    (%eax),%eax
     bb9:	00 06                	add    %al,(%esi)
     bbb:	61                   	popa
     bbc:	72 72                	jb     c30 <fputc+0x3>
     bbe:	00 4d 18             	add    %cl,0x18(%ebp)
     bc1:	4c                   	dec    %esp
     bc2:	01 00                	add    %eax,(%eax)
     bc4:	00 02                	add    %al,(%edx)
     bc6:	91                   	xchg   %eax,%ecx
     bc7:	00 01                	add    %al,(%ecx)
     bc9:	76 61                	jbe    c2c <freopen+0xc0>
     bcb:	6c                   	insb   (%dx),%es:(%edi)
     bcc:	00 4e 09             	add    %cl,0x9(%esi)
     bcf:	99                   	cltd
     bd0:	03 00                	add    (%eax),%eax
     bd2:	00 02                	add    %al,(%edx)
     bd4:	91                   	xchg   %eax,%ecx
     bd5:	74 0a                	je     be1 <freopen+0x75>
     bd7:	36 02 00             	add    %ss:(%eax),%al
     bda:	00 4f 08             	add    %cl,0x8(%edi)
     bdd:	39 00                	cmp    %eax,(%eax)
     bdf:	00 00                	add    %al,(%eax)
     be1:	02 91 73 0a 09 02    	add    0x2090a73(%ecx),%dl
     be7:	00 00                	add    %al,(%eax)
     be9:	50                   	push   %eax
     bea:	09 99 03 00 00 02    	or     %ebx,0x2000003(%ecx)
     bf0:	91                   	xchg   %eax,%ecx
     bf1:	6c                   	insb   (%dx),%es:(%edi)
     bf2:	01 6e 65             	add    %ebp,0x65(%esi)
     bf5:	67 00 51 08          	add    %dl,0x8(%bx,%di)
     bf9:	39 00                	cmp    %eax,(%eax)
     bfb:	00 00                	add    %al,(%eax)
     bfd:	02 91 6b 00 04 04    	add    0x404006b(%ecx),%dl
     c03:	04 b6                	add    $0xb6,%al
     c05:	01 00                	add    %eax,(%eax)
     c07:	00 0d 78 02 00 00    	add    %cl,0x278
     c0d:	3d 05 85 00 00       	cmp    $0x8505,%eax
     c12:	00 79 10             	add    %bh,0x10(%ecx)
     c15:	00 00                	add    %al,(%eax)
     c17:	77 00                	ja     c19 <freopen+0xad>
     c19:	00 00                	add    %al,(%eax)
     c1b:	01 9c e4 03 00 00 06 	add    %ebx,0x6000003(%esp,%eiz,8)
     c22:	61                   	popa
     c23:	72 72                	jb     c97 <putchar+0x10>
     c25:	00 3d 16 4c 01 00    	add    %bh,0x14c16
     c2b:	00 02                	add    %al,(%edx)
     c2d:	91                   	xchg   %eax,%ecx
     c2e:	00 01                	add    %al,(%ecx)
     c30:	76 61                	jbe    c93 <putchar+0xc>
     c32:	6c                   	insb   (%dx),%es:(%edi)
     c33:	00 3e                	add    %bh,(%esi)
     c35:	07                   	pop    %es
     c36:	85 00                	test   %eax,(%eax)
     c38:	00 00                	add    %al,(%eax)
     c3a:	02 91 74 01 6e 65    	add    0x656e0174(%ecx),%dl
     c40:	67 00 3f             	add    %bh,(%bx)
     c43:	08 39                	or     %bh,(%ecx)
     c45:	00 00                	add    %al,(%eax)
     c47:	00 02                	add    %al,(%edx)
     c49:	91                   	xchg   %eax,%ecx
     c4a:	73 00                	jae    c4c <fputc+0x1f>
     c4c:	09 4d 02             	or     %ecx,0x2(%ebp)
     c4f:	00 00                	add    %al,(%eax)
     c51:	35 07 4c 00 00       	xor    $0x4c07,%eax
     c56:	00 2c 10             	add    %ch,(%eax,%edx,1)
     c59:	00 00                	add    %al,(%eax)
     c5b:	4d                   	dec    %ebp
     c5c:	00 00                	add    %al,(%eax)
     c5e:	00 01                	add    %al,(%ecx)
     c60:	9c                   	pushf
     c61:	28 04 00             	sub    %al,(%eax,%eax,1)
     c64:	00 06                	add    %al,(%esi)
     c66:	70 74                	jo     cdc <snprintf+0x21>
     c68:	72 00                	jb     c6a <putc+0xc>
     c6a:	35 15 4c 00 00       	xor    $0x4c15,%eax
     c6f:	00 02                	add    %al,(%edx)
     c71:	91                   	xchg   %eax,%ecx
     c72:	00 03                	add    %al,(%ebx)
     c74:	9a 05 00 00 35 21 26 	lcall  $0x2621,$0x35000005
     c7b:	00 00                	add    %al,(%eax)
     c7d:	00 02                	add    %al,(%edx)
     c7f:	91                   	xchg   %eax,%ecx
     c80:	04 0a                	add    $0xa,%al
     c82:	ee                   	out    %al,(%dx)
     c83:	01 00                	add    %eax,(%eax)
     c85:	00 36                	add    %dh,(%esi)
     c87:	08 4c 00 00          	or     %cl,0x0(%eax,%eax,1)
     c8b:	00 02                	add    %al,(%edx)
     c8d:	91                   	xchg   %eax,%ecx
     c8e:	6c                   	insb   (%dx),%es:(%edi)
     c8f:	00 0c 99             	add    %cl,(%ecx,%ebx,4)
     c92:	02 00                	add    (%eax),%al
     c94:	00 30                	add    %dh,(%eax)
     c96:	1c 10                	sbb    $0x10,%al
     c98:	00 00                	add    %al,(%eax)
     c9a:	10 00                	adc    %al,(%eax)
     c9c:	00 00                	add    %al,(%eax)
     c9e:	01 9c 4b 04 00 00 06 	add    %ebx,0x6000004(%ebx,%ecx,2)
     ca5:	6d                   	insl   (%dx),%es:(%edi)
     ca6:	65 6d                	gs insl (%dx),%es:(%edi)
     ca8:	00 30                	add    %dh,(%eax)
     caa:	11 4c 00 00          	adc    %ecx,0x0(%eax,%eax,1)
     cae:	00 02                	add    %al,(%edx)
     cb0:	91                   	xchg   %eax,%ecx
     cb1:	00 00                	add    %al,(%eax)
     cb3:	09 ea                	or     %ebp,%edx
     cb5:	02 00                	add    (%eax),%al
     cb7:	00 2c 07             	add    %ch,(%edi,%eax,1)
     cba:	4c                   	dec    %esp
     cbb:	00 00                	add    %al,(%eax)
     cbd:	00 f1                	add    %dh,%cl
     cbf:	0f 00 00             	sldt   (%eax)
     cc2:	2b 00                	sub    (%eax),%eax
     cc4:	00 00                	add    %al,(%eax)
     cc6:	01 9c 81 04 00 00 03 	add    %ebx,0x3000004(%ecx,%eax,4)
     ccd:	fd                   	std
     cce:	01 00                	add    %eax,(%eax)
     cd0:	00 2c 15 26 00 00 00 	add    %ch,0x26(,%edx,1)
     cd7:	02 91 00 03 9a 05    	add    0x59a0300(%ecx),%dl
     cdd:	00 00                	add    %al,(%eax)
     cdf:	2c 23                	sub    $0x23,%al
     ce1:	26 00 00             	add    %al,%es:(%eax)
     ce4:	00 02                	add    %al,(%edx)
     ce6:	91                   	xchg   %eax,%ecx
     ce7:	04 00                	add    $0x0,%al
     ce9:	09 d8                	or     %ebx,%eax
     ceb:	01 00                	add    %eax,(%eax)
     ced:	00 20                	add    %ah,(%eax)
     cef:	07                   	pop    %es
     cf0:	4c                   	dec    %esp
     cf1:	00 00                	add    %al,(%eax)
     cf3:	00 80 0f 00 00 71    	add    %al,0x7100000f(%eax)
     cf9:	00 00                	add    %al,(%eax)
     cfb:	00 01                	add    %al,(%ecx)
     cfd:	9c                   	pushf
     cfe:	b7 04                	mov    $0x4,%bh
     d00:	00 00                	add    %al,(%eax)
     d02:	03 9a 05 00 00 20    	add    0x20000005(%edx),%ebx
     d08:	15 26 00 00 00       	adc    $0x26,%eax
     d0d:	02 91 00 0a f8 01    	add    0x1f80a00(%ecx),%dl
     d13:	00 00                	add    %al,(%eax)
     d15:	21 0b                	and    %ecx,(%ebx)
     d17:	4c                   	dec    %esp
     d18:	00 00                	add    %al,(%eax)
     d1a:	00 02                	add    %al,(%edx)
     d1c:	91                   	xchg   %eax,%ecx
     d1d:	6c                   	insb   (%dx),%es:(%edi)
     d1e:	00 11                	add    %dl,(%ecx)
     d20:	aa                   	stos   %al,%es:(%edi)
     d21:	02 00                	add    (%eax),%al
     d23:	00 1c 47             	add    %bl,(%edi,%eax,2)
     d26:	0f 00 00             	sldt   (%eax)
     d29:	39 00                	cmp    %eax,(%eax)
     d2b:	00 00                	add    %al,(%eax)
     d2d:	01 9c 11 cd 02 00 00 	add    %ebx,0x2cd(%ecx,%edx,1)
     d34:	15 e3 0e 00 00       	adc    $0xee3,%eax
     d39:	64 00 00             	add    %al,%fs:(%eax)
     d3c:	00 01                	add    %al,(%ecx)
     d3e:	9c                   	pushf
     d3f:	00 44 07 00          	add    %al,0x0(%edi,%eax,1)
     d43:	00 05 00 01 04 e0    	add    %al,0xe0040100
     d49:	03 00                	add    (%eax),%eax
     d4b:	00 0f                	add    %cl,(%edi)
     d4d:	3a 01                	cmp    (%ecx),%al
     d4f:	00 00                	add    %al,(%eax)
     d51:	1d b4 00 00 00       	sbb    $0xb4,%eax
     d56:	11 00                	adc    %eax,(%eax)
     d58:	00 00                	add    %al,(%eax)
     d5a:	f6 14 00             	notb   (%eax,%eax,1)
     d5d:	00 33                	add    %dh,(%ebx)
     d5f:	0a 00                	or     (%eax),%al
     d61:	00 ec                	add    %ch,%ah
     d63:	08 00                	or     %al,(%eax)
     d65:	00 04 02             	add    %al,(%edx,%eax,1)
     d68:	07                   	pop    %es
     d69:	78 00                	js     d6b <snprintf+0xb0>
     d6b:	00 00                	add    %al,(%eax)
     d6d:	10 04 05 69 6e 74 00 	adc    %al,0x746e69(,%eax,1)
     d74:	04 04                	add    $0x4,%al
     d76:	07                   	pop    %es
     d77:	cb                   	lret
     d78:	03 00                	add    (%eax),%eax
     d7a:	00 0d 07 00 00 00    	add    %cl,0x7
     d80:	02 0e                	add    (%esi),%cl
     d82:	1b 47 00             	sbb    0x0(%edi),%eax
     d85:	00 00                	add    %al,(%eax)
     d87:	04 04                	add    $0x4,%al
     d89:	07                   	pop    %es
     d8a:	c6 03 00             	movb   $0x0,(%ebx)
     d8d:	00 0c 47             	add    %cl,(%edi,%eax,2)
     d90:	00 00                	add    %al,(%eax)
     d92:	00 04 01             	add    %al,(%ecx,%eax,1)
     d95:	06                   	push   %es
     d96:	a5                   	movsl  %ds:(%esi),%es:(%edi)
     d97:	03 00                	add    (%eax),%eax
     d99:	00 04 02             	add    %al,(%edx,%eax,1)
     d9c:	05 c3 02 00 00       	add    $0x2c3,%eax
     da1:	04 08                	add    $0x8,%al
     da3:	05 7f 03 00 00       	add    $0x37f,%eax
     da8:	04 01                	add    $0x1,%al
     daa:	08 a3 03 00 00 0c    	or     %ah,0xc000003(%ebx)
     db0:	68 00 00 00 04       	push   $0x4000000
     db5:	08 07                	or     %al,(%edi)
     db7:	c1 03 00             	roll   $0x0,(%ebx)
     dba:	00 0d 0b 03 00 00    	add    %cl,0x30b
     dc0:	03 28                	add    (%eax),%ebp
     dc2:	0f 87 00 00 00 11    	ja     11000dc8 <_end+0x10ffd7b0>
     dc8:	04 12                	add    $0x12,%al
     dca:	d8 01                	fadds  (%ecx)
     dcc:	00 00                	add    %al,(%eax)
     dce:	04 0e                	add    $0xe,%al
     dd0:	07                   	pop    %es
     dd1:	87 00                	xchg   %eax,(%eax)
     dd3:	00 00                	add    %al,(%eax)
     dd5:	9f                   	lahf
     dd6:	00 00                	add    %al,(%eax)
     dd8:	00 13                	add    %dl,(%ebx)
     dda:	3b 00                	cmp    (%eax),%eax
     ddc:	00 00                	add    %al,(%eax)
     dde:	00 14 1a             	add    %dl,(%edx,%ebx,1)
     de1:	04 00                	add    $0x0,%al
     de3:	00 01                	add    %al,(%ecx)
     de5:	9d                   	popf
     de6:	01 07                	add    %eax,(%edi)
     de8:	e6 00                	out    %al,$0x0
     dea:	00 00                	add    %al,(%eax)
     dec:	b5 1e                	mov    $0x1e,%ch
     dee:	00 00                	add    %al,(%eax)
     df0:	74 00                	je     df2 <snprintf+0x137>
     df2:	00 00                	add    %al,(%eax)
     df4:	01 9c e6 00 00 00 09 	add    %ebx,0x9000000(%esi,%eiz,8)
     dfb:	73 00                	jae    dfd <snprintf+0x142>
     dfd:	9d                   	popf
     dfe:	01 1a                	add    %ebx,(%edx)
     e00:	f7 00 00 00 02 91    	testl  $0x91020000,(%eax)
     e06:	00 07                	add    %al,(%edi)
     e08:	6c                   	insb   (%dx),%es:(%edi)
     e09:	65 6e                	outsb  %gs:(%esi),(%dx)
     e0b:	00 9f 01 07 2d 00    	add    %bl,0x2d0701(%edi)
     e11:	00 00                	add    %al,(%eax)
     e13:	02 91 6c 07 73 74    	add    0x7473076c(%ecx),%dl
     e19:	72 00                	jb     e1b <snprintf+0x160>
     e1b:	a0 01 09 e6 00       	mov    0xe60901,%al
     e20:	00 00                	add    %al,(%eax)
     e22:	02 91 68 00 05 eb    	add    -0x14faff98(%ecx),%dl
     e28:	00 00                	add    %al,(%eax)
     e2a:	00 04 01             	add    %al,(%ecx,%eax,1)
     e2d:	06                   	push   %es
     e2e:	ac                   	lods   %ds:(%esi),%al
     e2f:	03 00                	add    (%eax),%eax
     e31:	00 0c eb             	add    %cl,(%ebx,%ebp,8)
     e34:	00 00                	add    %al,(%eax)
     e36:	00 05 f2 00 00 00    	add    %al,0xf2
     e3c:	15 d8 03 00 00       	adc    $0x3d8,%eax
     e41:	01 8e 01 07 e6 00    	add    %ecx,0xe60701(%esi)
     e47:	00 00                	add    %al,(%eax)
     e49:	4a                   	dec    %edx
     e4a:	1e                   	push   %ds
     e4b:	00 00                	add    %al,(%eax)
     e4d:	6b 00 00             	imul   $0x0,(%eax),%eax
     e50:	00 01                	add    %al,(%ecx)
     e52:	9c                   	pushf
     e53:	52                   	push   %edx
     e54:	01 00                	add    %eax,(%eax)
     e56:	00 09                	add    %cl,(%ecx)
     e58:	64 73 74             	fs jae ecf <snprintf+0x214>
     e5b:	00 8e 01 15 e6 00    	add    %cl,0xe61501(%esi)
     e61:	00 00                	add    %al,(%eax)
     e63:	02 91 00 09 73 72    	add    0x72730900(%ecx),%dl
     e69:	63 00                	arpl   %eax,(%eax)
     e6b:	8e 01                	mov    (%ecx),%es
     e6d:	26 f7 00 00 00 02 91 	testl  $0x91020000,%es:(%eax)
     e74:	04 09                	add    $0x9,%al
     e76:	6e                   	outsb  %ds:(%esi),(%dx)
     e77:	75 6d                	jne    ee6 <init_stdlib+0x3>
     e79:	00 8e 01 32 3b 00    	add    %cl,0x3b3201(%esi)
     e7f:	00 00                	add    %al,(%eax)
     e81:	02 91 08 07 69 00    	add    0x690708(%ecx),%dl
     e87:	90                   	nop
     e88:	01 09                	add    %ecx,(%ecx)
     e8a:	2d 00 00 00 02       	sub    $0x2000000,%eax
     e8f:	91                   	xchg   %eax,%ecx
     e90:	74 00                	je     e92 <snprintf+0x1d7>
     e92:	03 b1 03 00 00 fd    	add    -0x2fffffd(%ecx),%esi
     e98:	07                   	pop    %es
     e99:	e6 00                	out    %al,$0x0
     e9b:	00 00                	add    %al,(%eax)
     e9d:	e3 1c                	jecxz  ebb <snprintf+0x200>
     e9f:	00 00                	add    %al,(%eax)
     ea1:	67 01 00             	add    %eax,(%bx,%si)
     ea4:	00 01                	add    %al,(%ecx)
     ea6:	9c                   	pushf
     ea7:	f5                   	cmc
     ea8:	01 00                	add    %eax,(%eax)
     eaa:	00 01                	add    %al,(%ecx)
     eac:	73 00                	jae    eae <snprintf+0x1f3>
     eae:	fd                   	std
     eaf:	1b f7                	sbb    %edi,%esi
     eb1:	00 00                	add    %al,(%eax)
     eb3:	00 02                	add    %al,(%edx)
     eb5:	91                   	xchg   %eax,%ecx
     eb6:	00 08                	add    %cl,(%eax)
     eb8:	08 04 00             	or     %al,(%eax,%eax,1)
     ebb:	00 fd                	add    %bh,%ch
     ebd:	22 2d 00 00 00 02    	and    0x2000000,%ch
     ec3:	91                   	xchg   %eax,%ecx
     ec4:	04 06                	add    $0x6,%al
     ec6:	11 03                	adc    %eax,(%ebx)
     ec8:	00 00                	add    %al,(%eax)
     eca:	ff 18                	lcall  *(%eax)
     ecc:	f5                   	cmc
     ecd:	01 00                	add    %eax,(%eax)
     ecf:	00 02                	add    %al,(%edx)
     ed1:	91                   	xchg   %eax,%ecx
     ed2:	70 0a                	jo     ede <__x86.get_pc_thunk.ax+0x3>
     ed4:	23 03                	and    (%ebx),%eax
     ed6:	00 00                	add    %al,(%eax)
     ed8:	00 01                	add    %al,(%ecx)
     eda:	1c fa                	sbb    $0xfa,%al
     edc:	01 00                	add    %eax,(%eax)
     ede:	00 02                	add    %al,(%edx)
     ee0:	91                   	xchg   %eax,%ecx
     ee1:	74 0a                	je     eed <init_stdlib+0xa>
     ee3:	3f                   	aas
     ee4:	03 00                	add    (%eax),%eax
     ee6:	00 01                	add    %al,(%ecx)
     ee8:	01 15 47 00 00 00    	add    %edx,0x47
     eee:	02 91 60 0a ef 03    	add    0x3ef0a60(%ecx),%dl
     ef4:	00 00                	add    %al,(%eax)
     ef6:	01 01                	add    %eax,(%ecx)
     ef8:	1f                   	pop    %ds
     ef9:	47                   	inc    %edi
     efa:	00 00                	add    %al,(%eax)
     efc:	00 02                	add    %al,(%edx)
     efe:	91                   	xchg   %eax,%ecx
     eff:	68 0a 1a 03 00       	push   $0x31a0a
     f04:	00 01                	add    %al,(%ecx)
     f06:	01 2b                	add    %ebp,(%ebx)
     f08:	47                   	inc    %edi
     f09:	00 00                	add    %al,(%eax)
     f0b:	00 02                	add    %al,(%edx)
     f0d:	91                   	xchg   %eax,%ecx
     f0e:	64 07                	fs pop %es
     f10:	63 00                	arpl   %eax,(%eax)
     f12:	02 01                	add    (%ecx),%al
     f14:	11 68 00             	adc    %ebp,0x0(%eax)
     f17:	00 00                	add    %al,(%eax)
     f19:	02 91 6f 0e b8 1d    	add    0x1db80e6f(%ecx),%dl
     f1f:	00 00                	add    %al,(%eax)
     f21:	90                   	nop
     f22:	00 00                	add    %al,(%eax)
     f24:	00 07                	add    %al,(%edi)
     f26:	63 70 00             	arpl   %esi,0x0(%eax)
     f29:	63 01                	arpl   %eax,(%ecx)
     f2b:	19 f5                	sbb    %esi,%ebp
     f2d:	01 00                	add    %eax,(%eax)
     f2f:	00 02                	add    %al,(%edx)
     f31:	91                   	xchg   %eax,%ecx
     f32:	5c                   	pop    %esp
     f33:	00 00                	add    %al,(%eax)
     f35:	05 6f 00 00 00       	add    $0x6f,%eax
     f3a:	05 4e 00 00 00       	add    $0x4e,%eax
     f3f:	0b 69 03             	or     0x3(%ecx),%ebp
     f42:	00 00                	add    %al,(%eax)
     f44:	d4 08                	aam    $0x8
     f46:	3b 00                	cmp    (%eax),%eax
     f48:	00 00                	add    %al,(%eax)
     f4a:	f6 1a                	negb   (%edx)
     f4c:	00 00                	add    %al,(%eax)
     f4e:	ed                   	in     (%dx),%eax
     f4f:	01 00                	add    %eax,(%eax)
     f51:	00 01                	add    %al,(%ecx)
     f53:	9c                   	pushf
     f54:	ac                   	lods   %ds:(%esi),%al
     f55:	02 00                	add    (%eax),%al
     f57:	00 01                	add    %al,(%ecx)
     f59:	73 74                	jae    fcf <malloc+0x4f>
     f5b:	72 00                	jb     f5d <clean_stdlib+0x16>
     f5d:	d4 1d                	aam    $0x1d
     f5f:	f7 00 00 00 02 91    	testl  $0x91020000,(%eax)
     f65:	00 08                	add    %cl,(%eax)
     f67:	30 03                	xor    %al,(%ebx)
     f69:	00 00                	add    %al,(%eax)
     f6b:	d4 2e                	aam    $0x2e
     f6d:	f7 00 00 00 02 91    	testl  $0x91020000,(%eax)
     f73:	04 06                	add    $0x6,%al
     f75:	63 03                	arpl   %eax,(%ebx)
     f77:	00 00                	add    %al,(%eax)
     f79:	da 11                	ficoml (%ecx)
     f7b:	ac                   	lods   %ds:(%esi),%al
     f7c:	02 00                	add    (%eax),%al
     f7e:	00 03                	add    %al,(%ebx)
     f80:	91                   	xchg   %eax,%ecx
     f81:	d0 7d 02             	sarb   $1,0x2(%ebp)
     f84:	70 00                	jo     f86 <malloc+0x6>
     f86:	db 12                	fistl  (%edx)
     f88:	bc 02 00 00 02       	mov    $0x2000002,%esp
     f8d:	91                   	xchg   %eax,%ecx
     f8e:	68 02 73 00 e0       	push   $0xe0007302
     f93:	12 bc 02 00 00 02 91 	adc    -0x6efe0000(%edx,%eax,1),%bh
     f9a:	6c                   	insb   (%dx),%es:(%edi)
     f9b:	02 74 6d 70          	add    0x70(%ebp,%ebp,2),%dh
     f9f:	00 e1                	add    %ah,%cl
     fa1:	11 68 00             	adc    %ebp,0x0(%eax)
     fa4:	00 00                	add    %al,(%eax)
     fa6:	02 91 67 02 63 30    	add    0x30630267(%ecx),%dl
     fac:	00 ee                	add    %ch,%dh
     fae:	10 34 00             	adc    %dh,(%eax,%eax,1)
     fb1:	00 00                	add    %al,(%eax)
     fb3:	02 91 60 02 63 31    	add    0x31630260(%ecx),%dl
     fb9:	00 ee                	add    %ch,%dh
     fbb:	14 34                	adc    $0x34,%al
     fbd:	00 00                	add    %al,(%eax)
     fbf:	00 02                	add    %al,(%edx)
     fc1:	91                   	xchg   %eax,%ecx
     fc2:	5c                   	pop    %esp
     fc3:	02 63 32             	add    0x32(%ebx),%ah
     fc6:	00 ee                	add    %ch,%dh
     fc8:	18 34 00             	sbb    %dh,(%eax,%eax,1)
     fcb:	00 00                	add    %al,(%eax)
     fcd:	02 91 58 02 63 33    	add    0x33630258(%ecx),%dl
     fd3:	00 ee                	add    %ch,%dh
     fd5:	1c 34                	sbb    $0x34,%al
     fd7:	00 00                	add    %al,(%eax)
     fd9:	00 02                	add    %al,(%edx)
     fdb:	91                   	xchg   %eax,%ecx
     fdc:	54                   	push   %esp
     fdd:	06                   	push   %es
     fde:	0d 04 00 00 f9       	or     $0xf9000004,%eax
     fe3:	0a 3b                	or     (%ebx),%bh
     fe5:	00 00                	add    %al,(%eax)
     fe7:	00 02                	add    %al,(%edx)
     fe9:	91                   	xchg   %eax,%ecx
     fea:	50                   	push   %eax
     feb:	00 16                	add    %dl,(%esi)
     fed:	68 00 00 00 bc       	push   $0xbc000000
     ff2:	02 00                	add    (%eax),%al
     ff4:	00 17                	add    %dl,(%edi)
     ff6:	47                   	inc    %edi
     ff7:	00 00                	add    %al,(%eax)
     ff9:	00 ff                	add    %bh,%bh
     ffb:	00 05 68 00 00 00    	add    %al,0x68
    1001:	18 51 03             	sbb    %dl,0x3(%ecx)
    1004:	00 00                	add    %al,(%eax)
    1006:	01 cc                	add    %ecx,%esp
    1008:	01 e6                	add    %esp,%esi
    100a:	00 00                	add    %al,(%eax)
    100c:	00 af 1a 00 00 47    	add    %ch,0x4700001a(%edi)
    1012:	00 00                	add    %al,(%eax)
    1014:	00 01                	add    %al,(%ecx)
    1016:	9c                   	pushf
    1017:	02 03                	add    (%ebx),%al
    1019:	00 00                	add    %al,(%eax)
    101b:	01 73 00             	add    %esi,0x0(%ebx)
    101e:	cc                   	int3
    101f:	1a f7                	sbb    %bh,%dh
    1021:	00 00                	add    %al,(%eax)
    1023:	00 02                	add    %al,(%edx)
    1025:	91                   	xchg   %eax,%ecx
    1026:	00 01                	add    %al,(%ecx)
    1028:	63 00                	arpl   %eax,(%eax)
    102a:	cc                   	int3
    102b:	21 2d 00 00 00 02    	and    %ebp,0x2000000
    1031:	91                   	xchg   %eax,%ecx
    1032:	04 06                	add    $0x6,%al
    1034:	8d 03                	lea    (%ebx),%eax
    1036:	00 00                	add    %al,(%eax)
    1038:	ce                   	into
    1039:	09 e6                	or     %esp,%esi
    103b:	00 00                	add    %al,(%eax)
    103d:	00 02                	add    %al,(%edx)
    103f:	91                   	xchg   %eax,%ecx
    1040:	6c                   	insb   (%dx),%es:(%edi)
    1041:	00 0b                	add    %cl,(%ebx)
    1043:	01 04 00             	add    %eax,(%eax,%eax,1)
    1046:	00 9d 08 3b 00 00    	add    %bl,0x3b08(%ebp)
    104c:	00 b1 18 00 00 fe    	add    %dh,-0x1ffffe8(%ecx)
    1052:	01 00                	add    %eax,(%eax)
    1054:	00 01                	add    %al,(%ecx)
    1056:	9c                   	pushf
    1057:	b7 03                	mov    $0x3,%bh
    1059:	00 00                	add    %al,(%eax)
    105b:	01 73 74             	add    %esi,0x74(%ebx)
    105e:	72 00                	jb     1060 <realloc+0x34>
    1060:	9d                   	popf
    1061:	1c f7                	sbb    $0xf7,%al
    1063:	00 00                	add    %al,(%eax)
    1065:	00 02                	add    %al,(%edx)
    1067:	91                   	xchg   %eax,%ecx
    1068:	00 08                	add    %cl,(%eax)
    106a:	fa                   	cli
    106b:	03 00                	add    (%eax),%eax
    106d:	00 9d 2d f7 00 00    	add    %bl,0xf72d(%ebp)
    1073:	00 02                	add    %al,(%edx)
    1075:	91                   	xchg   %eax,%ecx
    1076:	04 06                	add    $0x6,%al
    1078:	63 03                	arpl   %eax,(%ebx)
    107a:	00 00                	add    %al,(%eax)
    107c:	a8 11                	test   $0x11,%al
    107e:	ac                   	lods   %ds:(%esi),%al
    107f:	02 00                	add    (%eax),%al
    1081:	00 03                	add    %al,(%ebx)
    1083:	91                   	xchg   %eax,%ecx
    1084:	d0 7d 02             	sarb   $1,0x2(%ebp)
    1087:	70 00                	jo     1089 <atoi+0x10>
    1089:	a9 12 bc 02 00       	test   $0x2bc12,%eax
    108e:	00 02                	add    %al,(%edx)
    1090:	91                   	xchg   %eax,%ecx
    1091:	68 02 73 00 ae       	push   $0xae007302
    1096:	12 bc 02 00 00 02 91 	adc    -0x6efe0000(%edx,%eax,1),%bh
    109d:	6c                   	insb   (%dx),%es:(%edi)
    109e:	02 63 30             	add    0x30(%ebx),%ah
    10a1:	00 be 10 34 00 00    	add    %bh,0x3410(%esi)
    10a7:	00 02                	add    %al,(%edx)
    10a9:	91                   	xchg   %eax,%ecx
    10aa:	64 02 63 31          	add    %fs:0x31(%ebx),%ah
    10ae:	00 be 14 34 00 00    	add    %bh,0x3414(%esi)
    10b4:	00 02                	add    %al,(%edx)
    10b6:	91                   	xchg   %eax,%ecx
    10b7:	60                   	pusha
    10b8:	02 63 32             	add    0x32(%ebx),%ah
    10bb:	00 be 18 34 00 00    	add    %bh,0x3418(%esi)
    10c1:	00 02                	add    %al,(%edx)
    10c3:	91                   	xchg   %eax,%ecx
    10c4:	5c                   	pop    %esp
    10c5:	02 63 33             	add    0x33(%ebx),%ah
    10c8:	00 be 1c 34 00 00    	add    %bh,0x341c(%esi)
    10ce:	00 02                	add    %al,(%edx)
    10d0:	91                   	xchg   %eax,%ecx
    10d1:	58                   	pop    %eax
    10d2:	06                   	push   %es
    10d3:	0d 04 00 00 c7       	or     $0xc7000004,%eax
    10d8:	0a 3b                	or     (%ebx),%bh
    10da:	00 00                	add    %al,(%eax)
    10dc:	00 02                	add    %al,(%edx)
    10de:	91                   	xchg   %eax,%ecx
    10df:	54                   	push   %esp
    10e0:	0e                   	push   %cs
    10e1:	e3 18                	jecxz  10fb <atof+0xb>
    10e3:	00 00                	add    %al,(%eax)
    10e5:	24 00                	and    $0x0,%al
    10e7:	00 00                	add    %al,(%eax)
    10e9:	02 61 00             	add    0x0(%ecx),%ah
    10ec:	a2 13 f7 00 00       	mov    %al,0xf713
    10f1:	00 02                	add    %al,(%edx)
    10f3:	91                   	xchg   %eax,%ecx
    10f4:	50                   	push   %eax
    10f5:	00 00                	add    %al,(%eax)
    10f7:	0b 48 03             	or     0x3(%eax),%ecx
    10fa:	00 00                	add    %al,(%eax)
    10fc:	78 07                	js     1105 <atof+0x15>
    10fe:	e6 00                	out    %al,$0x0
    1100:	00 00                	add    %al,(%eax)
    1102:	05 18 00 00 ac       	add    $0xac000018,%eax
    1107:	00 00                	add    %al,(%eax)
    1109:	00 01                	add    %al,(%ecx)
    110b:	9c                   	pushf
    110c:	07                   	pop    %es
    110d:	04 00                	add    $0x0,%al
    110f:	00 01                	add    %al,(%ecx)
    1111:	73 00                	jae    1113 <atof+0x23>
    1113:	78 17                	js     112c <atof+0x3c>
    1115:	e6 00                	out    %al,$0x0
    1117:	00 00                	add    %al,(%eax)
    1119:	02 91 00 08 5d 03    	add    0x35d0800(%ecx),%dl
    111f:	00 00                	add    %al,(%eax)
    1121:	78 26                	js     1149 <atof+0x59>
    1123:	f7 00 00 00 02 91    	testl  $0x91020000,(%eax)
    1129:	04 08                	add    $0x8,%al
    112b:	b8 03 00 00 78       	mov    $0x78000003,%eax
    1130:	34 07                	xor    $0x7,%al
    1132:	04 00                	add    $0x0,%al
    1134:	00 02                	add    %al,(%edx)
    1136:	91                   	xchg   %eax,%ecx
    1137:	08 02                	or     %al,(%edx)
    1139:	65 6e                	outsb  %gs:(%esi),(%dx)
    113b:	64 00 79 09          	add    %bh,%fs:0x9(%ecx)
    113f:	e6 00                	out    %al,$0x0
    1141:	00 00                	add    %al,(%eax)
    1143:	02 91 6c 00 05 e6    	add    -0x19faff94(%ecx),%dl
    1149:	00 00                	add    %al,(%eax)
    114b:	00 03                	add    %al,(%ebx)
    114d:	55                   	push   %ebp
    114e:	00 00                	add    %al,(%eax)
    1150:	00 6f 08             	add    %ch,0x8(%edi)
    1153:	3b 00                	cmp    (%eax),%eax
    1155:	00 00                	add    %al,(%eax)
    1157:	d8 17                	fcoms  (%edi)
    1159:	00 00                	add    %al,(%eax)
    115b:	2d 00 00 00 01       	sub    $0x1000000,%eax
    1160:	9c                   	pushf
    1161:	42                   	inc    %edx
    1162:	04 00                	add    $0x0,%al
    1164:	00 01                	add    %al,(%ecx)
    1166:	73 74                	jae    11dc <itoa+0xc>
    1168:	72 00                	jb     116a <atof+0x7a>
    116a:	6f                   	outsl  %ds:(%esi),(%dx)
    116b:	1c f7                	sbb    $0xf7,%al
    116d:	00 00                	add    %al,(%eax)
    116f:	00 02                	add    %al,(%edx)
    1171:	91                   	xchg   %eax,%ecx
    1172:	00 06                	add    %al,(%esi)
    1174:	94                   	xchg   %eax,%esp
    1175:	03 00                	add    (%eax),%eax
    1177:	00 70 0a             	add    %dh,0xa(%eax)
    117a:	3b 00                	cmp    (%eax),%eax
    117c:	00 00                	add    %al,(%eax)
    117e:	02 91 74 00 03 37    	add    0x37030074(%ecx),%dl
    1184:	03 00                	add    (%eax),%eax
    1186:	00 5f 05             	add    %bl,0x5(%edi)
    1189:	2d 00 00 00 7f       	sub    $0x7f000000,%eax
    118e:	17                   	pop    %ss
    118f:	00 00                	add    %al,(%eax)
    1191:	59                   	pop    %ecx
    1192:	00 00                	add    %al,(%eax)
    1194:	00 01                	add    %al,(%ecx)
    1196:	9c                   	pushf
    1197:	98                   	cwtl
    1198:	04 00                	add    $0x0,%al
    119a:	00 01                	add    %al,(%ecx)
    119c:	73 31                	jae    11cf <atof+0xdf>
    119e:	00 5f 19             	add    %bl,0x19(%edi)
    11a1:	f7 00 00 00 02 91    	testl  $0x91020000,(%eax)
    11a7:	00 01                	add    %al,(%ecx)
    11a9:	73 32                	jae    11dd <itoa+0xd>
    11ab:	00 5f 29             	add    %bl,0x29(%edi)
    11ae:	f7 00 00 00 02 91    	testl  $0x91020000,(%eax)
    11b4:	04 01                	add    $0x1,%al
    11b6:	6e                   	outsb  %ds:(%esi),(%dx)
    11b7:	00 5f 3d             	add    %bl,0x3d(%edi)
    11ba:	3b 00                	cmp    (%eax),%eax
    11bc:	00 00                	add    %al,(%eax)
    11be:	01 51 02             	add    %edx,0x2(%ecx)
    11c1:	75 31                	jne    11f4 <itoa+0x24>
    11c3:	00 61 1a             	add    %ah,0x1a(%ecx)
    11c6:	68 00 00 00 01       	push   $0x1000000
    11cb:	53                   	push   %ebx
    11cc:	19 75 32             	sbb    %esi,0x32(%ebp)
    11cf:	00 01                	add    %al,(%ecx)
    11d1:	61                   	popa
    11d2:	1e                   	push   %ds
    11d3:	68 00 00 00 00       	push   $0x0
    11d8:	03 71 03             	add    0x3(%ecx),%esi
    11db:	00 00                	add    %al,(%eax)
    11dd:	56                   	push   %esi
    11de:	07                   	pop    %es
    11df:	e6 00                	out    %al,$0x0
    11e1:	00 00                	add    %al,(%eax)
    11e3:	41                   	inc    %ecx
    11e4:	17                   	pop    %ss
    11e5:	00 00                	add    %al,(%eax)
    11e7:	3e 00 00             	add    %al,%ds:(%eax)
    11ea:	00 01                	add    %al,(%ecx)
    11ec:	9c                   	pushf
    11ed:	d8 04 00             	fadds  (%eax,%eax,1)
    11f0:	00 01                	add    %al,(%ecx)
    11f2:	73 31                	jae    1225 <itoa+0x55>
    11f4:	00 56 14             	add    %dl,0x14(%esi)
    11f7:	e6 00                	out    %al,$0x0
    11f9:	00 00                	add    %al,(%eax)
    11fb:	02 91 00 01 73 32    	add    0x32730100(%ecx),%dl
    1201:	00 56 24             	add    %dl,0x24(%esi)
    1204:	f7 00 00 00 02 91    	testl  $0x91020000,(%eax)
    120a:	04 02                	add    $0x2,%al
    120c:	73 00                	jae    120e <itoa+0x3e>
    120e:	57                   	push   %edi
    120f:	08 e6                	or     %ah,%dh
    1211:	00 00                	add    %al,(%eax)
    1213:	00 02                	add    %al,(%edx)
    1215:	91                   	xchg   %eax,%ecx
    1216:	74 00                	je     1218 <itoa+0x48>
    1218:	0b e7                	or     %edi,%esp
    121a:	03 00                	add    (%eax),%eax
    121c:	00 52 05             	add    %dl,0x5(%edx)
    121f:	2d 00 00 00 18       	sub    $0x18000000,%eax
    1224:	17                   	pop    %ss
    1225:	00 00                	add    %al,(%eax)
    1227:	29 00                	sub    %eax,(%eax)
    1229:	00 00                	add    %al,(%eax)
    122b:	01 9c 0c 05 00 00 01 	add    %ebx,0x1000005(%esp,%ecx,1)
    1232:	73 31                	jae    1265 <itoa+0x95>
    1234:	00 52 19             	add    %dl,0x19(%edx)
    1237:	f7 00 00 00 02 91    	testl  $0x91020000,(%eax)
    123d:	00 01                	add    %al,(%ecx)
    123f:	73 32                	jae    1273 <itoa+0xa3>
    1241:	00 52 29             	add    %dl,0x29(%edx)
    1244:	f7 00 00 00 02 91    	testl  $0x91020000,(%eax)
    124a:	04 00                	add    $0x0,%al
    124c:	03 13                	add    (%ebx),%edx
    124e:	04 00                	add    $0x0,%al
    1250:	00 4a 05             	add    %cl,0x5(%edx)
    1253:	2d 00 00 00 c9       	sub    $0xc9000000,%eax
    1258:	16                   	push   %ss
    1259:	00 00                	add    %al,(%eax)
    125b:	4f                   	dec    %edi
    125c:	00 00                	add    %al,(%eax)
    125e:	00 01                	add    %al,(%ecx)
    1260:	9c                   	pushf
    1261:	40                   	inc    %eax
    1262:	05 00 00 01 73       	add    $0x73010000,%eax
    1267:	31 00                	xor    %eax,(%eax)
    1269:	4a                   	dec    %edx
    126a:	18 f7                	sbb    %dh,%bh
    126c:	00 00                	add    %al,(%eax)
    126e:	00 02                	add    %al,(%edx)
    1270:	91                   	xchg   %eax,%ecx
    1271:	00 01                	add    %al,(%ecx)
    1273:	73 32                	jae    12a7 <itoa+0xd7>
    1275:	00 4a 28             	add    %cl,0x28(%edx)
    1278:	f7 00 00 00 02 91    	testl  $0x91020000,(%eax)
    127e:	04 00                	add    $0x0,%al
    1280:	03 e0                	add    %eax,%esp
    1282:	03 00                	add    (%eax),%eax
    1284:	00 40 07             	add    %al,0x7(%eax)
    1287:	e6 00                	out    %al,$0x0
    1289:	00 00                	add    %al,(%eax)
    128b:	85 16                	test   %edx,(%esi)
    128d:	00 00                	add    %al,(%eax)
    128f:	44                   	inc    %esp
    1290:	00 00                	add    %al,(%eax)
    1292:	00 01                	add    %al,(%ecx)
    1294:	9c                   	pushf
    1295:	80 05 00 00 01 73 31 	addb   $0x31,0x73010000
    129c:	00 40 14             	add    %al,0x14(%eax)
    129f:	e6 00                	out    %al,$0x0
    12a1:	00 00                	add    %al,(%eax)
    12a3:	02 91 00 01 73 32    	add    0x32730100(%ecx),%dl
    12a9:	00 40 24             	add    %al,0x24(%eax)
    12ac:	f7 00 00 00 02 91    	testl  $0x91020000,(%eax)
    12b2:	04 02                	add    $0x2,%al
    12b4:	73 00                	jae    12b6 <itoa+0xe6>
    12b6:	41                   	inc    %ecx
    12b7:	08 e6                	or     %ah,%dh
    12b9:	00 00                	add    %al,(%eax)
    12bb:	00 02                	add    %al,(%edx)
    12bd:	91                   	xchg   %eax,%ecx
    12be:	74 00                	je     12c0 <itoa+0xf0>
    12c0:	03 ac 00 00 00 36 07 	add    0x7360000(%eax,%eax,1),%ebp
    12c7:	87 00                	xchg   %eax,(%eax)
    12c9:	00 00                	add    %al,(%eax)
    12cb:	4e                   	dec    %esi
    12cc:	16                   	push   %ss
    12cd:	00 00                	add    %al,(%eax)
    12cf:	37                   	aaa
    12d0:	00 00                	add    %al,(%eax)
    12d2:	00 01                	add    %al,(%ecx)
    12d4:	9c                   	pushf
    12d5:	d8 05 00 00 01 73    	fadds  0x73010000
    12db:	00 36                	add    %dh,(%esi)
    12dd:	14 87                	adc    $0x87,%al
    12df:	00 00                	add    %al,(%eax)
    12e1:	00 02                	add    %al,(%edx)
    12e3:	91                   	xchg   %eax,%ecx
    12e4:	00 01                	add    %al,(%ecx)
    12e6:	63 00                	arpl   %eax,(%eax)
    12e8:	36 1b 2d 00 00 00 02 	sbb    %ss:0x2000000,%ebp
    12ef:	91                   	xchg   %eax,%ecx
    12f0:	04 01                	add    $0x1,%al
    12f2:	6e                   	outsb  %ds:(%esi),(%dx)
    12f3:	00 36                	add    %dh,(%esi)
    12f5:	25 3b 00 00 00       	and    $0x3b,%eax
    12fa:	02 91 08 02 75 63    	add    0x63750208(%ecx),%dl
    1300:	00 37                	add    %dh,(%edi)
    1302:	16                   	push   %ss
    1303:	6f                   	outsl  %ds:(%esi),(%dx)
    1304:	00 00                	add    %al,(%eax)
    1306:	00 02                	add    %al,(%edx)
    1308:	91                   	xchg   %eax,%ecx
    1309:	73 02                	jae    130d <srand+0xd>
    130b:	73 75                	jae    1382 <strtol+0x4e>
    130d:	00 38                	add    %bh,(%eax)
    130f:	11 bc 02 00 00 02 91 	adc    %edi,-0x6efe0000(%edx,%eax,1)
    1316:	74 00                	je     1318 <srand+0x18>
    1318:	03 9b 03 00 00 25    	add    0x25000003(%ebx),%ebx
    131e:	07                   	pop    %es
    131f:	87 00                	xchg   %eax,(%eax)
    1321:	00 00                	add    %al,(%eax)
    1323:	d0 15 00 00 7e 00    	rclb   $1,0x7e0000
    1329:	00 00                	add    %al,(%eax)
    132b:	01 9c 34 06 00 00 01 	add    %ebx,0x1000006(%esp,%esi,1)
    1332:	73 31                	jae    1365 <strtol+0x31>
    1334:	00 25 15 87 00 00    	add    %ah,0x8715
    133a:	00 02                	add    %al,(%edx)
    133c:	91                   	xchg   %eax,%ecx
    133d:	00 01                	add    %al,(%ecx)
    133f:	73 32                	jae    1373 <strtol+0x3f>
    1341:	00 25 25 34 06 00    	add    %ah,0x63425
    1347:	00 02                	add    %al,(%edx)
    1349:	91                   	xchg   %eax,%ecx
    134a:	04 01                	add    $0x1,%al
    134c:	6e                   	outsb  %ds:(%esi),(%dx)
    134d:	00 25 30 3b 00 00    	add    %ah,0x3b30
    1353:	00 02                	add    %al,(%edx)
    1355:	91                   	xchg   %eax,%ecx
    1356:	08 02                	or     %al,(%edx)
    1358:	73 63                	jae    13bd <strtol+0x89>
    135a:	31 00                	xor    %eax,(%eax)
    135c:	26 08 e6             	es or  %ah,%dh
    135f:	00 00                	add    %al,(%eax)
    1361:	00 02                	add    %al,(%edx)
    1363:	91                   	xchg   %eax,%ecx
    1364:	74 02                	je     1368 <strtol+0x34>
    1366:	73 63                	jae    13cb <strtol+0x97>
    1368:	32 00                	xor    (%eax),%al
    136a:	27                   	daa
    136b:	0e                   	push   %cs
    136c:	f7 00 00 00 02 91    	testl  $0x91020000,(%eax)
    1372:	70 00                	jo     1374 <strtol+0x40>
    1374:	05 39 06 00 00       	add    $0x639,%eax
    1379:	1a 03                	sbb    (%ebx),%al
    137b:	a3 02 00 00 1b       	mov    %eax,0x1b000002
    1380:	07                   	pop    %es
    1381:	87 00                	xchg   %eax,(%eax)
    1383:	00 00                	add    %al,(%eax)
    1385:	94                   	xchg   %eax,%esp
    1386:	15 00 00 3c 00       	adc    $0x3c0000,%eax
    138b:	00 00                	add    %al,(%eax)
    138d:	01 9c 96 06 00 00 01 	add    %ebx,0x1000006(%esi,%edx,4)
    1394:	73 31                	jae    13c7 <strtol+0x93>
    1396:	00 1b                	add    %bl,(%ebx)
    1398:	14 87                	adc    $0x87,%al
    139a:	00 00                	add    %al,(%eax)
    139c:	00 02                	add    %al,(%edx)
    139e:	91                   	xchg   %eax,%ecx
    139f:	00 01                	add    %al,(%ecx)
    13a1:	73 32                	jae    13d5 <strtol+0xa1>
    13a3:	00 1b                	add    %bl,(%ebx)
    13a5:	24 34                	and    $0x34,%al
    13a7:	06                   	push   %es
    13a8:	00 00                	add    %al,(%eax)
    13aa:	02 91 04 01 6e 00    	add    0x6e0104(%ecx),%dl
    13b0:	1b 2f                	sbb    (%edi),%ebp
    13b2:	3b 00                	cmp    (%eax),%eax
    13b4:	00 00                	add    %al,(%eax)
    13b6:	02 91 08 02 73 75    	add    0x75730208(%ecx),%dl
    13bc:	31 00                	xor    %eax,(%eax)
    13be:	1c 08                	sbb    $0x8,%al
    13c0:	e6 00                	out    %al,$0x0
    13c2:	00 00                	add    %al,(%eax)
    13c4:	02 91 74 02 73 75    	add    0x75730274(%ecx),%dl
    13ca:	32 00                	xor    (%eax),%al
    13cc:	1d 0e f7 00 00       	sbb    $0xf70e,%eax
    13d1:	00 02                	add    %al,(%edx)
    13d3:	91                   	xchg   %eax,%ecx
    13d4:	70 00                	jo     13d6 <strtol+0xa2>
    13d6:	03 78 03             	add    0x3(%eax),%edi
    13d9:	00 00                	add    %al,(%eax)
    13db:	0f 05                	syscall
    13dd:	2d 00 00 00 36       	sub    $0x36000000,%eax
    13e2:	15 00 00 5e 00       	adc    $0x5e0000,%eax
    13e7:	00 00                	add    %al,(%eax)
    13e9:	01 9c f2 06 00 00 01 	add    %ebx,0x1000006(%edx,%esi,8)
    13f0:	73 31                	jae    1423 <strtol+0xef>
    13f2:	00 0f                	add    %cl,(%edi)
    13f4:	18 34 06             	sbb    %dh,(%esi,%eax,1)
    13f7:	00 00                	add    %al,(%eax)
    13f9:	02 91 00 01 73 32    	add    0x32730100(%ecx),%dl
    13ff:	00 0f                	add    %cl,(%edi)
    1401:	28 34 06             	sub    %dh,(%esi,%eax,1)
    1404:	00 00                	add    %al,(%eax)
    1406:	02 91 04 01 6e 00    	add    0x6e0104(%ecx),%dl
    140c:	0f 33                	rdpmc
    140e:	3b 00                	cmp    (%eax),%eax
    1410:	00 00                	add    %al,(%eax)
    1412:	02 91 08 02 73 75    	add    0x75730208(%ecx),%dl
    1418:	31 00                	xor    %eax,(%eax)
    141a:	10 17                	adc    %dl,(%edi)
    141c:	f5                   	cmc
    141d:	01 00                	add    %eax,(%eax)
    141f:	00 02                	add    %al,(%edx)
    1421:	91                   	xchg   %eax,%ecx
    1422:	74 02                	je     1426 <strtol+0xf2>
    1424:	73 75                	jae    149b <strtol+0x167>
    1426:	32 00                	xor    (%eax),%al
    1428:	11 17                	adc    %edx,(%edi)
    142a:	f5                   	cmc
    142b:	01 00                	add    %eax,(%eax)
    142d:	00 02                	add    %al,(%edx)
    142f:	91                   	xchg   %eax,%ecx
    1430:	70 00                	jo     1432 <strtol+0xfe>
    1432:	1b 21                	sbb    (%ecx),%esp
    1434:	04 00                	add    $0x0,%al
    1436:	00 01                	add    %al,(%ecx)
    1438:	05 07 87 00 00       	add    $0x8707,%eax
    143d:	00 f6                	add    %dh,%dh
    143f:	14 00                	adc    $0x0,%al
    1441:	00 40 00             	add    %al,0x0(%eax)
    1444:	00 00                	add    %al,(%eax)
    1446:	01 9c 01 73 00 05 1a 	add    %ebx,0x1a050073(%ecx,%eax,1)
    144d:	34 06                	xor    $0x6,%al
    144f:	00 00                	add    %al,(%eax)
    1451:	02 91 00 01 63 00    	add    0x630100(%ecx),%dl
    1457:	05 21 2d 00 00       	add    $0x2d21,%eax
    145c:	00 02                	add    %al,(%edx)
    145e:	91                   	xchg   %eax,%ecx
    145f:	04 01                	add    $0x1,%al
    1461:	6e                   	outsb  %ds:(%esi),(%dx)
    1462:	00 05 2b 3b 00 00    	add    %al,0x3b2b
    1468:	00 02                	add    %al,(%edx)
    146a:	91                   	xchg   %eax,%ecx
    146b:	08 02                	or     %al,(%edx)
    146d:	75 63                	jne    14d2 <strtol+0x19e>
    146f:	00 06                	add    %al,(%esi)
    1471:	16                   	push   %ss
    1472:	6f                   	outsl  %ds:(%esi),(%dx)
    1473:	00 00                	add    %al,(%eax)
    1475:	00 02                	add    %al,(%edx)
    1477:	91                   	xchg   %eax,%ecx
    1478:	73 02                	jae    147c <strtol+0x148>
    147a:	73 75                	jae    14f1 <strtol+0x1bd>
    147c:	00 07                	add    %al,(%edi)
    147e:	17                   	pop    %ss
    147f:	f5                   	cmc
    1480:	01 00                	add    %eax,(%eax)
    1482:	00 02                	add    %al,(%edx)
    1484:	91                   	xchg   %eax,%ecx
    1485:	74 00                	je     1487 <strtol+0x153>
    1487:	00 45 03             	add    %al,0x3(%ebp)
    148a:	00 00                	add    %al,(%eax)
    148c:	05 00 01 04 a8       	add    $0xa8040100,%eax
    1491:	05 00 00 06 3a       	add    $0x3a060000,%eax
    1496:	01 00                	add    %eax,(%eax)
    1498:	00 1d cf 00 00 00    	add    %bl,0xcf
    149e:	11 00                	adc    %eax,(%eax)
    14a0:	00 00                	add    %al,(%eax)
    14a2:	29 1f                	sub    %ebx,(%edi)
    14a4:	00 00                	add    %al,(%eax)
    14a6:	00 01                	add    %al,(%ecx)
    14a8:	00 00                	add    %al,(%eax)
    14aa:	7c 0f                	jl     14bb <strtol+0x187>
    14ac:	00 00                	add    %al,(%eax)
    14ae:	02 01                	add    (%ecx),%al
    14b0:	06                   	push   %es
    14b1:	a5                   	movsl  %ds:(%esi),%es:(%edi)
    14b2:	03 00                	add    (%eax),%eax
    14b4:	00 02                	add    %al,(%edx)
    14b6:	02 05 c3 02 00 00    	add    0x2c3,%al
    14bc:	07                   	pop    %es
    14bd:	04 05                	add    $0x5,%al
    14bf:	69 6e 74 00 02 08 05 	imul   $0x5080200,0x74(%esi),%ebp
    14c6:	7f 03                	jg     14cb <strtol+0x197>
    14c8:	00 00                	add    %al,(%eax)
    14ca:	02 01                	add    (%ecx),%al
    14cc:	08 a3 03 00 00 02    	or     %ah,0x2000003(%ebx)
    14d2:	02 07                	add    (%edi),%al
    14d4:	78 00                	js     14d6 <strtol+0x1a2>
    14d6:	00 00                	add    %al,(%eax)
    14d8:	08 4a 04             	or     %cl,0x4(%edx)
    14db:	00 00                	add    %al,(%eax)
    14dd:	02 0a                	add    (%edx),%cl
    14df:	1c 5c                	sbb    $0x5c,%al
    14e1:	00 00                	add    %al,(%eax)
    14e3:	00 02                	add    %al,(%edx)
    14e5:	04 07                	add    $0x7,%al
    14e7:	cb                   	lret
    14e8:	03 00                	add    (%eax),%eax
    14ea:	00 02                	add    %al,(%edx)
    14ec:	08 07                	or     %al,(%edi)
    14ee:	c1 03 00             	roll   $0x0,(%ebx)
    14f1:	00 02                	add    %al,(%edx)
    14f3:	04 07                	add    $0x7,%al
    14f5:	c6 03 00             	movb   $0x0,(%ebx)
    14f8:	00 09                	add    %cl,(%ecx)
    14fa:	04 05                	add    $0x5,%al
    14fc:	40                   	inc    %eax
    14fd:	04 00                	add    $0x0,%al
    14ff:	00 4c 34 00          	add    %cl,0x0(%esp,%esi,1)
    1503:	00 00                	add    %al,(%eax)
    1505:	07                   	pop    %es
    1506:	20 00                	and    %al,(%eax)
    1508:	00 22                	add    %ah,(%edx)
    150a:	00 00                	add    %al,(%eax)
    150c:	00 01                	add    %al,(%ecx)
    150e:	9c                   	pushf
    150f:	d7                   	xlat   %ds:(%ebx)
    1510:	00 00                	add    %al,(%eax)
    1512:	00 03                	add    %al,(%ebx)
    1514:	66 64 00 4c 13 34    	data16 add %cl,%fs:0x34(%ebx,%edx,1)
    151a:	00 00                	add    %al,(%eax)
    151c:	00 02                	add    %al,(%edx)
    151e:	91                   	xchg   %eax,%ecx
    151f:	00 04 94             	add    %al,(%esp,%edx,4)
    1522:	03 00                	add    (%eax),%eax
    1524:	00 4c 24 5c          	add    %cl,0x5c(%esp)
    1528:	00 00                	add    %al,(%eax)
    152a:	00 02                	add    %al,(%edx)
    152c:	91                   	xchg   %eax,%ecx
    152d:	04 01                	add    $0x1,%al
    152f:	65 61                	gs popa
    1531:	78 00                	js     1533 <memchr+0x3d>
    1533:	4d                   	dec    %ebp
    1534:	50                   	push   %eax
    1535:	00 00                	add    %al,(%eax)
    1537:	00 01                	add    %al,(%ecx)
    1539:	50                   	push   %eax
    153a:	01 65 62             	add    %esp,0x62(%ebp)
    153d:	78 00                	js     153f <memcmp+0x9>
    153f:	4e                   	dec    %esi
    1540:	50                   	push   %eax
    1541:	00 00                	add    %al,(%eax)
    1543:	00 01                	add    %al,(%ecx)
    1545:	53                   	push   %ebx
    1546:	01 65 63             	add    %esp,0x63(%ebp)
    1549:	78 00                	js     154b <memcmp+0x15>
    154b:	4f                   	dec    %edi
    154c:	50                   	push   %eax
    154d:	00 00                	add    %al,(%eax)
    154f:	00 01                	add    %al,(%ecx)
    1551:	51                   	push   %ecx
    1552:	01 65 64             	add    %esp,0x64(%ebp)
    1555:	78 00                	js     1557 <memcmp+0x21>
    1557:	50                   	push   %eax
    1558:	50                   	push   %eax
    1559:	00 00                	add    %al,(%eax)
    155b:	00 01                	add    %al,(%ecx)
    155d:	52                   	push   %edx
    155e:	00 05 2d 04 00 00    	add    %al,0x42d
    1564:	41                   	inc    %ecx
    1565:	34 00                	xor    $0x0,%al
    1567:	00 00                	add    %al,(%eax)
    1569:	e8 1f 00 00 1f       	call   1f00158d <_end+0x1effdf75>
    156e:	00 00                	add    %al,(%eax)
    1570:	00 01                	add    %al,(%ecx)
    1572:	9c                   	pushf
    1573:	2e 01 00             	add    %eax,%cs:(%eax)
    1576:	00 04 28             	add    %al,(%eax,%ebp,1)
    1579:	04 00                	add    $0x0,%al
    157b:	00 41 11             	add    %al,0x11(%ecx)
    157e:	2e 01 00             	add    %eax,%cs:(%eax)
    1581:	00 02                	add    %al,(%edx)
    1583:	91                   	xchg   %eax,%ecx
    1584:	00 01                	add    %al,(%ecx)
    1586:	65 61                	gs popa
    1588:	78 00                	js     158a <memcmp+0x54>
    158a:	42                   	inc    %edx
    158b:	50                   	push   %eax
    158c:	00 00                	add    %al,(%eax)
    158e:	00 01                	add    %al,(%ecx)
    1590:	50                   	push   %eax
    1591:	01 65 62             	add    %esp,0x62(%ebp)
    1594:	78 00                	js     1596 <memcpy+0x2>
    1596:	43                   	inc    %ebx
    1597:	50                   	push   %eax
    1598:	00 00                	add    %al,(%eax)
    159a:	00 01                	add    %al,(%ecx)
    159c:	53                   	push   %ebx
    159d:	01 65 63             	add    %esp,0x63(%ebp)
    15a0:	78 00                	js     15a2 <memcpy+0xe>
    15a2:	44                   	inc    %esp
    15a3:	50                   	push   %eax
    15a4:	00 00                	add    %al,(%eax)
    15a6:	00 01                	add    %al,(%ecx)
    15a8:	51                   	push   %ecx
    15a9:	01 65 64             	add    %esp,0x64(%ebp)
    15ac:	78 00                	js     15ae <memcpy+0x1a>
    15ae:	45                   	inc    %ebp
    15af:	50                   	push   %eax
    15b0:	00 00                	add    %al,(%eax)
    15b2:	00 01                	add    %al,(%ecx)
    15b4:	52                   	push   %edx
    15b5:	00 0a                	add    %cl,(%edx)
    15b7:	04 34                	add    $0x34,%al
    15b9:	01 00                	add    %eax,(%eax)
    15bb:	00 02                	add    %al,(%edx)
    15bd:	01 06                	add    %eax,(%esi)
    15bf:	ac                   	lods   %ds:(%esi),%al
    15c0:	03 00                	add    (%eax),%eax
    15c2:	00 05 2d 00 00 00    	add    %al,0x2d
    15c8:	34 34                	xor    $0x34,%al
    15ca:	00 00                	add    %al,(%eax)
    15cc:	00 bf 1f 00 00 29    	add    %bh,0x2900001f(%edi)
    15d2:	00 00                	add    %al,(%eax)
    15d4:	00 01                	add    %al,(%ecx)
    15d6:	9c                   	pushf
    15d7:	ad                   	lods   %ds:(%esi),%eax
    15d8:	01 00                	add    %eax,(%eax)
    15da:	00 03                	add    %al,(%ebx)
    15dc:	66 64 00 34 0f       	data16 add %dh,%fs:(%edi,%ecx,1)
    15e1:	34 00                	xor    $0x0,%al
    15e3:	00 00                	add    %al,(%eax)
    15e5:	02 91 00 03 6f 66    	add    0x666f0300(%ecx),%dl
    15eb:	66 00 34 17          	data16 add %dh,(%edi,%edx,1)
    15ef:	34 00                	xor    $0x0,%al
    15f1:	00 00                	add    %al,(%eax)
    15f3:	02 91 04 04 08 01    	add    0x1080404(%ecx),%dl
    15f9:	00 00                	add    %al,(%eax)
    15fb:	34 20                	xor    $0x20,%al
    15fd:	34 00                	xor    $0x0,%al
    15ff:	00 00                	add    %al,(%eax)
    1601:	02 91 08 01 65 61    	add    0x61650108(%ecx),%dl
    1607:	78 00                	js     1609 <memmove+0x39>
    1609:	35 50 00 00 00       	xor    $0x50,%eax
    160e:	01 50 01             	add    %edx,0x1(%eax)
    1611:	65 62 78 00          	bound  %edi,%gs:0x0(%eax)
    1615:	36 50                	ss push %eax
    1617:	00 00                	add    %al,(%eax)
    1619:	00 01                	add    %al,(%ecx)
    161b:	53                   	push   %ebx
    161c:	01 65 63             	add    %esp,0x63(%ebp)
    161f:	78 00                	js     1621 <memmove+0x51>
    1621:	37                   	aaa
    1622:	50                   	push   %eax
    1623:	00 00                	add    %al,(%eax)
    1625:	00 01                	add    %al,(%ecx)
    1627:	51                   	push   %ecx
    1628:	01 65 64             	add    %esp,0x64(%ebp)
    162b:	78 00                	js     162d <memmove+0x5d>
    162d:	38 50 00             	cmp    %dl,0x0(%eax)
    1630:	00 00                	add    %al,(%eax)
    1632:	01 52 00             	add    %edx,0x0(%edx)
    1635:	05 8c 00 00 00       	add    $0x8c,%eax
    163a:	27                   	daa
    163b:	34 00                	xor    $0x0,%al
    163d:	00 00                	add    %al,(%eax)
    163f:	96                   	xchg   %eax,%esi
    1640:	1f                   	pop    %ds
    1641:	00 00                	add    %al,(%eax)
    1643:	29 00                	sub    %eax,(%eax)
    1645:	00 00                	add    %al,(%eax)
    1647:	01 9c 1f 02 00 00 03 	add    %ebx,0x3000002(%edi,%ebx,1)
    164e:	66 64 00 27          	data16 add %ah,%fs:(%edi)
    1652:	0f 34                	sysenter
    1654:	00 00                	add    %al,(%eax)
    1656:	00 02                	add    %al,(%edx)
    1658:	91                   	xchg   %eax,%ecx
    1659:	00 03                	add    %al,(%ebx)
    165b:	62 75 66             	bound  %esi,0x66(%ebp)
    165e:	00 27                	add    %ah,(%edi)
    1660:	19 71 00             	sbb    %esi,0x0(%ecx)
    1663:	00 00                	add    %al,(%eax)
    1665:	02 91 04 04 39 04    	add    0x4390404(%ecx),%dl
    166b:	00 00                	add    %al,(%eax)
    166d:	27                   	daa
    166e:	22 34 00             	and    (%eax,%eax,1),%dh
    1671:	00 00                	add    %al,(%eax)
    1673:	02 91 08 01 65 61    	add    0x61650108(%ecx),%dl
    1679:	78 00                	js     167b <memset+0x2d>
    167b:	28 50 00             	sub    %dl,0x0(%eax)
    167e:	00 00                	add    %al,(%eax)
    1680:	01 50 01             	add    %edx,0x1(%eax)
    1683:	65 62 78 00          	bound  %edi,%gs:0x0(%eax)
    1687:	29 50 00             	sub    %edx,0x0(%eax)
    168a:	00 00                	add    %al,(%eax)
    168c:	01 53 01             	add    %edx,0x1(%ebx)
    168f:	65 63 78 00          	arpl   %edi,%gs:0x0(%eax)
    1693:	2a 50 00             	sub    0x0(%eax),%dl
    1696:	00 00                	add    %al,(%eax)
    1698:	01 51 01             	add    %edx,0x1(%ecx)
    169b:	65 64 78 00          	gs fs js 169f <strcat+0x1a>
    169f:	2b 50 00             	sub    0x0(%eax),%edx
    16a2:	00 00                	add    %al,(%eax)
    16a4:	01 52 00             	add    %edx,0x0(%edx)
    16a7:	05 df 00 00 00       	add    $0xdf,%eax
    16ac:	1a 34 00             	sbb    (%eax,%eax,1),%dh
    16af:	00 00                	add    %al,(%eax)
    16b1:	6d                   	insl   (%dx),%es:(%edi)
    16b2:	1f                   	pop    %ds
    16b3:	00 00                	add    %al,(%eax)
    16b5:	29 00                	sub    %eax,(%eax)
    16b7:	00 00                	add    %al,(%eax)
    16b9:	01 9c 91 02 00 00 03 	add    %ebx,0x3000002(%ecx,%edx,4)
    16c0:	66 64 00 1a          	data16 add %bl,%fs:(%edx)
    16c4:	0e                   	push   %cs
    16c5:	34 00                	xor    $0x0,%al
    16c7:	00 00                	add    %al,(%eax)
    16c9:	02 91 00 03 62 75    	add    0x75620300(%ecx),%dl
    16cf:	66 00 1a             	data16 add %bl,(%edx)
    16d2:	18 71 00             	sbb    %dh,0x0(%ecx)
    16d5:	00 00                	add    %al,(%eax)
    16d7:	02 91 04 04 39 04    	add    0x4390404(%ecx),%dl
    16dd:	00 00                	add    %al,(%eax)
    16df:	1a 21                	sbb    (%ecx),%ah
    16e1:	34 00                	xor    $0x0,%al
    16e3:	00 00                	add    %al,(%eax)
    16e5:	02 91 08 01 65 61    	add    0x61650108(%ecx),%dl
    16eb:	78 00                	js     16ed <strcmp+0x24>
    16ed:	1b 50 00             	sbb    0x0(%eax),%edx
    16f0:	00 00                	add    %al,(%eax)
    16f2:	01 50 01             	add    %edx,0x1(%eax)
    16f5:	65 62 78 00          	bound  %edi,%gs:0x0(%eax)
    16f9:	1c 50                	sbb    $0x50,%al
    16fb:	00 00                	add    %al,(%eax)
    16fd:	00 01                	add    %al,(%ecx)
    16ff:	53                   	push   %ebx
    1700:	01 65 63             	add    %esp,0x63(%ebp)
    1703:	78 00                	js     1705 <strcmp+0x3c>
    1705:	1d 50 00 00 00       	sbb    $0x50,%eax
    170a:	01 51 01             	add    %edx,0x1(%ecx)
    170d:	65 64 78 00          	gs fs js 1711 <strcmp+0x48>
    1711:	1e                   	push   %ds
    1712:	50                   	push   %eax
    1713:	00 00                	add    %al,(%eax)
    1715:	00 01                	add    %al,(%ecx)
    1717:	52                   	push   %edx
    1718:	00 0b                	add    %cl,(%ebx)
    171a:	cc                   	int3
    171b:	06                   	push   %es
    171c:	00 00                	add    %al,(%eax)
    171e:	01 10                	add    %edx,(%eax)
    1720:	06                   	push   %es
    1721:	4d                   	dec    %ebp
    1722:	1f                   	pop    %ds
    1723:	00 00                	add    %al,(%eax)
    1725:	20 00                	and    %al,(%eax)
    1727:	00 00                	add    %al,(%eax)
    1729:	01 9c e5 02 00 00 03 	add    %ebx,0x3000002(%ebp,%eiz,8)
    1730:	66 64 00 10          	data16 add %dl,%fs:(%eax)
    1734:	10 34 00             	adc    %dh,(%eax,%eax,1)
    1737:	00 00                	add    %al,(%eax)
    1739:	02 91 00 01 65 61    	add    0x61650100(%ecx),%dl
    173f:	78 00                	js     1741 <strcpy>
    1741:	11 50 00             	adc    %edx,0x0(%eax)
    1744:	00 00                	add    %al,(%eax)
    1746:	01 50 01             	add    %edx,0x1(%eax)
    1749:	65 62 78 00          	bound  %edi,%gs:0x0(%eax)
    174d:	12 50 00             	adc    0x0(%eax),%dl
    1750:	00 00                	add    %al,(%eax)
    1752:	01 53 01             	add    %edx,0x1(%ebx)
    1755:	65 63 78 00          	arpl   %edi,%gs:0x0(%eax)
    1759:	13 50 00             	adc    0x0(%eax),%edx
    175c:	00 00                	add    %al,(%eax)
    175e:	01 51 01             	add    %edx,0x1(%ecx)
    1761:	65 64 78 00          	gs fs js 1765 <strcpy+0x24>
    1765:	14 50                	adc    $0x50,%al
    1767:	00 00                	add    %al,(%eax)
    1769:	00 01                	add    %al,(%ecx)
    176b:	52                   	push   %edx
    176c:	00 0c c4             	add    %cl,(%esp,%eax,8)
    176f:	06                   	push   %es
    1770:	00 00                	add    %al,(%eax)
    1772:	01 04 05 34 00 00 00 	add    %eax,0x34(,%eax,1)
    1779:	29 1f                	sub    %ebx,(%edi)
    177b:	00 00                	add    %al,(%eax)
    177d:	24 00                	and    $0x0,%al
    177f:	00 00                	add    %al,(%eax)
    1781:	01 9c 04 28 04 00 00 	add    %ebx,0x428(%esp,%eax,1)
    1788:	04 10                	add    $0x10,%al
    178a:	2e 01 00             	add    %eax,%cs:(%eax)
    178d:	00 02                	add    %al,(%edx)
    178f:	91                   	xchg   %eax,%ecx
    1790:	00 04 33             	add    %al,(%ebx,%esi,1)
    1793:	04 00                	add    $0x0,%al
    1795:	00 04 1a             	add    %al,(%edx,%ebx,1)
    1798:	34 00                	xor    $0x0,%al
    179a:	00 00                	add    %al,(%eax)
    179c:	02 91 04 01 65 61    	add    0x61650104(%ecx),%dl
    17a2:	78 00                	js     17a4 <strncmp+0x25>
    17a4:	05 50 00 00 00       	add    $0x50,%eax
    17a9:	01 50 01             	add    %edx,0x1(%eax)
    17ac:	65 62 78 00          	bound  %edi,%gs:0x0(%eax)
    17b0:	06                   	push   %es
    17b1:	50                   	push   %eax
    17b2:	00 00                	add    %al,(%eax)
    17b4:	00 01                	add    %al,(%ecx)
    17b6:	53                   	push   %ebx
    17b7:	01 65 63             	add    %esp,0x63(%ebp)
    17ba:	78 00                	js     17bc <strncmp+0x3d>
    17bc:	07                   	pop    %es
    17bd:	50                   	push   %eax
    17be:	00 00                	add    %al,(%eax)
    17c0:	00 01                	add    %al,(%ecx)
    17c2:	51                   	push   %ecx
    17c3:	01 65 64             	add    %esp,0x64(%ebp)
    17c6:	78 00                	js     17c8 <strncmp+0x49>
    17c8:	08 50 00             	or     %dl,0x0(%eax)
    17cb:	00 00                	add    %al,(%eax)
    17cd:	01 52 00             	add    %edx,0x0(%edx)
    17d0:	00 e7                	add    %ah,%bh
    17d2:	01 00                	add    %eax,(%eax)
    17d4:	00 05 00 01 04 7d    	add    %al,0x7d040100
    17da:	06                   	push   %es
    17db:	00 00                	add    %al,(%eax)
    17dd:	08 3a                	or     %bh,(%edx)
    17df:	01 00                	add    %eax,(%eax)
    17e1:	00 1d ee 00 00 00    	add    %bl,0xee
    17e7:	11 00                	adc    %eax,(%eax)
    17e9:	00 00                	add    %al,(%eax)
    17eb:	29 20                	sub    %esp,(%eax)
    17ed:	00 00                	add    %al,(%eax)
    17ef:	85 00                	test   %eax,(%eax)
    17f1:	00 00                	add    %al,(%eax)
    17f3:	68 10 00 00 09       	push   $0x9000010
    17f8:	07                   	pop    %es
    17f9:	04 65                	add    $0x65,%al
    17fb:	00 00                	add    %al,(%eax)
    17fd:	00 02                	add    %al,(%edx)
    17ff:	07                   	pop    %es
    1800:	0e                   	push   %cs
    1801:	65 00 00             	add    %al,%gs:(%eax)
    1804:	00 01                	add    %al,(%ecx)
    1806:	aa                   	stos   %al,%es:(%edi)
    1807:	04 00                	add    $0x0,%al
    1809:	00 01                	add    %al,(%ecx)
    180b:	01 fa                	add    %edi,%edx
    180d:	04 00                	add    $0x0,%al
    180f:	00 02                	add    %al,(%edx)
    1811:	01 b4 04 00 00 03 01 	add    %esi,0x1030000(%esp,%eax,1)
    1818:	5a                   	pop    %edx
    1819:	04 00                	add    $0x0,%al
    181b:	00 04 01             	add    %al,(%ecx,%eax,1)
    181e:	89 04 00             	mov    %eax,(%eax,%eax,1)
    1821:	00 05 01 78 04 00    	add    %al,0x47801
    1827:	00 06                	add    %al,(%esi)
    1829:	01 9a 04 00 00 07    	add    %ebx,0x7000004(%edx)
    182f:	01 e1                	add    %esp,%ecx
    1831:	04 00                	add    $0x0,%al
    1833:	00 08                	add    %cl,(%eax)
    1835:	00 02                	add    %al,(%edx)
    1837:	04 07                	add    $0x7,%al
    1839:	cb                   	lret
    183a:	03 00                	add    (%eax),%eax
    183c:	00 06                	add    %al,(%esi)
    183e:	69 04 00 00 02 11 03 	imul   $0x3110200,(%eax,%eax,1),%eax
    1845:	26 00 00             	add    %al,%es:(%eax)
    1848:	00 0a                	add    %cl,(%edx)
    184a:	d4 04                	aam    $0x4
    184c:	00 00                	add    %al,(%eax)
    184e:	08 02                	or     %al,(%edx)
    1850:	13 08                	adc    (%eax),%ecx
    1852:	9e                   	sahf
    1853:	00 00                	add    %al,(%eax)
    1855:	00 07                	add    %al,(%edi)
    1857:	f8                   	clc
    1858:	01 00                	add    %eax,(%eax)
    185a:	00 14 08             	add    %dl,(%eax,%ecx,1)
    185d:	9e                   	sahf
    185e:	00 00                	add    %al,(%eax)
    1860:	00 00                	add    %al,(%eax)
    1862:	07                   	pop    %es
    1863:	9a 05 00 00 15 0f 65 	lcall  $0x650f,$0x15000005
    186a:	00 00                	add    %al,(%eax)
    186c:	00 04 00             	add    %al,(%eax,%eax,1)
    186f:	0b 04 02             	or     (%edx,%eax,1),%eax
    1872:	01 06                	add    %eax,(%esi)
    1874:	a5                   	movsl  %ds:(%esi),%es:(%edi)
    1875:	03 00                	add    (%eax),%eax
    1877:	00 02                	add    %al,(%edx)
    1879:	02 05 c3 02 00 00    	add    0x2c3,%al
    187f:	0c 04                	or     $0x4,%al
    1881:	05 69 6e 74 00       	add    $0x746e69,%eax
    1886:	02 08                	add    (%eax),%cl
    1888:	05 7f 03 00 00       	add    $0x37f,%eax
    188d:	02 01                	add    (%ecx),%al
    188f:	08 a3 03 00 00 02    	or     %ah,0x2000003(%ebx)
    1895:	02 07                	add    (%edi),%al
    1897:	78 00                	js     1899 <strtok_r+0x94>
    1899:	00 00                	add    %al,(%eax)
    189b:	06                   	push   %es
    189c:	4a                   	dec    %edx
    189d:	04 00                	add    $0x0,%al
    189f:	00 03                	add    %al,(%ebx)
    18a1:	0a 1c 65 00 00 00 02 	or     0x2000000(,%eiz,2),%bl
    18a8:	08 07                	or     %al,(%edi)
    18aa:	c1 03 00             	roll   $0x0,(%ebx)
    18ad:	00 02                	add    %al,(%edx)
    18af:	04 07                	add    $0x7,%al
    18b1:	c6 03 00             	movb   $0x0,(%ebx)
    18b4:	00 0d c3 04 00 00    	add    %cl,0x4c3
    18ba:	01 16                	add    %edx,(%esi)
    18bc:	15 78 00 00 00       	adc    $0x78,%eax
    18c1:	69 20 00 00 45 00    	imul   $0x450000,(%eax),%esp
    18c7:	00 00                	add    %al,(%eax)
    18c9:	01 9c 51 01 00 00 04 	add    %ebx,0x4000001(%ecx,%edx,2)
    18d0:	f2 04 00             	repnz add $0x0,%al
    18d3:	00 16                	add    %dl,(%esi)
    18d5:	35 6c 00 00 00       	xor    $0x6c,%eax
    18da:	02 91 04 05 f8 01    	add    0x1f80504(%ecx),%dl
    18e0:	00 00                	add    %al,(%eax)
    18e2:	17                   	pop    %ss
    18e3:	08 9e 00 00 00 02    	or     %bl,0x2000000(%esi)
    18e9:	91                   	xchg   %eax,%ecx
    18ea:	70 05                	jo     18f1 <strspn+0x40>
    18ec:	9a 05 00 00 18 0b ca 	lcall  $0xca0b,$0x18000005
    18f3:	00 00                	add    %al,(%eax)
    18f5:	00 02                	add    %al,(%edx)
    18f7:	91                   	xchg   %eax,%ecx
    18f8:	6c                   	insb   (%dx),%es:(%edi)
    18f9:	05 a5 04 00 00       	add    $0x4a5,%eax
    18fe:	19 16                	sbb    %edx,(%esi)
    1900:	78 00                	js     1902 <strspn+0x51>
    1902:	00 00                	add    %al,(%eax)
    1904:	02 91 64 03 65 61    	add    0x61650364(%ecx),%dl
    190a:	78 00                	js     190c <strspn+0x5b>
    190c:	1a 14 ca             	sbb    (%edx,%ecx,8),%dl
    190f:	00 00                	add    %al,(%eax)
    1911:	00 01                	add    %al,(%ecx)
    1913:	50                   	push   %eax
    1914:	03 65 62             	add    0x62(%ebp),%esp
    1917:	78 00                	js     1919 <strspn+0x68>
    1919:	1b 14 ca             	sbb    (%edx,%ecx,8),%edx
    191c:	00 00                	add    %al,(%eax)
    191e:	00 01                	add    %al,(%ecx)
    1920:	53                   	push   %ebx
    1921:	00 0e                	add    %cl,(%esi)
    1923:	5a                   	pop    %edx
    1924:	02 00                	add    (%eax),%al
    1926:	00 01                	add    %al,(%ecx)
    1928:	0c 06                	or     $0x6,%al
    192a:	46                   	inc    %esi
    192b:	20 00                	and    %al,(%eax)
    192d:	00 23                	add    %ah,(%ebx)
    192f:	00 00                	add    %al,(%eax)
    1931:	00 01                	add    %al,(%ecx)
    1933:	9c                   	pushf
    1934:	ab                   	stos   %eax,%es:(%edi)
    1935:	01 00                	add    %eax,(%eax)
    1937:	00 04 53             	add    %al,(%ebx,%edx,2)
    193a:	04 00                	add    $0x0,%al
    193c:	00 0c 20             	add    %cl,(%eax,%eiz,1)
    193f:	9e                   	sahf
    1940:	00 00                	add    %al,(%eax)
    1942:	00 02                	add    %al,(%edx)
    1944:	91                   	xchg   %eax,%ecx
    1945:	00 04 9a             	add    %al,(%edx,%ebx,4)
    1948:	05 00 00 0c 35       	add    $0x350c0000,%eax
    194d:	65 00 00             	add    %al,%gs:(%eax)
    1950:	00 02                	add    %al,(%edx)
    1952:	91                   	xchg   %eax,%ecx
    1953:	04 03                	add    $0x3,%al
    1955:	65 61                	gs popa
    1957:	78 00                	js     1959 <strspn+0xa8>
    1959:	0d 1b 65 00 00       	or     $0x651b,%eax
    195e:	00 01                	add    %al,(%ecx)
    1960:	50                   	push   %eax
    1961:	03 65 62             	add    0x62(%ebp),%esp
    1964:	78 00                	js     1966 <strspn+0xb5>
    1966:	0e                   	push   %cs
    1967:	18 65 00             	sbb    %ah,0x0(%ebp)
    196a:	00 00                	add    %al,(%eax)
    196c:	01 53 03             	add    %edx,0x3(%ebx)
    196f:	65 63 78 00          	arpl   %edi,%gs:0x0(%eax)
    1973:	0f 18 65 00          	prefetchrst2 0x0(%ebp)
    1977:	00 00                	add    %al,(%eax)
    1979:	01 51 00             	add    %edx,0x0(%ecx)
    197c:	0f 7d                	(bad)
    197e:	02 00                	add    (%eax),%al
    1980:	00 01                	add    %al,(%ecx)
    1982:	04 07                	add    $0x7,%al
    1984:	9e                   	sahf
    1985:	00 00                	add    %al,(%eax)
    1987:	00 29                	add    %ch,(%ecx)
    1989:	20 00                	and    %al,(%eax)
    198b:	00 1d 00 00 00 01    	add    %bl,0x1000000
    1991:	9c                   	pushf
    1992:	04 9a                	add    $0x9a,%al
    1994:	05 00 00 04 29       	add    $0x29040000,%eax
    1999:	65 00 00             	add    %al,%gs:(%eax)
    199c:	00 02                	add    %al,(%edx)
    199e:	91                   	xchg   %eax,%ecx
    199f:	00 03                	add    %al,(%ebx)
    19a1:	65 61                	gs popa
    19a3:	78 00                	js     19a5 <strspn+0xf4>
    19a5:	05 1b 65 00 00       	add    $0x651b,%eax
    19aa:	00 01                	add    %al,(%ecx)
    19ac:	50                   	push   %eax
    19ad:	03 65 62             	add    0x62(%ebp),%esp
    19b0:	78 00                	js     19b2 <strspn+0x101>
    19b2:	06                   	push   %es
    19b3:	18 65 00             	sbb    %ah,0x0(%ebp)
    19b6:	00 00                	add    %al,(%eax)
    19b8:	01 53 00             	add    %edx,0x0(%ebx)
    19bb:	00 11                	add    %dl,(%ecx)
    19bd:	02 00                	add    (%eax),%al
    19bf:	00 05 00 01 04 85    	add    %al,0x85040100
    19c5:	07                   	pop    %es
    19c6:	00 00                	add    %al,(%eax)
    19c8:	08 3a                	or     %bh,(%edx)
    19ca:	01 00                	add    %eax,(%eax)
    19cc:	00 1d 04 01 00 00    	add    %bl,0x104
    19d2:	11 00                	adc    %eax,(%eax)
    19d4:	00 00                	add    %al,(%eax)
    19d6:	ae                   	scas   %es:(%edi),%al
    19d7:	20 00                	and    %al,(%eax)
    19d9:	00 a4 00 00 00 f9 10 	add    %ah,0x10f90000(%eax,%eax,1)
    19e0:	00 00                	add    %al,(%eax)
    19e2:	09 07                	or     %eax,(%edi)
    19e4:	04 4d                	add    $0x4d,%al
    19e6:	00 00                	add    %al,(%eax)
    19e8:	00 02                	add    %al,(%edx)
    19ea:	04 0e                	add    $0xe,%al
    19ec:	4d                   	dec    %ebp
    19ed:	00 00                	add    %al,(%eax)
    19ef:	00 04 6d 05 00 00 01 	add    %al,0x1000005(,%ebp,2)
    19f6:	04 1d                	add    $0x1d,%al
    19f8:	05 00 00 02 04       	add    $0x4020000,%eax
    19fd:	53                   	push   %ebx
    19fe:	05 00 00 03 04       	add    $0x4030000,%eax
    1a03:	17                   	pop    %ss
    1a04:	05 00 00 04 00       	add    $0x40000,%eax
    1a09:	02 04 07             	add    (%edi,%eax,1),%al
    1a0c:	cb                   	lret
    1a0d:	03 00                	add    (%eax),%eax
    1a0f:	00 06                	add    %al,(%esi)
    1a11:	74 05                	je     1a18 <strspn+0x167>
    1a13:	00 00                	add    %al,(%eax)
    1a15:	02 09                	add    (%ecx),%cl
    1a17:	03 26                	add    (%esi),%esp
    1a19:	00 00                	add    %al,(%eax)
    1a1b:	00 02                	add    %al,(%edx)
    1a1d:	01 06                	add    %eax,(%esi)
    1a1f:	a5                   	movsl  %ds:(%esi),%es:(%edi)
    1a20:	03 00                	add    (%eax),%eax
    1a22:	00 02                	add    %al,(%edx)
    1a24:	02 05 c3 02 00 00    	add    0x2c3,%al
    1a2a:	0a 04 05 69 6e 74 00 	or     0x746e69(,%eax,1),%al
    1a31:	02 08                	add    (%eax),%cl
    1a33:	05 7f 03 00 00       	add    $0x37f,%eax
    1a38:	02 01                	add    (%ecx),%al
    1a3a:	08 a3 03 00 00 02    	or     %ah,0x2000003(%ebx)
    1a40:	02 07                	add    (%edi),%al
    1a42:	78 00                	js     1a44 <strspn+0x193>
    1a44:	00 00                	add    %al,(%eax)
    1a46:	06                   	push   %es
    1a47:	4a                   	dec    %edx
    1a48:	04 00                	add    $0x0,%al
    1a4a:	00 03                	add    %al,(%ebx)
    1a4c:	0a 1c 4d 00 00 00 02 	or     0x2000000(,%ecx,2),%bl
    1a53:	08 07                	or     %al,(%edi)
    1a55:	c1 03 00             	roll   $0x0,(%ebx)
    1a58:	00 02                	add    %al,(%edx)
    1a5a:	04 07                	add    $0x7,%al
    1a5c:	c6 03 00             	movb   $0x0,(%ebx)
    1a5f:	00 0b                	add    %cl,(%ebx)
    1a61:	04 05                	add    $0x5,%al
    1a63:	25 05 00 00 25       	and    $0x25000005,%eax
    1a68:	2d 21 00 00 25       	sub    $0x25000021,%eax
    1a6d:	00 00                	add    %al,(%eax)
    1a6f:	00 01                	add    %al,(%ecx)
    1a71:	9c                   	pushf
    1a72:	fb                   	sti
    1a73:	00 00                	add    %al,(%eax)
    1a75:	00 03                	add    %al,(%ebx)
    1a77:	46                   	inc    %esi
    1a78:	05 00 00 25 18       	add    $0x18250000,%eax
    1a7d:	a4                   	movsb  %ds:(%esi),%es:(%edi)
    1a7e:	00 00                	add    %al,(%eax)
    1a80:	00 02                	add    %al,(%edx)
    1a82:	91                   	xchg   %eax,%ecx
    1a83:	00 03                	add    %al,(%ebx)
    1a85:	0c 05                	or     $0x5,%al
    1a87:	00 00                	add    %al,(%eax)
    1a89:	25 27 fb 00 00       	and    $0xfb27,%eax
    1a8e:	00 02                	add    %al,(%edx)
    1a90:	91                   	xchg   %eax,%ecx
    1a91:	04 01                	add    $0x1,%al
    1a93:	65 61                	gs popa
    1a95:	78 00                	js     1a97 <strspn+0x1e6>
    1a97:	26 8a 00             	mov    %es:(%eax),%al
    1a9a:	00 00                	add    %al,(%eax)
    1a9c:	01 50 01             	add    %edx,0x1(%eax)
    1a9f:	65 62 78 00          	bound  %edi,%gs:0x0(%eax)
    1aa3:	27                   	daa
    1aa4:	8a 00                	mov    (%eax),%al
    1aa6:	00 00                	add    %al,(%eax)
    1aa8:	01 53 01             	add    %edx,0x1(%ebx)
    1aab:	65 63 78 00          	arpl   %edi,%gs:0x0(%eax)
    1aaf:	28 8a 00 00 00 01    	sub    %cl,0x1000000(%edx)
    1ab5:	51                   	push   %ecx
    1ab6:	00 07                	add    %al,(%edi)
    1ab8:	00 01                	add    %al,(%ecx)
    1aba:	00 00                	add    %al,(%eax)
    1abc:	02 01                	add    (%ecx),%al
    1abe:	06                   	push   %es
    1abf:	ac                   	lods   %ds:(%esi),%al
    1ac0:	03 00                	add    (%eax),%eax
    1ac2:	00 05 31 05 00 00    	add    %al,0x531
    1ac8:	1d 0d 21 00 00       	sbb    $0x210d,%eax
    1acd:	20 00                	and    %al,(%eax)
    1acf:	00 00                	add    %al,(%eax)
    1ad1:	01 9c 42 01 00 00 03 	add    %ebx,0x3000001(%edx,%eax,2)
    1ad8:	11 05 00 00 1d 14    	adc    %eax,0x141d0000
    1ade:	6e                   	outsb  %ds:(%esi),(%dx)
    1adf:	00 00                	add    %al,(%eax)
    1ae1:	00 02                	add    %al,(%edx)
    1ae3:	91                   	xchg   %eax,%ecx
    1ae4:	00 01                	add    %al,(%ecx)
    1ae6:	65 61                	gs popa
    1ae8:	78 00                	js     1aea <__strchrnul+0x3b>
    1aea:	1e                   	push   %ds
    1aeb:	8a 00                	mov    (%eax),%al
    1aed:	00 00                	add    %al,(%eax)
    1aef:	01 50 01             	add    %edx,0x1(%eax)
    1af2:	65 62 78 00          	bound  %edi,%gs:0x0(%eax)
    1af6:	1f                   	pop    %ds
    1af7:	8a 00                	mov    (%eax),%al
    1af9:	00 00                	add    %al,(%eax)
    1afb:	01 53 00             	add    %edx,0x0(%ebx)
    1afe:	0c 3b                	or     $0x3b,%al
    1b00:	05 00 00 01 17       	add    $0x17010000,%eax
    1b05:	06                   	push   %es
    1b06:	f6 20                	mulb   (%eax)
    1b08:	00 00                	add    %al,(%eax)
    1b0a:	17                   	pop    %ss
    1b0b:	00 00                	add    %al,(%eax)
    1b0d:	00 01                	add    %al,(%ecx)
    1b0f:	9c                   	pushf
    1b10:	65 01 00             	add    %eax,%gs:(%eax)
    1b13:	00 01                	add    %al,(%ecx)
    1b15:	65 61                	gs popa
    1b17:	78 00                	js     1b19 <strcspn+0x23>
    1b19:	18 8a 00 00 00 01    	sbb    %cl,0x1000000(%edx)
    1b1f:	50                   	push   %eax
    1b20:	00 05 5b 05 00 00    	add    %al,0x55b
    1b26:	0f d8 20             	psubusb (%eax),%mm4
    1b29:	00 00                	add    %al,(%eax)
    1b2b:	1e                   	push   %ds
    1b2c:	00 00                	add    %al,(%eax)
    1b2e:	00 01                	add    %al,(%ecx)
    1b30:	9c                   	pushf
    1b31:	a0 01 00 00 03       	mov    0x3000001,%al
    1b36:	fe 00                	incb   (%eax)
    1b38:	00 00                	add    %al,(%eax)
    1b3a:	0f 20 54             	mov    %cr2,%esp
    1b3d:	00 00                	add    %al,(%eax)
    1b3f:	00 02                	add    %al,(%edx)
    1b41:	91                   	xchg   %eax,%ecx
    1b42:	00 01                	add    %al,(%ecx)
    1b44:	65 61                	gs popa
    1b46:	78 00                	js     1b48 <strcspn+0x52>
    1b48:	10 8a 00 00 00 01    	adc    %cl,0x1000000(%edx)
    1b4e:	50                   	push   %eax
    1b4f:	01 65 62             	add    %esp,0x62(%ebp)
    1b52:	78 00                	js     1b54 <strcspn+0x5e>
    1b54:	11 8a 00 00 00 01    	adc    %ecx,0x1000000(%edx)
    1b5a:	53                   	push   %ebx
    1b5b:	00 05 41 05 00 00    	add    %al,0x541
    1b61:	04 ae                	add    $0xae,%al
    1b63:	20 00                	and    %al,(%eax)
    1b65:	00 2a                	add    %ch,(%edx)
    1b67:	00 00                	add    %al,(%eax)
    1b69:	00 01                	add    %al,(%ecx)
    1b6b:	9c                   	pushf
    1b6c:	0f 02 00             	lar    (%eax),%eax
    1b6f:	00 03                	add    %al,(%ebx)
    1b71:	08 05 00 00 04 11    	or     %al,0x11040000
    1b77:	fb                   	sti
    1b78:	00 00                	add    %al,(%eax)
    1b7a:	00 02                	add    %al,(%edx)
    1b7c:	91                   	xchg   %eax,%ecx
    1b7d:	00 03                	add    %al,(%ebx)
    1b7f:	4e                   	dec    %esi
    1b80:	05 00 00 04 1f       	add    $0x1f040000,%eax
    1b85:	6e                   	outsb  %ds:(%esi),(%dx)
    1b86:	00 00                	add    %al,(%eax)
    1b88:	00 02                	add    %al,(%edx)
    1b8a:	91                   	xchg   %eax,%ecx
    1b8b:	04 03                	add    $0x3,%al
    1b8d:	68 05 00 00 04       	push   $0x4000005
    1b92:	2c 0f                	sub    $0xf,%al
    1b94:	02 00                	add    (%eax),%al
    1b96:	00 02                	add    %al,(%edx)
    1b98:	91                   	xchg   %eax,%ecx
    1b99:	08 01                	or     %al,(%ecx)
    1b9b:	65 61                	gs popa
    1b9d:	78 00                	js     1b9f <strcspn+0xa9>
    1b9f:	05 8a 00 00 00       	add    $0x8a,%eax
    1ba4:	01 50 01             	add    %edx,0x1(%eax)
    1ba7:	65 62 78 00          	bound  %edi,%gs:0x0(%eax)
    1bab:	06                   	push   %es
    1bac:	8a 00                	mov    (%eax),%al
    1bae:	00 00                	add    %al,(%eax)
    1bb0:	01 53 01             	add    %edx,0x1(%ebx)
    1bb3:	65 63 78 00          	arpl   %edi,%gs:0x0(%eax)
    1bb7:	07                   	pop    %es
    1bb8:	8a 00                	mov    (%eax),%al
    1bba:	00 00                	add    %al,(%eax)
    1bbc:	01 51 01             	add    %edx,0x1(%ecx)
    1bbf:	65 64 78 00          	gs fs js 1bc3 <strcspn+0xcd>
    1bc3:	08 8a 00 00 00 01    	or     %cl,0x1000000(%edx)
    1bc9:	52                   	push   %edx
    1bca:	00 07                	add    %al,(%edi)
    1bcc:	fb                   	sti
    1bcd:	00 00                	add    %al,(%eax)
    1bcf:	00 00                	add    %al,(%eax)
    1bd1:	12 05 00 00 05 00    	adc    0x50000,%al
    1bd7:	01 04 46             	add    %eax,(%esi,%eax,2)
    1bda:	08 00                	or     %al,(%eax)
    1bdc:	00 11                	add    %dl,(%ecx)
    1bde:	3a 01                	cmp    (%ecx),%al
    1be0:	00 00                	add    %al,(%eax)
    1be2:	1d 1f 01 00 00       	sbb    $0x11f,%eax
    1be7:	11 00                	adc    %eax,(%eax)
    1be9:	00 00                	add    %al,(%eax)
    1beb:	52                   	push   %edx
    1bec:	21 00                	and    %eax,(%eax)
    1bee:	00 35 02 00 00 ac    	add    %dh,0xac000002
    1bf4:	11 00                	adc    %eax,(%eax)
    1bf6:	00 05 01 06 a5 03    	add    %al,0x3a50601
    1bfc:	00 00                	add    %al,(%eax)
    1bfe:	05 02 05 c3 02       	add    $0x2c30502,%eax
    1c03:	00 00                	add    %al,(%eax)
    1c05:	12 04 05 69 6e 74 00 	adc    0x746e69(,%eax,1),%al
    1c0c:	05 08 05 7f 03       	add    $0x37f0508,%eax
    1c11:	00 00                	add    %al,(%eax)
    1c13:	0a e7                	or     %bh,%ah
    1c15:	05 00 00 02 08       	add    $0x8020000,%eax
    1c1a:	1c 4e                	sbb    $0x4e,%al
    1c1c:	00 00                	add    %al,(%eax)
    1c1e:	00 05 01 08 a3 03    	add    %al,0x3a30801
    1c24:	00 00                	add    %al,(%eax)
    1c26:	05 02 07 78 00       	add    $0x780702,%eax
    1c2b:	00 00                	add    %al,(%eax)
    1c2d:	0a 4a 04             	or     0x4(%edx),%cl
    1c30:	00 00                	add    %al,(%eax)
    1c32:	02 0a                	add    (%edx),%cl
    1c34:	1c 68                	sbb    $0x68,%al
    1c36:	00 00                	add    %al,(%eax)
    1c38:	00 05 04 07 cb 03    	add    %al,0x3cb0704
    1c3e:	00 00                	add    %al,(%eax)
    1c40:	05 08 07 c1 03       	add    $0x3c10708,%eax
    1c45:	00 00                	add    %al,(%eax)
    1c47:	05 04 07 c6 03       	add    $0x3c60704,%eax
    1c4c:	00 00                	add    %al,(%eax)
    1c4e:	13 04 0b             	adc    (%ebx,%ecx,1),%eax
    1c51:	db 06                	fildl  (%esi)
    1c53:	00 00                	add    %al,(%eax)
    1c55:	10 03                	adc    %al,(%ebx)
    1c57:	05 b4 00 00 00       	add    $0xb4,%eax
    1c5c:	07                   	pop    %es
    1c5d:	78 00                	js     1c5f <strcspn+0x169>
    1c5f:	06                   	push   %es
    1c60:	09 34 00             	or     %esi,(%eax,%eax,1)
    1c63:	00 00                	add    %al,(%eax)
    1c65:	00 07                	add    %al,(%edi)
    1c67:	79 00                	jns    1c69 <strcspn+0x173>
    1c69:	07                   	pop    %es
    1c6a:	09 34 00             	or     %esi,(%eax,%eax,1)
    1c6d:	00 00                	add    %al,(%eax)
    1c6f:	04 07                	add    $0x7,%al
    1c71:	77 00                	ja     1c73 <strcspn+0x17d>
    1c73:	08 09                	or     %cl,(%ecx)
    1c75:	34 00                	xor    $0x0,%al
    1c77:	00 00                	add    %al,(%eax)
    1c79:	08 07                	or     %al,(%edi)
    1c7b:	68 00 09 09 34       	push   $0x34090900
    1c80:	00 00                	add    %al,(%eax)
    1c82:	00 0c 00             	add    %cl,(%eax,%eax,1)
    1c85:	14 07                	adc    $0x7,%al
    1c87:	04 68                	add    $0x68,%al
    1c89:	00 00                	add    %al,(%eax)
    1c8b:	00 03                	add    %al,(%ebx)
    1c8d:	0c 0e                	or     $0xe,%al
    1c8f:	ed                   	in     (%dx),%eax
    1c90:	00 00                	add    %al,(%eax)
    1c92:	00 06                	add    %al,(%esi)
    1c94:	e4 06                	in     $0x6,%al
    1c96:	00 00                	add    %al,(%eax)
    1c98:	00 06                	add    %al,(%esi)
    1c9a:	6d                   	insl   (%dx),%es:(%edi)
    1c9b:	06                   	push   %es
    1c9c:	00 00                	add    %al,(%eax)
    1c9e:	01 06                	add    %eax,(%esi)
    1ca0:	66 06                	pushw  %es
    1ca2:	00 00                	add    %al,(%eax)
    1ca4:	02 06                	add    (%esi),%al
    1ca6:	1d 07 00 00 03       	sbb    $0x3000007,%eax
    1cab:	06                   	push   %es
    1cac:	0c 06                	or     $0x6,%al
    1cae:	00 00                	add    %al,(%eax)
    1cb0:	04 06                	add    $0x6,%al
    1cb2:	4e                   	dec    %esi
    1cb3:	06                   	push   %es
    1cb4:	00 00                	add    %al,(%eax)
    1cb6:	05 06 45 06 00       	add    $0x64506,%eax
    1cbb:	00 06                	add    %al,(%esi)
    1cbd:	00 0a                	add    %cl,(%edx)
    1cbf:	ba 05 00 00 03       	mov    $0x3000005,%edx
    1cc4:	14 03                	adc    $0x3,%al
    1cc6:	b4 00                	mov    $0x0,%ah
    1cc8:	00 00                	add    %al,(%eax)
    1cca:	0b d2                	or     %edx,%edx
    1ccc:	06                   	push   %es
    1ccd:	00 00                	add    %al,(%eax)
    1ccf:	50                   	push   %eax
    1cd0:	03 16                	add    (%esi),%edx
    1cd2:	e2 01                	loop   1cd5 <strcspn+0x1df>
    1cd4:	00 00                	add    %al,(%eax)
    1cd6:	07                   	pop    %es
    1cd7:	6c                   	insb   (%dx),%es:(%edi)
    1cd8:	6f                   	outsl  %ds:(%esi),(%dx)
    1cd9:	63 00                	arpl   %eax,(%eax)
    1cdb:	17                   	pop    %ss
    1cdc:	15 7f 00 00 00       	adc    $0x7f,%eax
    1ce1:	00 02                	add    %al,(%edx)
    1ce3:	9f                   	lahf
    1ce4:	05 00 00 03 18       	add    $0x18030000,%eax
    1ce9:	15 7f 00 00 00       	adc    $0x7f,%eax
    1cee:	10 02                	adc    %al,(%edx)
    1cf0:	f5                   	cmc
    1cf1:	05 00 00 03 19       	add    $0x19030000,%eax
    1cf6:	0f e2 01             	psrad  (%ecx),%mm0
    1cf9:	00 00                	add    %al,(%eax)
    1cfb:	20 02                	and    %al,(%edx)
    1cfd:	a7                   	cmpsl  %es:(%edi),%ds:(%esi)
    1cfe:	06                   	push   %es
    1cff:	00 00                	add    %al,(%eax)
    1d01:	03 1a                	add    (%edx),%ebx
    1d03:	0f e2 01             	psrad  (%ecx),%mm0
    1d06:	00 00                	add    %al,(%eax)
    1d08:	24 02                	and    $0x2,%al
    1d0a:	96                   	xchg   %eax,%esi
    1d0b:	05 00 00 03 1b       	add    $0x1b030000,%eax
    1d10:	0e                   	push   %cs
    1d11:	5c                   	pop    %esp
    1d12:	00 00                	add    %al,(%eax)
    1d14:	00 28                	add    %ch,(%eax)
    1d16:	02 12                	add    (%edx),%dl
    1d18:	07                   	pop    %es
    1d19:	00 00                	add    %al,(%eax)
    1d1b:	03 1c 0d 42 00 00 00 	add    0x42(,%ecx,1),%ebx
    1d22:	2c 02                	sub    $0x2,%al
    1d24:	af                   	scas   %es:(%edi),%eax
    1d25:	06                   	push   %es
    1d26:	00 00                	add    %al,(%eax)
    1d28:	03 1d 0a e7 01 00    	add    0x1e70a,%ebx
    1d2e:	00 2d 02 c4 06 00    	add    %ch,0x6c402
    1d34:	00 03                	add    %al,(%ebx)
    1d36:	1e                   	push   %ds
    1d37:	0a e7                	or     %bh,%ah
    1d39:	01 00                	add    %eax,(%eax)
    1d3b:	00 2e                	add    %ch,(%esi)
    1d3d:	02 5a 06             	add    0x6(%edx),%bl
    1d40:	00 00                	add    %al,(%eax)
    1d42:	03 1f                	add    (%edi),%ebx
    1d44:	09 34 00             	or     %esi,(%eax,%eax,1)
    1d47:	00 00                	add    %al,(%eax)
    1d49:	30 02                	xor    %al,(%edx)
    1d4b:	39 06                	cmp    %eax,(%esi)
    1d4d:	00 00                	add    %al,(%eax)
    1d4f:	03 20                	add    (%eax),%esp
    1d51:	09 34 00             	or     %esi,(%eax,%eax,1)
    1d54:	00 00                	add    %al,(%eax)
    1d56:	34 02                	xor    $0x2,%al
    1d58:	ef                   	out    %eax,(%dx)
    1d59:	05 00 00 03 21       	add    $0x21030000,%eax
    1d5e:	0b ee                	or     %esi,%ebp
    1d60:	01 00                	add    %eax,(%eax)
    1d62:	00 38                	add    %bh,(%eax)
    1d64:	02 94 06 00 00 03 22 	add    0x22030000(%esi,%eax,1),%dl
    1d6b:	09 34 00             	or     %esi,(%eax,%eax,1)
    1d6e:	00 00                	add    %al,(%eax)
    1d70:	3c 02                	cmp    $0x2,%al
    1d72:	fe 05 00 00 03 23    	incb   0x23030000
    1d78:	09 34 00             	or     %esi,(%eax,%eax,1)
    1d7b:	00 00                	add    %al,(%eax)
    1d7d:	40                   	inc    %eax
    1d7e:	02 e1                	add    %cl,%ah
    1d80:	05 00 00 03 24       	add    $0x24030000,%eax
    1d85:	0a e7                	or     %bh,%ah
    1d87:	01 00                	add    %eax,(%eax)
    1d89:	00 44 02 2b          	add    %al,0x2b(%edx,%eax,1)
    1d8d:	06                   	push   %es
    1d8e:	00 00                	add    %al,(%eax)
    1d90:	03 26                	add    (%esi),%esp
    1d92:	0c 08                	or     $0x8,%al
    1d94:	02 00                	add    (%eax),%al
    1d96:	00 48 02             	add    %cl,0x2(%eax)
    1d99:	81 05 00 00 03 27 07 	addl   $0x1e707,0x27030000
    1da0:	e7 01 00 
    1da3:	00 4c 02 18          	add    %cl,0x18(%edx,%eax,1)
    1da7:	06                   	push   %es
    1da8:	00 00                	add    %al,(%eax)
    1daa:	03 28                	add    (%eax),%ebp
    1dac:	0a e7                	or     %bh,%ah
    1dae:	01 00                	add    %eax,(%eax)
    1db0:	00 4d 00             	add    %cl,0x0(%ebp)
    1db3:	04 5c                	add    $0x5c,%al
    1db5:	00 00                	add    %al,(%eax)
    1db7:	00 05 01 06 ac 03    	add    %al,0x3ac0601
    1dbd:	00 00                	add    %al,(%eax)
    1dbf:	04 e7                	add    $0xe7,%al
    1dc1:	01 00                	add    %eax,(%eax)
    1dc3:	00 08                	add    %cl,(%eax)
    1dc5:	03 02                	add    (%edx),%eax
    1dc7:	00 00                	add    %al,(%eax)
    1dc9:	01 03                	add    %eax,(%ebx)
    1dcb:	02 00                	add    (%eax),%al
    1dcd:	00 01                	add    %al,(%ecx)
    1dcf:	ed                   	in     (%dx),%eax
    1dd0:	00 00                	add    %al,(%eax)
    1dd2:	00 00                	add    %al,(%eax)
    1dd4:	04 f9                	add    $0xf9,%al
    1dd6:	00 00                	add    %al,(%eax)
    1dd8:	00 04 f3             	add    %al,(%ebx,%esi,8)
    1ddb:	01 00                	add    %eax,(%eax)
    1ddd:	00 0b                	add    %cl,(%ebx)
    1ddf:	82 06 00             	addb   $0x0,(%esi)
    1de2:	00 1c 01             	add    %bl,(%ecx,%eax,1)
    1de5:	04 75                	add    $0x75,%al
    1de7:	02 00                	add    (%eax),%al
    1de9:	00 02                	add    %al,(%edx)
    1deb:	c4 06                	les    (%esi),%eax
    1ded:	00 00                	add    %al,(%eax)
    1def:	01 05 18 8e 02 00    	add    %eax,0x28e18
    1df5:	00 00                	add    %al,(%eax)
    1df7:	02 cc                	add    %ah,%cl
    1df9:	06                   	push   %es
    1dfa:	00 00                	add    %al,(%eax)
    1dfc:	01 06                	add    %eax,(%esi)
    1dfe:	0c 9e                	or     $0x9e,%al
    1e00:	02 00                	add    (%eax),%al
    1e02:	00 04 02             	add    %al,(%edx,%eax,1)
    1e05:	f2 06                	repnz push %es
    1e07:	00 00                	add    %al,(%eax)
    1e09:	01 07                	add    %eax,(%edi)
    1e0b:	0c b8                	or     $0xb8,%al
    1e0d:	02 00                	add    (%eax),%al
    1e0f:	00 08                	add    %cl,(%eax)
    1e11:	02 bc 06 00 00 01 08 	add    0x8010000(%esi,%eax,1),%bh
    1e18:	0c 9e                	or     $0x9e,%al
    1e1a:	02 00                	add    (%eax),%al
    1e1c:	00 0c 02             	add    %cl,(%edx,%eax,1)
    1e1f:	27                   	daa
    1e20:	06                   	push   %es
    1e21:	00 00                	add    %al,(%eax)
    1e23:	01 09                	add    %ecx,(%ecx)
    1e25:	0c cd                	or     $0xcd,%al
    1e27:	02 00                	add    (%eax),%al
    1e29:	00 10                	add    %dl,(%eax)
    1e2b:	02 b1 05 00 00 01    	add    0x1000005(%ecx),%dh
    1e31:	0a 0c f6             	or     (%esi,%esi,8),%cl
    1e34:	02 00                	add    (%eax),%al
    1e36:	00 14 02             	add    %dl,(%edx,%eax,1)
    1e39:	0d 07 00 00 01       	or     $0x1000007,%eax
    1e3e:	0b 0c 0a             	or     (%edx,%ecx,1),%ecx
    1e41:	03 00                	add    (%eax),%eax
    1e43:	00 18                	add    %bl,(%eax)
    1e45:	00 0d 03 02 00 00    	add    %cl,0x203
    1e4b:	8e 02                	mov    (%edx),%es
    1e4d:	00 00                	add    %al,(%eax)
    1e4f:	01 34 00             	add    %esi,(%eax,%eax,1)
    1e52:	00 00                	add    %al,(%eax)
    1e54:	01 34 00             	add    %esi,(%eax,%eax,1)
    1e57:	00 00                	add    %al,(%eax)
    1e59:	01 ee                	add    %ebp,%esi
    1e5b:	01 00                	add    %eax,(%eax)
    1e5d:	00 00                	add    %al,(%eax)
    1e5f:	04 75                	add    $0x75,%al
    1e61:	02 00                	add    (%eax),%al
    1e63:	00 08                	add    %cl,(%eax)
    1e65:	9e                   	sahf
    1e66:	02 00                	add    (%eax),%al
    1e68:	00 01                	add    %al,(%ecx)
    1e6a:	03 02                	add    (%edx),%eax
    1e6c:	00 00                	add    %al,(%eax)
    1e6e:	00 04 93             	add    %al,(%ebx,%edx,4)
    1e71:	02 00                	add    (%eax),%al
    1e73:	00 08                	add    %cl,(%eax)
    1e75:	b8 02 00 00 01       	mov    $0x1000002,%eax
    1e7a:	03 02                	add    (%edx),%eax
    1e7c:	00 00                	add    %al,(%eax)
    1e7e:	01 e2                	add    %esp,%edx
    1e80:	01 00                	add    %eax,(%eax)
    1e82:	00 01                	add    %al,(%ecx)
    1e84:	5c                   	pop    %esp
    1e85:	00 00                	add    %al,(%eax)
    1e87:	00 00                	add    %al,(%eax)
    1e89:	04 a3                	add    $0xa3,%al
    1e8b:	02 00                	add    (%eax),%al
    1e8d:	00 08                	add    %cl,(%eax)
    1e8f:	cd 02                	int    $0x2
    1e91:	00 00                	add    %al,(%eax)
    1e93:	01 03                	add    %eax,(%ebx)
    1e95:	02 00                	add    (%eax),%al
    1e97:	00 01                	add    %al,(%ecx)
    1e99:	08 02                	or     %al,(%edx)
    1e9b:	00 00                	add    %al,(%eax)
    1e9d:	00 04 bd 02 00 00 08 	add    %al,0x8000002(,%edi,4)
    1ea4:	f6 02 00             	testb  $0x0,(%edx)
    1ea7:	00 01                	add    %al,(%ecx)
    1ea9:	03 02                	add    (%edx),%eax
    1eab:	00 00                	add    %al,(%eax)
    1ead:	01 34 00             	add    %esi,(%eax,%eax,1)
    1eb0:	00 00                	add    %al,(%eax)
    1eb2:	01 34 00             	add    %esi,(%eax,%eax,1)
    1eb5:	00 00                	add    %al,(%eax)
    1eb7:	01 e7                	add    %esp,%edi
    1eb9:	01 00                	add    %eax,(%eax)
    1ebb:	00 01                	add    %al,(%ecx)
    1ebd:	5c                   	pop    %esp
    1ebe:	00 00                	add    %al,(%eax)
    1ec0:	00 01                	add    %al,(%ecx)
    1ec2:	5c                   	pop    %esp
    1ec3:	00 00                	add    %al,(%eax)
    1ec5:	00 00                	add    %al,(%eax)
    1ec7:	04 d2                	add    $0xd2,%al
    1ec9:	02 00                	add    (%eax),%al
    1ecb:	00 0d e7 01 00 00    	add    %cl,0x1e7
    1ed1:	0a 03                	or     (%ebx),%al
    1ed3:	00 00                	add    %al,(%eax)
    1ed5:	01 03                	add    %eax,(%ebx)
    1ed7:	02 00                	add    (%eax),%al
    1ed9:	00 00                	add    %al,(%eax)
    1edb:	04 fb                	add    $0xfb,%al
    1edd:	02 00                	add    (%eax),%al
    1edf:	00 0e                	add    %cl,(%esi)
    1ee1:	fd                   	std
    1ee2:	06                   	push   %es
    1ee3:	00 00                	add    %al,(%eax)
    1ee5:	0e                   	push   %cs
    1ee6:	1a 0d 02 00 00 05    	sbb    0x5000002,%cl
    1eec:	03 f8                	add    %eax,%edi
    1eee:	35 00 00 0e ce       	xor    $0xce0e0000,%eax
    1ef3:	05 00 00 0f 05       	add    $0x50f0000,%eax
    1ef8:	34 00                	xor    $0x0,%al
    1efa:	00 00                	add    %al,(%eax)
    1efc:	05 03 14 36 00       	add    $0x361403,%eax
    1f01:	00 15 cc 06 00 00    	add    %dl,0x6cc
    1f07:	04 08                	add    $0x8,%al
    1f09:	06                   	push   %es
    1f0a:	43                   	inc    %ebx
    1f0b:	03 00                	add    (%eax),%eax
    1f0d:	00 01                	add    %al,(%ecx)
    1f0f:	34 00                	xor    $0x0,%al
    1f11:	00 00                	add    %al,(%eax)
    1f13:	00 0f                	add    %cl,(%edi)
    1f15:	df 00                	filds  (%eax)
    1f17:	00 00                	add    %al,(%eax)
    1f19:	09 34 00             	or     %esi,(%eax,%eax,1)
    1f1c:	00 00                	add    %al,(%eax)
    1f1e:	61                   	popa
    1f1f:	03 00                	add    (%eax),%eax
    1f21:	00 01                	add    %al,(%ecx)
    1f23:	34 00                	xor    $0x0,%al
    1f25:	00 00                	add    %al,(%eax)
    1f27:	01 7d 00             	add    %edi,0x0(%ebp)
    1f2a:	00 00                	add    %al,(%eax)
    1f2c:	01 34 00             	add    %esi,(%eax,%eax,1)
    1f2f:	00 00                	add    %al,(%eax)
    1f31:	00 0f                	add    %cl,(%edi)
    1f33:	c4 06                	les    (%esi),%eax
    1f35:	00 00                	add    %al,(%eax)
    1f37:	07                   	pop    %es
    1f38:	34 00                	xor    $0x0,%al
    1f3a:	00 00                	add    %al,(%eax)
    1f3c:	7a 03                	jp     1f41 <open+0x18>
    1f3e:	00 00                	add    %al,(%eax)
    1f40:	01 ee                	add    %ebp,%esi
    1f42:	01 00                	add    %eax,(%eax)
    1f44:	00 01                	add    %al,(%ecx)
    1f46:	34 00                	xor    $0x0,%al
    1f48:	00 00                	add    %al,(%eax)
    1f4a:	00 10                	add    %dl,(%eax)
    1f4c:	0a 07                	or     (%edi),%al
    1f4e:	00 00                	add    %al,(%eax)
    1f50:	37                   	aaa
    1f51:	06                   	push   %es
    1f52:	e7 01                	out    %eax,$0x1
    1f54:	00 00                	add    %al,(%eax)
    1f56:	4a                   	dec    %edx
    1f57:	23 00                	and    (%eax),%eax
    1f59:	00 3d 00 00 00 01    	add    %bh,0x1000000
    1f5f:	9c                   	pushf
    1f60:	a1 03 00 00 03       	mov    0x3000003,%eax
    1f65:	76 70                	jbe    1fd7 <lseek+0x18>
    1f67:	00 37                	add    %dh,(%edi)
    1f69:	1f                   	pop    %ds
    1f6a:	03 02                	add    (%edx),%eax
    1f6c:	00 00                	add    %al,(%eax)
    1f6e:	02 91 00 00 09 ae    	add    -0x51f70000(%ecx),%dl
    1f74:	05 00 00 32 f6       	add    $0xf6320000,%eax
    1f79:	22 00                	and    (%eax),%al
    1f7b:	00 54 00 00          	add    %dl,0x0(%eax,%eax,1)
    1f7f:	00 01                	add    %al,(%ecx)
    1f81:	9c                   	pushf
    1f82:	01 04 00             	add    %eax,(%eax,%eax,1)
    1f85:	00 03                	add    %al,(%ebx)
    1f87:	76 70                	jbe    1ff9 <creat+0x11>
    1f89:	00 32                	add    %dh,(%edx)
    1f8b:	23 03                	and    (%ebx),%eax
    1f8d:	02 00                	add    (%eax),%al
    1f8f:	00 02                	add    %al,(%edx)
    1f91:	91                   	xchg   %eax,%ecx
    1f92:	00 03                	add    %al,(%ebx)
    1f94:	78 00                	js     1f96 <write>
    1f96:	32 2b                	xor    (%ebx),%ch
    1f98:	34 00                	xor    $0x0,%al
    1f9a:	00 00                	add    %al,(%eax)
    1f9c:	02 91 04 03 79 00    	add    0x790304(%ecx),%dl
    1fa2:	32 32                	xor    (%edx),%dh
    1fa4:	34 00                	xor    $0x0,%al
    1fa6:	00 00                	add    %al,(%eax)
    1fa8:	02 91 08 03 63 00    	add    0x630308(%ecx),%dl
    1fae:	32 3a                	xor    (%edx),%bh
    1fb0:	e7 01                	out    %eax,$0x1
    1fb2:	00 00                	add    %al,(%eax)
    1fb4:	02 91 6c 03 66 67    	add    0x6766036c(%ecx),%dl
    1fba:	00 32                	add    %dh,(%edx)
    1fbc:	46                   	inc    %esi
    1fbd:	5c                   	pop    %esp
    1fbe:	00 00                	add    %al,(%eax)
    1fc0:	00 02                	add    %al,(%edx)
    1fc2:	91                   	xchg   %eax,%ecx
    1fc3:	10 03                	adc    %al,(%ebx)
    1fc5:	62 67 00             	bound  %esp,0x0(%edi)
    1fc8:	32 53 5c             	xor    0x5c(%ebx),%dl
    1fcb:	00 00                	add    %al,(%eax)
    1fcd:	00 02                	add    %al,(%edx)
    1fcf:	91                   	xchg   %eax,%ecx
    1fd0:	14 00                	adc    $0x0,%al
    1fd2:	09 24 06             	or     %esp,(%esi,%eax,1)
    1fd5:	00 00                	add    %al,(%eax)
    1fd7:	2d b6 22 00 00       	sub    $0x22b6,%eax
    1fdc:	40                   	inc    %eax
    1fdd:	00 00                	add    %al,(%eax)
    1fdf:	00 01                	add    %al,(%ecx)
    1fe1:	9c                   	pushf
    1fe2:	31 04 00             	xor    %eax,(%eax,%eax,1)
    1fe5:	00 03                	add    %al,(%ebx)
    1fe7:	76 70                	jbe    2059 <memory_returnRegion+0x13>
    1fe9:	00 2d 2c 03 02 00    	add    %ch,0x2032c
    1fef:	00 02                	add    %al,(%edx)
    1ff1:	91                   	xchg   %eax,%ecx
    1ff2:	00 0c 31             	add    %cl,(%ecx,%esi,1)
    1ff5:	06                   	push   %es
    1ff6:	00 00                	add    %al,(%eax)
    1ff8:	2d 37 08 02 00       	sub    $0x20837,%eax
    1ffd:	00 02                	add    %al,(%edx)
    1fff:	91                   	xchg   %eax,%ecx
    2000:	04 00                	add    $0x0,%al
    2002:	09 b9 06 00 00 28    	or     %edi,0x28000006(%ecx)
    2008:	79 22                	jns    202c <memory_requestRegion+0x3>
    200a:	00 00                	add    %al,(%eax)
    200c:	3d 00 00 00 01       	cmp    $0x1000000,%eax
    2011:	9c                   	pushf
    2012:	53                   	push   %ebx
    2013:	04 00                	add    $0x0,%al
    2015:	00 03                	add    %al,(%ebx)
    2017:	76 70                	jbe    2089 <getKernelFeature+0x20>
    2019:	00 28                	add    %ch,(%eax)
    201b:	1f                   	pop    %ds
    201c:	03 02                	add    (%edx),%eax
    201e:	00 00                	add    %al,(%eax)
    2020:	02 91 00 00 09 ef    	add    -0x10f70000(%ecx),%dl
    2026:	06                   	push   %es
    2027:	00 00                	add    %al,(%eax)
    2029:	23 36                	and    (%esi),%esi
    202b:	22 00                	and    (%eax),%al
    202d:	00 43 00             	add    %al,0x0(%ebx)
    2030:	00 00                	add    %al,(%eax)
    2032:	01 9c 91 04 00 00 03 	add    %ebx,0x3000004(%ecx,%edx,4)
    2039:	76 70                	jbe    20ab <getKernelFeature+0x42>
    203b:	00 23                	add    %ah,(%ebx)
    203d:	25 03 02 00 00       	and    $0x203,%eax
    2042:	02 91 00 03 62 75    	add    0x75620300(%ecx),%dl
    2048:	66 00 23             	data16 add %ah,(%ebx)
    204b:	33 e2                	xor    %edx,%esp
    204d:	01 00                	add    %eax,(%eax)
    204f:	00 02                	add    %al,(%edx)
    2051:	91                   	xchg   %eax,%ecx
    2052:	04 0c                	add    $0xc,%al
    2054:	9a 05 00 00 23 41 5c 	lcall  $0x5c41,$0x23000005
    205b:	00 00                	add    %al,(%eax)
    205d:	00 02                	add    %al,(%edx)
    205f:	91                   	xchg   %eax,%ecx
    2060:	08 00                	or     %al,(%eax)
    2062:	09 c9                	or     %ecx,%ecx
    2064:	06                   	push   %es
    2065:	00 00                	add    %al,(%eax)
    2067:	1e                   	push   %ds
    2068:	f9                   	stc
    2069:	21 00                	and    %eax,(%eax)
    206b:	00 3d 00 00 00 01    	add    %bh,0x1000000
    2071:	9c                   	pushf
    2072:	b3 04                	mov    $0x4,%bl
    2074:	00 00                	add    %al,(%eax)
    2076:	03 76 70             	add    0x70(%esi),%esi
    2079:	00 1e                	add    %bl,(%esi)
    207b:	20 03                	and    %al,(%ebx)
    207d:	02 00                	add    (%eax),%al
    207f:	00 02                	add    %al,(%edx)
    2081:	91                   	xchg   %eax,%ecx
    2082:	00 00                	add    %al,(%eax)
    2084:	10 c1                	adc    %al,%cl
    2086:	06                   	push   %es
    2087:	00 00                	add    %al,(%eax)
    2089:	19 12                	sbb    %edx,(%edx)
    208b:	03 02                	add    (%edx),%eax
    208d:	00 00                	add    %al,(%eax)
    208f:	b8 21 00 00 41       	mov    $0x41000021,%eax
    2094:	00 00                	add    %al,(%eax)
    2096:	00 01                	add    %al,(%ecx)
    2098:	9c                   	pushf
    2099:	f3 04 00             	repz add $0x0,%al
    209c:	00 03                	add    %al,(%ebx)
    209e:	77 00                	ja     20a0 <getKernelFeature+0x37>
    20a0:	19 1e                	sbb    %ebx,(%esi)
    20a2:	34 00                	xor    $0x0,%al
    20a4:	00 00                	add    %al,(%eax)
    20a6:	02 91 00 03 68 00    	add    0x680300(%ecx),%dl
    20ac:	19 25 34 00 00 00    	sbb    %esp,0x34
    20b2:	02 91 04 0c ef 05    	add    0x5ef0c04(%ecx),%dl
    20b8:	00 00                	add    %al,(%eax)
    20ba:	19 2e                	sbb    %ebp,(%esi)
    20bc:	ee                   	out    %al,(%dx)
    20bd:	01 00                	add    %eax,(%eax)
    20bf:	00 02                	add    %al,(%edx)
    20c1:	91                   	xchg   %eax,%ecx
    20c2:	08 00                	or     %al,(%eax)
    20c4:	16                   	push   %ss
    20c5:	7a 06                	jp     20cd <exec+0x1f>
    20c7:	00 00                	add    %al,(%eax)
    20c9:	01 10                	add    %edx,(%eax)
    20cb:	06                   	push   %es
    20cc:	52                   	push   %edx
    20cd:	21 00                	and    %eax,(%eax)
    20cf:	00 66 00             	add    %ah,0x0(%esi)
    20d2:	00 00                	add    %al,(%eax)
    20d4:	01 9c 17 a6 05 00 00 	add    %ebx,0x5a6(%edi,%edx,1)
    20db:	01 11                	add    %edx,(%ecx)
    20dd:	09 34 00             	or     %esi,(%eax,%eax,1)
    20e0:	00 00                	add    %al,(%eax)
    20e2:	02 91 6c 00 00 e3    	add    -0x1cffff94(%ecx),%dl
    20e8:	00 00                	add    %al,(%eax)
    20ea:	00 05 00 01 04 c5    	add    %al,0xc5040100
    20f0:	09 00                	or     %eax,(%eax)
    20f2:	00 03                	add    %al,(%ebx)
    20f4:	3a 01                	cmp    (%ecx),%al
    20f6:	00 00                	add    %al,(%eax)
    20f8:	1d 36 01 00 00       	sbb    $0x136,%eax
    20fd:	11 00                	adc    %eax,(%eax)
    20ff:	00 00                	add    %al,(%eax)
    2101:	87 23                	xchg   %esp,(%ebx)
    2103:	00 00                	add    %al,(%eax)
    2105:	cd 00                	int    $0x0
    2107:	00 00                	add    %al,(%eax)
    2109:	dc 12                	fcoml  (%edx)
    210b:	00 00                	add    %al,(%eax)
    210d:	04 02                	add    $0x2,%al
    210f:	05 c3 02 00 00       	add    $0x2c3,%eax
    2114:	02 25 07 00 00 3f    	add    0x3f000007,%ah
    211a:	51                   	push   %ecx
    211b:	00 00                	add    %al,(%eax)
    211d:	00 2e                	add    %ch,(%esi)
    211f:	24 00                	and    $0x0,%al
    2121:	00 26                	add    %ah,(%esi)
    2123:	00 00                	add    %al,(%eax)
    2125:	00 01                	add    %al,(%ecx)
    2127:	9c                   	pushf
    2128:	51                   	push   %ecx
    2129:	00 00                	add    %al,(%eax)
    212b:	00 01                	add    %al,(%ecx)
    212d:	63 00                	arpl   %eax,(%eax)
    212f:	3f                   	aas
    2130:	51                   	push   %ecx
    2131:	00 00                	add    %al,(%eax)
    2133:	00 02                	add    %al,(%edx)
    2135:	91                   	xchg   %eax,%ecx
    2136:	00 00                	add    %al,(%eax)
    2138:	05 04 05 69 6e       	add    $0x6e690504,%eax
    213d:	74 00                	je     213f <manual_task+0x12>
    213f:	02 2d 07 00 00 38    	add    0x38000007,%ch
    2145:	51                   	push   %ecx
    2146:	00 00                	add    %al,(%eax)
    2148:	00 08                	add    %cl,(%eax)
    214a:	24 00                	and    $0x0,%al
    214c:	00 26                	add    %ah,(%esi)
    214e:	00 00                	add    %al,(%eax)
    2150:	00 01                	add    %al,(%ecx)
    2152:	9c                   	pushf
    2153:	7c 00                	jl     2155 <vp_init+0x3>
    2155:	00 00                	add    %al,(%eax)
    2157:	01 63 00             	add    %esp,0x0(%ebx)
    215a:	38 51 00             	cmp    %dl,0x0(%ecx)
    215d:	00 00                	add    %al,(%eax)
    215f:	02 91 00 00 02 e6    	add    -0x19fe0000(%ecx),%dl
    2165:	01 00                	add    %eax,(%eax)
    2167:	00 33                	add    %dh,(%ebx)
    2169:	51                   	push   %ecx
    216a:	00 00                	add    %al,(%eax)
    216c:	00 e1                	add    %ah,%cl
    216e:	23 00                	and    (%eax),%eax
    2170:	00 27                	add    %ah,(%edi)
    2172:	00 00                	add    %al,(%eax)
    2174:	00 01                	add    %al,(%ecx)
    2176:	9c                   	pushf
    2177:	a0 00 00 00 01       	mov    0x1000000,%al
    217c:	63 00                	arpl   %eax,(%eax)
    217e:	33 51 00             	xor    0x0(%ecx),%edx
    2181:	00 00                	add    %al,(%eax)
    2183:	02 91 00 00 02 3f    	add    0x3f020000(%ecx),%dl
    2189:	02 00                	add    (%eax),%al
    218b:	00 2f                	add    %ch,(%edi)
    218d:	51                   	push   %ecx
    218e:	00 00                	add    %al,(%eax)
    2190:	00 ae 23 00 00 33    	add    %ch,0x33000023(%esi)
    2196:	00 00                	add    %al,(%eax)
    2198:	00 01                	add    %al,(%ecx)
    219a:	9c                   	pushf
    219b:	c4 00                	les    (%eax),%eax
    219d:	00 00                	add    %al,(%eax)
    219f:	01 63 00             	add    %esp,0x0(%ebx)
    21a2:	2f                   	das
    21a3:	51                   	push   %ecx
    21a4:	00 00                	add    %al,(%eax)
    21a6:	00 02                	add    %al,(%edx)
    21a8:	91                   	xchg   %eax,%ecx
    21a9:	00 00                	add    %al,(%eax)
    21ab:	06                   	push   %es
    21ac:	2e 02 00             	add    %cs:(%eax),%al
    21af:	00 01                	add    %al,(%ecx)
    21b1:	2b 05 51 00 00 00    	sub    0x51,%eax
    21b7:	87 23                	xchg   %esp,(%ebx)
    21b9:	00 00                	add    %al,(%eax)
    21bb:	27                   	daa
    21bc:	00 00                	add    %al,(%eax)
    21be:	00 01                	add    %al,(%ecx)
    21c0:	9c                   	pushf
    21c1:	01 63 00             	add    %esp,0x0(%ebx)
    21c4:	2b 51 00             	sub    0x0(%ecx),%edx
    21c7:	00 00                	add    %al,(%eax)
    21c9:	02                   	.byte 0x2
    21ca:	91                   	xchg   %eax,%ecx
    21cb:	00 00                	add    %al,(%eax)
	...

Disassembly of section .debug_abbrev:

00000000 <.debug_abbrev>:
   0:	01 05 00 03 0e 3a    	add    %eax,0x3a0e0300
   6:	21 01                	and    %eax,(%ecx)
   8:	3b 0b                	cmp    (%ebx),%ecx
   a:	39 0b                	cmp    %ecx,(%ebx)
   c:	49                   	dec    %ecx
   d:	13 02                	adc    (%edx),%eax
   f:	18 00                	sbb    %al,(%eax)
  11:	00 02                	add    %al,(%edx)
  13:	34 00                	xor    $0x0,%al
  15:	03 08                	add    (%eax),%ecx
  17:	3a 21                	cmp    (%ecx),%ah
  19:	01 3b                	add    %edi,(%ebx)
  1b:	0b 39                	or     (%ecx),%edi
  1d:	0b 49 13             	or     0x13(%ecx),%ecx
  20:	02 18                	add    (%eax),%bl
  22:	00 00                	add    %al,(%eax)
  24:	03 05 00 49 13 00    	add    0x134900,%eax
  2a:	00 04 2e             	add    %al,(%esi,%ebp,1)
  2d:	01 3f                	add    %edi,(%edi)
  2f:	19 03                	sbb    %eax,(%ebx)
  31:	0e                   	push   %cs
  32:	3a 21                	cmp    (%ecx),%ah
  34:	01 3b                	add    %edi,(%ebx)
  36:	0b 39                	or     (%ecx),%edi
  38:	0b 27                	or     (%edi),%esp
  3a:	19 49 13             	sbb    %ecx,0x13(%ecx)
  3d:	11 01                	adc    %eax,(%ecx)
  3f:	12 06                	adc    (%esi),%al
  41:	40                   	inc    %eax
  42:	18 7c 19 01          	sbb    %bh,0x1(%ecx,%ebx,1)
  46:	13 00                	adc    (%eax),%eax
  48:	00 05 05 00 03 08    	add    %al,0x8030005
  4e:	3a 21                	cmp    (%ecx),%ah
  50:	01 3b                	add    %edi,(%ebx)
  52:	0b 39                	or     (%ecx),%edi
  54:	0b 49 13             	or     0x13(%ecx),%ecx
  57:	02 18                	add    (%eax),%bl
  59:	00 00                	add    %al,(%eax)
  5b:	06                   	push   %es
  5c:	34 00                	xor    $0x0,%al
  5e:	03 0e                	add    (%esi),%ecx
  60:	3a 21                	cmp    (%ecx),%ah
  62:	01 3b                	add    %edi,(%ebx)
  64:	0b 39                	or     (%ecx),%edi
  66:	0b 49 13             	or     0x13(%ecx),%ecx
  69:	02 18                	add    (%eax),%bl
  6b:	00 00                	add    %al,(%eax)
  6d:	07                   	pop    %es
  6e:	2e 01 3f             	add    %edi,%cs:(%edi)
  71:	19 03                	sbb    %eax,(%ebx)
  73:	0e                   	push   %cs
  74:	3a 0b                	cmp    (%ebx),%cl
  76:	3b 0b                	cmp    (%ebx),%ecx
  78:	39 0b                	cmp    %ecx,(%ebx)
  7a:	27                   	daa
  7b:	19 49 13             	sbb    %ecx,0x13(%ecx)
  7e:	3c 19                	cmp    $0x19,%al
  80:	01 13                	add    %edx,(%ebx)
  82:	00 00                	add    %al,(%eax)
  84:	08 0b                	or     %cl,(%ebx)
  86:	01 11                	add    %edx,(%ecx)
  88:	01 12                	add    %edx,(%edx)
  8a:	06                   	push   %es
  8b:	00 00                	add    %al,(%eax)
  8d:	09 24 00             	or     %esp,(%eax,%eax,1)
  90:	0b 0b                	or     (%ebx),%ecx
  92:	3e 0b 03             	or     %ds:(%ebx),%eax
  95:	0e                   	push   %cs
  96:	00 00                	add    %al,(%eax)
  98:	0a 0f                	or     (%edi),%cl
  9a:	00 0b                	add    %cl,(%ebx)
  9c:	21 04 49             	and    %eax,(%ecx,%ecx,2)
  9f:	13 00                	adc    (%eax),%eax
  a1:	00 0b                	add    %cl,(%ebx)
  a3:	16                   	push   %ss
  a4:	00 03                	add    %al,(%ebx)
  a6:	0e                   	push   %cs
  a7:	3a 0b                	cmp    (%ebx),%cl
  a9:	3b 0b                	cmp    (%ebx),%ecx
  ab:	39 0b                	cmp    %ecx,(%ebx)
  ad:	49                   	dec    %ecx
  ae:	13 00                	adc    (%eax),%eax
  b0:	00 0c 18             	add    %cl,(%eax,%ebx,1)
  b3:	00 00                	add    %al,(%eax)
  b5:	00 0d 0b 01 55 17    	add    %cl,0x1755010b
  bb:	01 13                	add    %edx,(%ebx)
  bd:	00 00                	add    %al,(%eax)
  bf:	0e                   	push   %cs
  c0:	34 00                	xor    $0x0,%al
  c2:	03 08                	add    (%eax),%ecx
  c4:	3a 21                	cmp    (%ecx),%ah
  c6:	01 3b                	add    %edi,(%ebx)
  c8:	05 39 0b 49 13       	add    $0x13490b39,%eax
  cd:	02 18                	add    (%eax),%bl
  cf:	00 00                	add    %al,(%eax)
  d1:	0f 01 01             	sgdtl  (%ecx)
  d4:	49                   	dec    %ecx
  d5:	13 01                	adc    (%ecx),%eax
  d7:	13 00                	adc    (%eax),%eax
  d9:	00 10                	add    %dl,(%eax)
  db:	21 00                	and    %eax,(%eax)
  dd:	49                   	dec    %ecx
  de:	13 2f                	adc    (%edi),%ebp
  e0:	0b 00                	or     (%eax),%eax
  e2:	00 11                	add    %dl,(%ecx)
  e4:	34 00                	xor    $0x0,%al
  e6:	03 08                	add    (%eax),%ecx
  e8:	3a 21                	cmp    (%ecx),%ah
  ea:	01 3b                	add    %edi,(%ebx)
  ec:	0b 39                	or     (%ecx),%edi
  ee:	0b 49 13             	or     0x13(%ecx),%ecx
  f1:	00 00                	add    %al,(%eax)
  f3:	12 11                	adc    (%ecx),%dl
  f5:	01 25 0e 13 0b 03    	add    %esp,0x30b130e
  fb:	1f                   	pop    %ds
  fc:	1b 1f                	sbb    (%edi),%ebx
  fe:	11 01                	adc    %eax,(%ecx)
 100:	12 06                	adc    (%esi),%al
 102:	10 17                	adc    %dl,(%edi)
 104:	00 00                	add    %al,(%eax)
 106:	13 13                	adc    (%ebx),%edx
 108:	01 03                	add    %eax,(%ebx)
 10a:	0e                   	push   %cs
 10b:	0b 0b                	or     (%ebx),%ecx
 10d:	3a 0b                	cmp    (%ebx),%cl
 10f:	3b 0b                	cmp    (%ebx),%ecx
 111:	39 0b                	cmp    %ecx,(%ebx)
 113:	01 13                	add    %edx,(%ebx)
 115:	00 00                	add    %al,(%eax)
 117:	14 0d                	adc    $0xd,%al
 119:	00 03                	add    %al,(%ebx)
 11b:	0e                   	push   %cs
 11c:	3a 0b                	cmp    (%ebx),%cl
 11e:	3b 0b                	cmp    (%ebx),%ecx
 120:	39 0b                	cmp    %ecx,(%ebx)
 122:	49                   	dec    %ecx
 123:	13 38                	adc    (%eax),%edi
 125:	0b 00                	or     (%eax),%eax
 127:	00 15 0d 00 49 13    	add    %dl,0x1349000d
 12d:	38 0b                	cmp    %cl,(%ebx)
 12f:	00 00                	add    %al,(%eax)
 131:	16                   	push   %ss
 132:	34 00                	xor    $0x0,%al
 134:	03 0e                	add    (%esi),%ecx
 136:	3a 0b                	cmp    (%ebx),%cl
 138:	3b 0b                	cmp    (%ebx),%ecx
 13a:	39 0b                	cmp    %ecx,(%ebx)
 13c:	49                   	dec    %ecx
 13d:	13 3f                	adc    (%edi),%edi
 13f:	19 3c 19             	sbb    %edi,(%ecx,%ebx,1)
 142:	00 00                	add    %al,(%eax)
 144:	17                   	pop    %ss
 145:	0f 00 0b             	str    (%ebx)
 148:	0b 03                	or     (%ebx),%eax
 14a:	0e                   	push   %cs
 14b:	49                   	dec    %ecx
 14c:	13 00                	adc    (%eax),%eax
 14e:	00 18                	add    %bl,(%eax)
 150:	26 00 49 13          	add    %cl,%es:0x13(%ecx)
 154:	00 00                	add    %al,(%eax)
 156:	19 24 00             	sbb    %esp,(%eax,%eax,1)
 159:	0b 0b                	or     (%ebx),%ecx
 15b:	3e 0b 03             	or     %ds:(%ebx),%eax
 15e:	08 00                	or     %al,(%eax)
 160:	00 1a                	add    %bl,(%edx)
 162:	04 01                	add    $0x1,%al
 164:	3e 0b 0b             	or     %ds:(%ebx),%ecx
 167:	0b 49 13             	or     0x13(%ecx),%ecx
 16a:	3a 0b                	cmp    (%ebx),%cl
 16c:	3b 0b                	cmp    (%ebx),%ecx
 16e:	39 0b                	cmp    %ecx,(%ebx)
 170:	01 13                	add    %edx,(%ebx)
 172:	00 00                	add    %al,(%eax)
 174:	1b 28                	sbb    (%eax),%ebp
 176:	00 03                	add    %al,(%ebx)
 178:	0e                   	push   %cs
 179:	1c 0b                	sbb    $0xb,%al
 17b:	00 00                	add    %al,(%eax)
 17d:	1c 17                	sbb    $0x17,%al
 17f:	01 0b                	add    %ecx,(%ebx)
 181:	0b 3a                	or     (%edx),%edi
 183:	0b 3b                	or     (%ebx),%edi
 185:	0b 39                	or     (%ecx),%edi
 187:	0b 89 01 19 01 13    	or     0x13011901(%ecx),%ecx
 18d:	00 00                	add    %al,(%eax)
 18f:	1d 0d 00 03 08       	sbb    $0x803000d,%eax
 194:	3a 0b                	cmp    (%ebx),%cl
 196:	3b 0b                	cmp    (%ebx),%ecx
 198:	39 0b                	cmp    %ecx,(%ebx)
 19a:	49                   	dec    %ecx
 19b:	13 00                	adc    (%eax),%eax
 19d:	00 1e                	add    %bl,(%esi)
 19f:	34 00                	xor    $0x0,%al
 1a1:	47                   	inc    %edi
 1a2:	13 3a                	adc    (%edx),%edi
 1a4:	0b 3b                	or     (%ebx),%edi
 1a6:	0b 39                	or     (%ecx),%edi
 1a8:	0b 02                	or     (%edx),%eax
 1aa:	18 00                	sbb    %al,(%eax)
 1ac:	00 1f                	add    %bl,(%edi)
 1ae:	34 00                	xor    $0x0,%al
 1b0:	03 0e                	add    (%esi),%ecx
 1b2:	3a 0b                	cmp    (%ebx),%cl
 1b4:	3b 0b                	cmp    (%ebx),%ecx
 1b6:	39 0b                	cmp    %ecx,(%ebx)
 1b8:	49                   	dec    %ecx
 1b9:	13 3f                	adc    (%edi),%edi
 1bb:	19 02                	sbb    %eax,(%edx)
 1bd:	18 00                	sbb    %al,(%eax)
 1bf:	00 20                	add    %ah,(%eax)
 1c1:	0f 00 0b             	str    (%ebx)
 1c4:	0b 00                	or     (%eax),%eax
 1c6:	00 21                	add    %ah,(%ecx)
 1c8:	2e 01 3f             	add    %edi,%cs:(%edi)
 1cb:	19 03                	sbb    %eax,(%ebx)
 1cd:	0e                   	push   %cs
 1ce:	3a 0b                	cmp    (%ebx),%cl
 1d0:	3b 0b                	cmp    (%ebx),%ecx
 1d2:	39 0b                	cmp    %ecx,(%ebx)
 1d4:	27                   	daa
 1d5:	19 3c 19             	sbb    %edi,(%ecx,%ebx,1)
 1d8:	01 13                	add    %edx,(%ebx)
 1da:	00 00                	add    %al,(%eax)
 1dc:	22 0b                	and    (%ebx),%cl
 1de:	01 55 17             	add    %edx,0x17(%ebp)
 1e1:	00 00                	add    %al,(%eax)
 1e3:	23 26                	and    (%esi),%esp
 1e5:	00 00                	add    %al,(%eax)
 1e7:	00 24 2e             	add    %ah,(%esi,%ebp,1)
 1ea:	00 3f                	add    %bh,(%edi)
 1ec:	19 03                	sbb    %eax,(%ebx)
 1ee:	0e                   	push   %cs
 1ef:	3a 0b                	cmp    (%ebx),%cl
 1f1:	3b 0b                	cmp    (%ebx),%ecx
 1f3:	39 0b                	cmp    %ecx,(%ebx)
 1f5:	11 01                	adc    %eax,(%ecx)
 1f7:	12 06                	adc    (%esi),%al
 1f9:	40                   	inc    %eax
 1fa:	18 7c 19 00          	sbb    %bh,0x0(%ecx,%ebx,1)
 1fe:	00 25 2e 01 3f 19    	add    %ah,0x193f012e
 204:	03 0e                	add    (%esi),%ecx
 206:	3a 0b                	cmp    (%ebx),%cl
 208:	3b 0b                	cmp    (%ebx),%ecx
 20a:	39 0b                	cmp    %ecx,(%ebx)
 20c:	27                   	daa
 20d:	19 49 13             	sbb    %ecx,0x13(%ecx)
 210:	11 01                	adc    %eax,(%ecx)
 212:	12 06                	adc    (%esi),%al
 214:	40                   	inc    %eax
 215:	18 7c 19 00          	sbb    %bh,0x0(%ecx,%ebx,1)
 219:	00 00                	add    %al,(%eax)
 21b:	01 34 00             	add    %esi,(%eax,%eax,1)
 21e:	03 08                	add    (%eax),%ecx
 220:	3a 21                	cmp    (%ecx),%ah
 222:	01 3b                	add    %edi,(%ebx)
 224:	0b 39                	or     (%ecx),%edi
 226:	0b 49 13             	or     0x13(%ecx),%ecx
 229:	02 18                	add    (%eax),%bl
 22b:	00 00                	add    %al,(%eax)
 22d:	02 05 00 49 13 00    	add    0x134900,%al
 233:	00 03                	add    %al,(%ebx)
 235:	05 00 03 0e 3a       	add    $0x3a0e0300,%eax
 23a:	21 01                	and    %eax,(%ecx)
 23c:	3b 0b                	cmp    (%ebx),%ecx
 23e:	39 0b                	cmp    %ecx,(%ebx)
 240:	49                   	dec    %ecx
 241:	13 02                	adc    (%edx),%eax
 243:	18 00                	sbb    %al,(%eax)
 245:	00 04 24             	add    %al,(%esp)
 248:	00 0b                	add    %cl,(%ebx)
 24a:	0b 3e                	or     (%esi),%edi
 24c:	0b 03                	or     (%ebx),%eax
 24e:	0e                   	push   %cs
 24f:	00 00                	add    %al,(%eax)
 251:	05 2e 01 3f 19       	add    $0x193f012e,%eax
 256:	03 0e                	add    (%esi),%ecx
 258:	3a 0b                	cmp    (%ebx),%cl
 25a:	3b 0b                	cmp    (%ebx),%ecx
 25c:	39 0b                	cmp    %ecx,(%ebx)
 25e:	27                   	daa
 25f:	19 49 13             	sbb    %ecx,0x13(%ecx)
 262:	3c 19                	cmp    $0x19,%al
 264:	01 13                	add    %edx,(%ebx)
 266:	00 00                	add    %al,(%eax)
 268:	06                   	push   %es
 269:	05 00 03 08 3a       	add    $0x3a080300,%eax
 26e:	21 01                	and    %eax,(%ecx)
 270:	3b 0b                	cmp    (%ebx),%ecx
 272:	39 0b                	cmp    %ecx,(%ebx)
 274:	49                   	dec    %ecx
 275:	13 02                	adc    (%edx),%eax
 277:	18 00                	sbb    %al,(%eax)
 279:	00 07                	add    %al,(%edi)
 27b:	0d 00 03 0e 3a       	or     $0x3a0e0300,%eax
 280:	21 01                	and    %eax,(%ecx)
 282:	3b 0b                	cmp    (%ebx),%ecx
 284:	39 0b                	cmp    %ecx,(%ebx)
 286:	49                   	dec    %ecx
 287:	13 38                	adc    (%eax),%edi
 289:	0b 00                	or     (%eax),%eax
 28b:	00 08                	add    %cl,(%eax)
 28d:	0f 00 0b             	str    (%ebx)
 290:	21 04 49             	and    %eax,(%ecx,%ecx,2)
 293:	13 00                	adc    (%eax),%eax
 295:	00 09                	add    %cl,(%ecx)
 297:	2e 01 3f             	add    %edi,%cs:(%edi)
 29a:	19 03                	sbb    %eax,(%ebx)
 29c:	0e                   	push   %cs
 29d:	3a 21                	cmp    (%ecx),%ah
 29f:	01 3b                	add    %edi,(%ebx)
 2a1:	0b 39                	or     (%ecx),%edi
 2a3:	0b 27                	or     (%edi),%esp
 2a5:	19 49 13             	sbb    %ecx,0x13(%ecx)
 2a8:	11 01                	adc    %eax,(%ecx)
 2aa:	12 06                	adc    (%esi),%al
 2ac:	40                   	inc    %eax
 2ad:	18 7c 19 01          	sbb    %bh,0x1(%ecx,%ebx,1)
 2b1:	13 00                	adc    (%eax),%eax
 2b3:	00 0a                	add    %cl,(%edx)
 2b5:	34 00                	xor    $0x0,%al
 2b7:	03 0e                	add    (%esi),%ecx
 2b9:	3a 21                	cmp    (%ecx),%ah
 2bb:	01 3b                	add    %edi,(%ebx)
 2bd:	0b 39                	or     (%ecx),%edi
 2bf:	0b 49 13             	or     0x13(%ecx),%ecx
 2c2:	02 18                	add    (%eax),%bl
 2c4:	00 00                	add    %al,(%eax)
 2c6:	0b 34 00             	or     (%eax,%eax,1),%esi
 2c9:	03 08                	add    (%eax),%ecx
 2cb:	3a 21                	cmp    (%ecx),%ah
 2cd:	01 3b                	add    %edi,(%ebx)
 2cf:	0b 39                	or     (%ecx),%edi
 2d1:	0b 49 13             	or     0x13(%ecx),%ecx
 2d4:	00 00                	add    %al,(%eax)
 2d6:	0c 2e                	or     $0x2e,%al
 2d8:	01 3f                	add    %edi,(%edi)
 2da:	19 03                	sbb    %eax,(%ebx)
 2dc:	0e                   	push   %cs
 2dd:	3a 21                	cmp    (%ecx),%ah
 2df:	01 3b                	add    %edi,(%ebx)
 2e1:	0b 39                	or     (%ecx),%edi
 2e3:	21 06                	and    %eax,(%esi)
 2e5:	27                   	daa
 2e6:	19 11                	sbb    %edx,(%ecx)
 2e8:	01 12                	add    %edx,(%edx)
 2ea:	06                   	push   %es
 2eb:	40                   	inc    %eax
 2ec:	18 7a 19             	sbb    %bh,0x19(%edx)
 2ef:	01 13                	add    %edx,(%ebx)
 2f1:	00 00                	add    %al,(%eax)
 2f3:	0d 2e 01 3f 19       	or     $0x193f012e,%eax
 2f8:	03 0e                	add    (%esi),%ecx
 2fa:	3a 21                	cmp    (%ecx),%ah
 2fc:	01 3b                	add    %edi,(%ebx)
 2fe:	0b 39                	or     (%ecx),%edi
 300:	0b 27                	or     (%edi),%esp
 302:	19 49 13             	sbb    %ecx,0x13(%ecx)
 305:	11 01                	adc    %eax,(%ecx)
 307:	12 06                	adc    (%esi),%al
 309:	40                   	inc    %eax
 30a:	18 7a 19             	sbb    %bh,0x19(%edx)
 30d:	01 13                	add    %edx,(%ebx)
 30f:	00 00                	add    %al,(%eax)
 311:	0e                   	push   %cs
 312:	13 01                	adc    (%ecx),%eax
 314:	03 0e                	add    (%esi),%ecx
 316:	0b 0b                	or     (%ebx),%ecx
 318:	3a 21                	cmp    (%ecx),%ah
 31a:	01 3b                	add    %edi,(%ebx)
 31c:	0b 39                	or     (%ecx),%edi
 31e:	21 08                	and    %ecx,(%eax)
 320:	01 13                	add    %edx,(%ebx)
 322:	00 00                	add    %al,(%eax)
 324:	0f 34                	sysenter
 326:	00 03                	add    %al,(%ebx)
 328:	0e                   	push   %cs
 329:	3a 21                	cmp    (%ecx),%ah
 32b:	01 3b                	add    %edi,(%ebx)
 32d:	0b 39                	or     (%ecx),%edi
 32f:	0b 49 13             	or     0x13(%ecx),%ecx
 332:	3f                   	aas
 333:	19 02                	sbb    %eax,(%edx)
 335:	18 00                	sbb    %al,(%eax)
 337:	00 10                	add    %dl,(%eax)
 339:	34 00                	xor    $0x0,%al
 33b:	03 0e                	add    (%esi),%ecx
 33d:	3a 21                	cmp    (%ecx),%ah
 33f:	01 3b                	add    %edi,(%ebx)
 341:	0b 39                	or     (%ecx),%edi
 343:	0b 49 13             	or     0x13(%ecx),%ecx
 346:	00 00                	add    %al,(%eax)
 348:	11 2e                	adc    %ebp,(%esi)
 34a:	00 3f                	add    %bh,(%edi)
 34c:	19 03                	sbb    %eax,(%ebx)
 34e:	0e                   	push   %cs
 34f:	3a 21                	cmp    (%ecx),%ah
 351:	01 3b                	add    %edi,(%ebx)
 353:	0b 39                	or     (%ecx),%edi
 355:	21 06                	and    %eax,(%esi)
 357:	11 01                	adc    %eax,(%ecx)
 359:	12 06                	adc    (%esi),%al
 35b:	40                   	inc    %eax
 35c:	18 7c 19 00          	sbb    %bh,0x0(%ecx,%ebx,1)
 360:	00 12                	add    %dl,(%edx)
 362:	11 01                	adc    %eax,(%ecx)
 364:	25 0e 13 0b 03       	and    $0x30b130e,%eax
 369:	1f                   	pop    %ds
 36a:	1b 1f                	sbb    (%edi),%ebx
 36c:	11 01                	adc    %eax,(%ecx)
 36e:	12 06                	adc    (%esi),%al
 370:	10 17                	adc    %dl,(%edi)
 372:	00 00                	add    %al,(%eax)
 374:	13 16                	adc    (%esi),%edx
 376:	00 03                	add    %al,(%ebx)
 378:	0e                   	push   %cs
 379:	3a 0b                	cmp    (%ebx),%cl
 37b:	3b 0b                	cmp    (%ebx),%ecx
 37d:	39 0b                	cmp    %ecx,(%ebx)
 37f:	49                   	dec    %ecx
 380:	13 00                	adc    (%eax),%eax
 382:	00 14 26             	add    %dl,(%esi,%eiz,1)
 385:	00 49 13             	add    %cl,0x13(%ecx)
 388:	00 00                	add    %al,(%eax)
 38a:	15 0f 00 0b 0b       	adc    $0xb0b000f,%eax
 38f:	00 00                	add    %al,(%eax)
 391:	16                   	push   %ss
 392:	24 00                	and    $0x0,%al
 394:	0b 0b                	or     (%ebx),%ecx
 396:	3e 0b 03             	or     %ds:(%ebx),%eax
 399:	08 00                	or     %al,(%eax)
 39b:	00 17                	add    %dl,(%edi)
 39d:	26 00 00             	add    %al,%es:(%eax)
 3a0:	00 18                	add    %bl,(%eax)
 3a2:	18 00                	sbb    %al,(%eax)
 3a4:	00 00                	add    %al,(%eax)
 3a6:	19 2e                	sbb    %ebp,(%esi)
 3a8:	01 3f                	add    %edi,(%edi)
 3aa:	19 03                	sbb    %eax,(%ebx)
 3ac:	0e                   	push   %cs
 3ad:	3a 0b                	cmp    (%ebx),%cl
 3af:	3b 0b                	cmp    (%ebx),%ecx
 3b1:	39 0b                	cmp    %ecx,(%ebx)
 3b3:	27                   	daa
 3b4:	19 3c 19             	sbb    %edi,(%ecx,%ebx,1)
 3b7:	01 13                	add    %edx,(%ebx)
 3b9:	00 00                	add    %al,(%eax)
 3bb:	1a 2e                	sbb    (%esi),%ch
 3bd:	01 3f                	add    %edi,(%edi)
 3bf:	19 03                	sbb    %eax,(%ebx)
 3c1:	0e                   	push   %cs
 3c2:	3a 0b                	cmp    (%ebx),%cl
 3c4:	3b 0b                	cmp    (%ebx),%ecx
 3c6:	39 0b                	cmp    %ecx,(%ebx)
 3c8:	49                   	dec    %ecx
 3c9:	13 11                	adc    (%ecx),%edx
 3cb:	01 12                	add    %edx,(%edx)
 3cd:	06                   	push   %es
 3ce:	40                   	inc    %eax
 3cf:	18 7a 19             	sbb    %bh,0x19(%edx)
 3d2:	01 13                	add    %edx,(%ebx)
 3d4:	00 00                	add    %al,(%eax)
 3d6:	1b 0b                	sbb    (%ebx),%ecx
 3d8:	01 11                	add    %edx,(%ecx)
 3da:	01 12                	add    %edx,(%edx)
 3dc:	06                   	push   %es
 3dd:	00 00                	add    %al,(%eax)
 3df:	00 01                	add    %al,(%ecx)
 3e1:	05 00 03 08 3a       	add    $0x3a080300,%eax
 3e6:	21 01                	and    %eax,(%ecx)
 3e8:	3b 0b                	cmp    (%ebx),%ecx
 3ea:	39 0b                	cmp    %ecx,(%ebx)
 3ec:	49                   	dec    %ecx
 3ed:	13 02                	adc    (%edx),%eax
 3ef:	18 00                	sbb    %al,(%eax)
 3f1:	00 02                	add    %al,(%edx)
 3f3:	34 00                	xor    $0x0,%al
 3f5:	03 08                	add    (%eax),%ecx
 3f7:	3a 21                	cmp    (%ecx),%ah
 3f9:	01 3b                	add    %edi,(%ebx)
 3fb:	0b 39                	or     (%ecx),%edi
 3fd:	0b 49 13             	or     0x13(%ecx),%ecx
 400:	02 18                	add    (%eax),%bl
 402:	00 00                	add    %al,(%eax)
 404:	03 2e                	add    (%esi),%ebp
 406:	01 3f                	add    %edi,(%edi)
 408:	19 03                	sbb    %eax,(%ebx)
 40a:	0e                   	push   %cs
 40b:	3a 21                	cmp    (%ecx),%ah
 40d:	01 3b                	add    %edi,(%ebx)
 40f:	0b 39                	or     (%ecx),%edi
 411:	0b 27                	or     (%edi),%esp
 413:	19 49 13             	sbb    %ecx,0x13(%ecx)
 416:	11 01                	adc    %eax,(%ecx)
 418:	12 06                	adc    (%esi),%al
 41a:	40                   	inc    %eax
 41b:	18 7a 19             	sbb    %bh,0x19(%edx)
 41e:	01 13                	add    %edx,(%ebx)
 420:	00 00                	add    %al,(%eax)
 422:	04 24                	add    $0x24,%al
 424:	00 0b                	add    %cl,(%ebx)
 426:	0b 3e                	or     (%esi),%edi
 428:	0b 03                	or     (%ebx),%eax
 42a:	0e                   	push   %cs
 42b:	00 00                	add    %al,(%eax)
 42d:	05 0f 00 0b 21       	add    $0x210b000f,%eax
 432:	04 49                	add    $0x49,%al
 434:	13 00                	adc    (%eax),%eax
 436:	00 06                	add    %al,(%esi)
 438:	34 00                	xor    $0x0,%al
 43a:	03 0e                	add    (%esi),%ecx
 43c:	3a 21                	cmp    (%ecx),%ah
 43e:	01 3b                	add    %edi,(%ebx)
 440:	0b 39                	or     (%ecx),%edi
 442:	0b 49 13             	or     0x13(%ecx),%ecx
 445:	02 18                	add    (%eax),%bl
 447:	00 00                	add    %al,(%eax)
 449:	07                   	pop    %es
 44a:	34 00                	xor    $0x0,%al
 44c:	03 08                	add    (%eax),%ecx
 44e:	3a 21                	cmp    (%ecx),%ah
 450:	01 3b                	add    %edi,(%ebx)
 452:	05 39 0b 49 13       	add    $0x13490b39,%eax
 457:	02 18                	add    (%eax),%bl
 459:	00 00                	add    %al,(%eax)
 45b:	08 05 00 03 0e 3a    	or     %al,0x3a0e0300
 461:	21 01                	and    %eax,(%ecx)
 463:	3b 0b                	cmp    (%ebx),%ecx
 465:	39 0b                	cmp    %ecx,(%ebx)
 467:	49                   	dec    %ecx
 468:	13 02                	adc    (%edx),%eax
 46a:	18 00                	sbb    %al,(%eax)
 46c:	00 09                	add    %cl,(%ecx)
 46e:	05 00 03 08 3a       	add    $0x3a080300,%eax
 473:	21 01                	and    %eax,(%ecx)
 475:	3b 05 39 0b 49 13    	cmp    0x13490b39,%eax
 47b:	02 18                	add    (%eax),%bl
 47d:	00 00                	add    %al,(%eax)
 47f:	0a 34 00             	or     (%eax,%eax,1),%dh
 482:	03 0e                	add    (%esi),%ecx
 484:	3a 21                	cmp    (%ecx),%ah
 486:	01 3b                	add    %edi,(%ebx)
 488:	05 39 0b 49 13       	add    $0x13490b39,%eax
 48d:	02 18                	add    (%eax),%bl
 48f:	00 00                	add    %al,(%eax)
 491:	0b 2e                	or     (%esi),%ebp
 493:	01 3f                	add    %edi,(%edi)
 495:	19 03                	sbb    %eax,(%ebx)
 497:	0e                   	push   %cs
 498:	3a 21                	cmp    (%ecx),%ah
 49a:	01 3b                	add    %edi,(%ebx)
 49c:	0b 39                	or     (%ecx),%edi
 49e:	0b 27                	or     (%edi),%esp
 4a0:	19 49 13             	sbb    %ecx,0x13(%ecx)
 4a3:	11 01                	adc    %eax,(%ecx)
 4a5:	12 06                	adc    (%esi),%al
 4a7:	40                   	inc    %eax
 4a8:	18 7c 19 01          	sbb    %bh,0x1(%ecx,%ebx,1)
 4ac:	13 00                	adc    (%eax),%eax
 4ae:	00 0c 26             	add    %cl,(%esi,%eiz,1)
 4b1:	00 49 13             	add    %cl,0x13(%ecx)
 4b4:	00 00                	add    %al,(%eax)
 4b6:	0d 16 00 03 0e       	or     $0xe030016,%eax
 4bb:	3a 0b                	cmp    (%ebx),%cl
 4bd:	3b 0b                	cmp    (%ebx),%ecx
 4bf:	39 0b                	cmp    %ecx,(%ebx)
 4c1:	49                   	dec    %ecx
 4c2:	13 00                	adc    (%eax),%eax
 4c4:	00 0e                	add    %cl,(%esi)
 4c6:	0b 01                	or     (%ecx),%eax
 4c8:	11 01                	adc    %eax,(%ecx)
 4ca:	12 06                	adc    (%esi),%al
 4cc:	00 00                	add    %al,(%eax)
 4ce:	0f 11 01             	movups %xmm0,(%ecx)
 4d1:	25 0e 13 0b 03       	and    $0x30b130e,%eax
 4d6:	1f                   	pop    %ds
 4d7:	1b 1f                	sbb    (%edi),%ebx
 4d9:	11 01                	adc    %eax,(%ecx)
 4db:	12 06                	adc    (%esi),%al
 4dd:	10 17                	adc    %dl,(%edi)
 4df:	00 00                	add    %al,(%eax)
 4e1:	10 24 00             	adc    %ah,(%eax,%eax,1)
 4e4:	0b 0b                	or     (%ebx),%ecx
 4e6:	3e 0b 03             	or     %ds:(%ebx),%eax
 4e9:	08 00                	or     %al,(%eax)
 4eb:	00 11                	add    %dl,(%ecx)
 4ed:	0f 00 0b             	str    (%ebx)
 4f0:	0b 00                	or     (%eax),%eax
 4f2:	00 12                	add    %dl,(%edx)
 4f4:	2e 01 3f             	add    %edi,%cs:(%edi)
 4f7:	19 03                	sbb    %eax,(%ebx)
 4f9:	0e                   	push   %cs
 4fa:	3a 0b                	cmp    (%ebx),%cl
 4fc:	3b 0b                	cmp    (%ebx),%ecx
 4fe:	39 0b                	cmp    %ecx,(%ebx)
 500:	27                   	daa
 501:	19 49 13             	sbb    %ecx,0x13(%ecx)
 504:	3c 19                	cmp    $0x19,%al
 506:	01 13                	add    %edx,(%ebx)
 508:	00 00                	add    %al,(%eax)
 50a:	13 05 00 49 13 00    	adc    0x134900,%eax
 510:	00 14 2e             	add    %dl,(%esi,%ebp,1)
 513:	01 3f                	add    %edi,(%edi)
 515:	19 03                	sbb    %eax,(%ebx)
 517:	0e                   	push   %cs
 518:	3a 0b                	cmp    (%ebx),%cl
 51a:	3b 05 39 0b 27 19    	cmp    0x19270b39,%eax
 520:	49                   	dec    %ecx
 521:	13 11                	adc    (%ecx),%edx
 523:	01 12                	add    %edx,(%edx)
 525:	06                   	push   %es
 526:	40                   	inc    %eax
 527:	18 7c 19 01          	sbb    %bh,0x1(%ecx,%ebx,1)
 52b:	13 00                	adc    (%eax),%eax
 52d:	00 15 2e 01 3f 19    	add    %dl,0x193f012e
 533:	03 0e                	add    (%esi),%ecx
 535:	3a 0b                	cmp    (%ebx),%cl
 537:	3b 05 39 0b 27 19    	cmp    0x19270b39,%eax
 53d:	49                   	dec    %ecx
 53e:	13 11                	adc    (%ecx),%edx
 540:	01 12                	add    %edx,(%edx)
 542:	06                   	push   %es
 543:	40                   	inc    %eax
 544:	18 7a 19             	sbb    %bh,0x19(%edx)
 547:	01 13                	add    %edx,(%ebx)
 549:	00 00                	add    %al,(%eax)
 54b:	16                   	push   %ss
 54c:	01 01                	add    %eax,(%ecx)
 54e:	49                   	dec    %ecx
 54f:	13 01                	adc    (%ecx),%eax
 551:	13 00                	adc    (%eax),%eax
 553:	00 17                	add    %dl,(%edi)
 555:	21 00                	and    %eax,(%eax)
 557:	49                   	dec    %ecx
 558:	13 2f                	adc    (%edi),%ebp
 55a:	0b 00                	or     (%eax),%eax
 55c:	00 18                	add    %bl,(%eax)
 55e:	2e 01 03             	add    %eax,%cs:(%ebx)
 561:	0e                   	push   %cs
 562:	3a 0b                	cmp    (%ebx),%cl
 564:	3b 0b                	cmp    (%ebx),%ecx
 566:	39 0b                	cmp    %ecx,(%ebx)
 568:	27                   	daa
 569:	19 49 13             	sbb    %ecx,0x13(%ecx)
 56c:	11 01                	adc    %eax,(%ecx)
 56e:	12 06                	adc    (%esi),%al
 570:	40                   	inc    %eax
 571:	18 7c 19 01          	sbb    %bh,0x1(%ecx,%ebx,1)
 575:	13 00                	adc    (%eax),%eax
 577:	00 19                	add    %bl,(%ecx)
 579:	34 00                	xor    $0x0,%al
 57b:	03 08                	add    (%eax),%ecx
 57d:	3a 0b                	cmp    (%ebx),%cl
 57f:	3b 0b                	cmp    (%ebx),%ecx
 581:	39 0b                	cmp    %ecx,(%ebx)
 583:	49                   	dec    %ecx
 584:	13 00                	adc    (%eax),%eax
 586:	00 1a                	add    %bl,(%edx)
 588:	26 00 00             	add    %al,%es:(%eax)
 58b:	00 1b                	add    %bl,(%ebx)
 58d:	2e 01 3f             	add    %edi,%cs:(%edi)
 590:	19 03                	sbb    %eax,(%ebx)
 592:	0e                   	push   %cs
 593:	3a 0b                	cmp    (%ebx),%cl
 595:	3b 0b                	cmp    (%ebx),%ecx
 597:	39 0b                	cmp    %ecx,(%ebx)
 599:	27                   	daa
 59a:	19 49 13             	sbb    %ecx,0x13(%ecx)
 59d:	11 01                	adc    %eax,(%ecx)
 59f:	12 06                	adc    (%esi),%al
 5a1:	40                   	inc    %eax
 5a2:	18 7a 19             	sbb    %bh,0x19(%edx)
 5a5:	00 00                	add    %al,(%eax)
 5a7:	00 01                	add    %al,(%ecx)
 5a9:	34 00                	xor    $0x0,%al
 5ab:	03 08                	add    (%eax),%ecx
 5ad:	3a 21                	cmp    (%ecx),%ah
 5af:	01 3b                	add    %edi,(%ebx)
 5b1:	0b 39                	or     (%ecx),%edi
 5b3:	21 14 49             	and    %edx,(%ecx,%ecx,2)
 5b6:	13 02                	adc    (%edx),%eax
 5b8:	18 00                	sbb    %al,(%eax)
 5ba:	00 02                	add    %al,(%edx)
 5bc:	24 00                	and    $0x0,%al
 5be:	0b 0b                	or     (%ebx),%ecx
 5c0:	3e 0b 03             	or     %ds:(%ebx),%eax
 5c3:	0e                   	push   %cs
 5c4:	00 00                	add    %al,(%eax)
 5c6:	03 05 00 03 08 3a    	add    0x3a080300,%eax
 5cc:	21 01                	and    %eax,(%ecx)
 5ce:	3b 0b                	cmp    (%ebx),%ecx
 5d0:	39 0b                	cmp    %ecx,(%ebx)
 5d2:	49                   	dec    %ecx
 5d3:	13 02                	adc    (%edx),%eax
 5d5:	18 00                	sbb    %al,(%eax)
 5d7:	00 04 05 00 03 0e 3a 	add    %al,0x3a0e0300(,%eax,1)
 5de:	21 01                	and    %eax,(%ecx)
 5e0:	3b 0b                	cmp    (%ebx),%ecx
 5e2:	39 0b                	cmp    %ecx,(%ebx)
 5e4:	49                   	dec    %ecx
 5e5:	13 02                	adc    (%edx),%eax
 5e7:	18 00                	sbb    %al,(%eax)
 5e9:	00 05 2e 01 3f 19    	add    %al,0x193f012e
 5ef:	03 0e                	add    (%esi),%ecx
 5f1:	3a 21                	cmp    (%ecx),%ah
 5f3:	01 3b                	add    %edi,(%ebx)
 5f5:	0b 39                	or     (%ecx),%edi
 5f7:	21 05 27 19 49 13    	and    %eax,0x13491927
 5fd:	11 01                	adc    %eax,(%ecx)
 5ff:	12 06                	adc    (%esi),%al
 601:	40                   	inc    %eax
 602:	18 7a 19             	sbb    %bh,0x19(%edx)
 605:	01 13                	add    %edx,(%ebx)
 607:	00 00                	add    %al,(%eax)
 609:	06                   	push   %es
 60a:	11 01                	adc    %eax,(%ecx)
 60c:	25 0e 13 0b 03       	and    $0x30b130e,%eax
 611:	1f                   	pop    %ds
 612:	1b 1f                	sbb    (%edi),%ebx
 614:	11 01                	adc    %eax,(%ecx)
 616:	12 06                	adc    (%esi),%al
 618:	10 17                	adc    %dl,(%edi)
 61a:	00 00                	add    %al,(%eax)
 61c:	07                   	pop    %es
 61d:	24 00                	and    $0x0,%al
 61f:	0b 0b                	or     (%ebx),%ecx
 621:	3e 0b 03             	or     %ds:(%ebx),%eax
 624:	08 00                	or     %al,(%eax)
 626:	00 08                	add    %cl,(%eax)
 628:	16                   	push   %ss
 629:	00 03                	add    %al,(%ebx)
 62b:	0e                   	push   %cs
 62c:	3a 0b                	cmp    (%ebx),%cl
 62e:	3b 0b                	cmp    (%ebx),%ecx
 630:	39 0b                	cmp    %ecx,(%ebx)
 632:	49                   	dec    %ecx
 633:	13 00                	adc    (%eax),%eax
 635:	00 09                	add    %cl,(%ecx)
 637:	0f 00 0b             	str    (%ebx)
 63a:	0b 00                	or     (%eax),%eax
 63c:	00 0a                	add    %cl,(%edx)
 63e:	0f 00 0b             	str    (%ebx)
 641:	0b 49 13             	or     0x13(%ecx),%ecx
 644:	00 00                	add    %al,(%eax)
 646:	0b 2e                	or     (%esi),%ebp
 648:	01 3f                	add    %edi,(%edi)
 64a:	19 03                	sbb    %eax,(%ebx)
 64c:	0e                   	push   %cs
 64d:	3a 0b                	cmp    (%ebx),%cl
 64f:	3b 0b                	cmp    (%ebx),%ecx
 651:	39 0b                	cmp    %ecx,(%ebx)
 653:	27                   	daa
 654:	19 11                	sbb    %edx,(%ecx)
 656:	01 12                	add    %edx,(%edx)
 658:	06                   	push   %es
 659:	40                   	inc    %eax
 65a:	18 7a 19             	sbb    %bh,0x19(%edx)
 65d:	01 13                	add    %edx,(%ebx)
 65f:	00 00                	add    %al,(%eax)
 661:	0c 2e                	or     $0x2e,%al
 663:	01 3f                	add    %edi,(%edi)
 665:	19 03                	sbb    %eax,(%ebx)
 667:	0e                   	push   %cs
 668:	3a 0b                	cmp    (%ebx),%cl
 66a:	3b 0b                	cmp    (%ebx),%ecx
 66c:	39 0b                	cmp    %ecx,(%ebx)
 66e:	27                   	daa
 66f:	19 49 13             	sbb    %ecx,0x13(%ecx)
 672:	11 01                	adc    %eax,(%ecx)
 674:	12 06                	adc    (%esi),%al
 676:	40                   	inc    %eax
 677:	18 7a 19             	sbb    %bh,0x19(%edx)
 67a:	00 00                	add    %al,(%eax)
 67c:	00 01                	add    %al,(%ecx)
 67e:	28 00                	sub    %al,(%eax)
 680:	03 0e                	add    (%esi),%ecx
 682:	1c 0b                	sbb    $0xb,%al
 684:	00 00                	add    %al,(%eax)
 686:	02 24 00             	add    (%eax,%eax,1),%ah
 689:	0b 0b                	or     (%ebx),%ecx
 68b:	3e 0b 03             	or     %ds:(%ebx),%eax
 68e:	0e                   	push   %cs
 68f:	00 00                	add    %al,(%eax)
 691:	03 34 00             	add    (%eax,%eax,1),%esi
 694:	03 08                	add    (%eax),%ecx
 696:	3a 21                	cmp    (%ecx),%ah
 698:	01 3b                	add    %edi,(%ebx)
 69a:	0b 39                	or     (%ecx),%edi
 69c:	0b 49 13             	or     0x13(%ecx),%ecx
 69f:	02 18                	add    (%eax),%bl
 6a1:	00 00                	add    %al,(%eax)
 6a3:	04 05                	add    $0x5,%al
 6a5:	00 03                	add    %al,(%ebx)
 6a7:	0e                   	push   %cs
 6a8:	3a 21                	cmp    (%ecx),%ah
 6aa:	01 3b                	add    %edi,(%ebx)
 6ac:	0b 39                	or     (%ecx),%edi
 6ae:	0b 49 13             	or     0x13(%ecx),%ecx
 6b1:	02 18                	add    (%eax),%bl
 6b3:	00 00                	add    %al,(%eax)
 6b5:	05 34 00 03 0e       	add    $0xe030034,%eax
 6ba:	3a 21                	cmp    (%ecx),%ah
 6bc:	01 3b                	add    %edi,(%ebx)
 6be:	0b 39                	or     (%ecx),%edi
 6c0:	0b 49 13             	or     0x13(%ecx),%ecx
 6c3:	02 18                	add    (%eax),%bl
 6c5:	00 00                	add    %al,(%eax)
 6c7:	06                   	push   %es
 6c8:	16                   	push   %ss
 6c9:	00 03                	add    %al,(%ebx)
 6cb:	0e                   	push   %cs
 6cc:	3a 0b                	cmp    (%ebx),%cl
 6ce:	3b 0b                	cmp    (%ebx),%ecx
 6d0:	39 0b                	cmp    %ecx,(%ebx)
 6d2:	49                   	dec    %ecx
 6d3:	13 00                	adc    (%eax),%eax
 6d5:	00 07                	add    %al,(%edi)
 6d7:	0d 00 03 0e 3a       	or     $0x3a0e0300,%eax
 6dc:	21 02                	and    %eax,(%edx)
 6de:	3b 0b                	cmp    (%ebx),%ecx
 6e0:	39 0b                	cmp    %ecx,(%ebx)
 6e2:	49                   	dec    %ecx
 6e3:	13 38                	adc    (%eax),%edi
 6e5:	0b 00                	or     (%eax),%eax
 6e7:	00 08                	add    %cl,(%eax)
 6e9:	11 01                	adc    %eax,(%ecx)
 6eb:	25 0e 13 0b 03       	and    $0x30b130e,%eax
 6f0:	1f                   	pop    %ds
 6f1:	1b 1f                	sbb    (%edi),%ebx
 6f3:	11 01                	adc    %eax,(%ecx)
 6f5:	12 06                	adc    (%esi),%al
 6f7:	10 17                	adc    %dl,(%edi)
 6f9:	00 00                	add    %al,(%eax)
 6fb:	09 04 01             	or     %eax,(%ecx,%eax,1)
 6fe:	3e 0b 0b             	or     %ds:(%ebx),%ecx
 701:	0b 49 13             	or     0x13(%ecx),%ecx
 704:	3a 0b                	cmp    (%ebx),%cl
 706:	3b 0b                	cmp    (%ebx),%ecx
 708:	39 0b                	cmp    %ecx,(%ebx)
 70a:	01 13                	add    %edx,(%ebx)
 70c:	00 00                	add    %al,(%eax)
 70e:	0a 13                	or     (%ebx),%dl
 710:	01 03                	add    %eax,(%ebx)
 712:	0e                   	push   %cs
 713:	0b 0b                	or     (%ebx),%ecx
 715:	3a 0b                	cmp    (%ebx),%cl
 717:	3b 0b                	cmp    (%ebx),%ecx
 719:	39 0b                	cmp    %ecx,(%ebx)
 71b:	01 13                	add    %edx,(%ebx)
 71d:	00 00                	add    %al,(%eax)
 71f:	0b 0f                	or     (%edi),%ecx
 721:	00 0b                	add    %cl,(%ebx)
 723:	0b 00                	or     (%eax),%eax
 725:	00 0c 24             	add    %cl,(%esp)
 728:	00 0b                	add    %cl,(%ebx)
 72a:	0b 3e                	or     (%esi),%edi
 72c:	0b 03                	or     (%ebx),%eax
 72e:	08 00                	or     %al,(%eax)
 730:	00 0d 2e 01 3f 19    	add    %cl,0x193f012e
 736:	03 0e                	add    (%esi),%ecx
 738:	3a 0b                	cmp    (%ebx),%cl
 73a:	3b 0b                	cmp    (%ebx),%ecx
 73c:	39 0b                	cmp    %ecx,(%ebx)
 73e:	27                   	daa
 73f:	19 49 13             	sbb    %ecx,0x13(%ecx)
 742:	11 01                	adc    %eax,(%ecx)
 744:	12 06                	adc    (%esi),%al
 746:	40                   	inc    %eax
 747:	18 7a 19             	sbb    %bh,0x19(%edx)
 74a:	01 13                	add    %edx,(%ebx)
 74c:	00 00                	add    %al,(%eax)
 74e:	0e                   	push   %cs
 74f:	2e 01 3f             	add    %edi,%cs:(%edi)
 752:	19 03                	sbb    %eax,(%ebx)
 754:	0e                   	push   %cs
 755:	3a 0b                	cmp    (%ebx),%cl
 757:	3b 0b                	cmp    (%ebx),%ecx
 759:	39 0b                	cmp    %ecx,(%ebx)
 75b:	27                   	daa
 75c:	19 11                	sbb    %edx,(%ecx)
 75e:	01 12                	add    %edx,(%edx)
 760:	06                   	push   %es
 761:	40                   	inc    %eax
 762:	18 7a 19             	sbb    %bh,0x19(%edx)
 765:	01 13                	add    %edx,(%ebx)
 767:	00 00                	add    %al,(%eax)
 769:	0f 2e 01             	ucomiss (%ecx),%xmm0
 76c:	3f                   	aas
 76d:	19 03                	sbb    %eax,(%ebx)
 76f:	0e                   	push   %cs
 770:	3a 0b                	cmp    (%ebx),%cl
 772:	3b 0b                	cmp    (%ebx),%ecx
 774:	39 0b                	cmp    %ecx,(%ebx)
 776:	27                   	daa
 777:	19 49 13             	sbb    %ecx,0x13(%ecx)
 77a:	11 01                	adc    %eax,(%ecx)
 77c:	12 06                	adc    (%esi),%al
 77e:	40                   	inc    %eax
 77f:	18 7a 19             	sbb    %bh,0x19(%edx)
 782:	00 00                	add    %al,(%eax)
 784:	00 01                	add    %al,(%ecx)
 786:	34 00                	xor    $0x0,%al
 788:	03 08                	add    (%eax),%ecx
 78a:	3a 21                	cmp    (%ecx),%ah
 78c:	01 3b                	add    %edi,(%ebx)
 78e:	0b 39                	or     (%ecx),%edi
 790:	21 14 49             	and    %edx,(%ecx,%ecx,2)
 793:	13 02                	adc    (%edx),%eax
 795:	18 00                	sbb    %al,(%eax)
 797:	00 02                	add    %al,(%edx)
 799:	24 00                	and    $0x0,%al
 79b:	0b 0b                	or     (%ebx),%ecx
 79d:	3e 0b 03             	or     %ds:(%ebx),%eax
 7a0:	0e                   	push   %cs
 7a1:	00 00                	add    %al,(%eax)
 7a3:	03 05 00 03 0e 3a    	add    0x3a0e0300,%eax
 7a9:	21 01                	and    %eax,(%ecx)
 7ab:	3b 0b                	cmp    (%ebx),%ecx
 7ad:	39 0b                	cmp    %ecx,(%ebx)
 7af:	49                   	dec    %ecx
 7b0:	13 02                	adc    (%edx),%eax
 7b2:	18 00                	sbb    %al,(%eax)
 7b4:	00 04 28             	add    %al,(%eax,%ebp,1)
 7b7:	00 03                	add    %al,(%ebx)
 7b9:	0e                   	push   %cs
 7ba:	1c 0b                	sbb    $0xb,%al
 7bc:	00 00                	add    %al,(%eax)
 7be:	05 2e 01 3f 19       	add    $0x193f012e,%eax
 7c3:	03 0e                	add    (%esi),%ecx
 7c5:	3a 21                	cmp    (%ecx),%ah
 7c7:	01 3b                	add    %edi,(%ebx)
 7c9:	0b 39                	or     (%ecx),%edi
 7cb:	21 06                	and    %eax,(%esi)
 7cd:	27                   	daa
 7ce:	19 11                	sbb    %edx,(%ecx)
 7d0:	01 12                	add    %edx,(%edx)
 7d2:	06                   	push   %es
 7d3:	40                   	inc    %eax
 7d4:	18 7a 19             	sbb    %bh,0x19(%edx)
 7d7:	01 13                	add    %edx,(%ebx)
 7d9:	00 00                	add    %al,(%eax)
 7db:	06                   	push   %es
 7dc:	16                   	push   %ss
 7dd:	00 03                	add    %al,(%ebx)
 7df:	0e                   	push   %cs
 7e0:	3a 0b                	cmp    (%ebx),%cl
 7e2:	3b 0b                	cmp    (%ebx),%ecx
 7e4:	39 0b                	cmp    %ecx,(%ebx)
 7e6:	49                   	dec    %ecx
 7e7:	13 00                	adc    (%eax),%eax
 7e9:	00 07                	add    %al,(%edi)
 7eb:	0f 00 0b             	str    (%ebx)
 7ee:	21 04 49             	and    %eax,(%ecx,%ecx,2)
 7f1:	13 00                	adc    (%eax),%eax
 7f3:	00 08                	add    %cl,(%eax)
 7f5:	11 01                	adc    %eax,(%ecx)
 7f7:	25 0e 13 0b 03       	and    $0x30b130e,%eax
 7fc:	1f                   	pop    %ds
 7fd:	1b 1f                	sbb    (%edi),%ebx
 7ff:	11 01                	adc    %eax,(%ecx)
 801:	12 06                	adc    (%esi),%al
 803:	10 17                	adc    %dl,(%edi)
 805:	00 00                	add    %al,(%eax)
 807:	09 04 01             	or     %eax,(%ecx,%eax,1)
 80a:	3e 0b 0b             	or     %ds:(%ebx),%ecx
 80d:	0b 49 13             	or     0x13(%ecx),%ecx
 810:	3a 0b                	cmp    (%ebx),%cl
 812:	3b 0b                	cmp    (%ebx),%ecx
 814:	39 0b                	cmp    %ecx,(%ebx)
 816:	01 13                	add    %edx,(%ebx)
 818:	00 00                	add    %al,(%eax)
 81a:	0a 24 00             	or     (%eax,%eax,1),%ah
 81d:	0b 0b                	or     (%ebx),%ecx
 81f:	3e 0b 03             	or     %ds:(%ebx),%eax
 822:	08 00                	or     %al,(%eax)
 824:	00 0b                	add    %cl,(%ebx)
 826:	0f 00 0b             	str    (%ebx)
 829:	0b 00                	or     (%eax),%eax
 82b:	00 0c 2e             	add    %cl,(%esi,%ebp,1)
 82e:	01 3f                	add    %edi,(%edi)
 830:	19 03                	sbb    %eax,(%ebx)
 832:	0e                   	push   %cs
 833:	3a 0b                	cmp    (%ebx),%cl
 835:	3b 0b                	cmp    (%ebx),%ecx
 837:	39 0b                	cmp    %ecx,(%ebx)
 839:	11 01                	adc    %eax,(%ecx)
 83b:	12 06                	adc    (%esi),%al
 83d:	40                   	inc    %eax
 83e:	18 7a 19             	sbb    %bh,0x19(%edx)
 841:	01 13                	add    %edx,(%ebx)
 843:	00 00                	add    %al,(%eax)
 845:	00 01                	add    %al,(%ecx)
 847:	05 00 49 13 00       	add    $0x134900,%eax
 84c:	00 02                	add    %al,(%edx)
 84e:	0d 00 03 0e 3a       	or     $0x3a0e0300,%eax
 853:	0b 3b                	or     (%ebx),%edi
 855:	0b 39                	or     (%ecx),%edi
 857:	0b 49 13             	or     0x13(%ecx),%ecx
 85a:	38 0b                	cmp    %cl,(%ebx)
 85c:	00 00                	add    %al,(%eax)
 85e:	03 05 00 03 08 3a    	add    0x3a080300,%eax
 864:	21 01                	and    %eax,(%ecx)
 866:	3b 0b                	cmp    (%ebx),%ecx
 868:	39 0b                	cmp    %ecx,(%ebx)
 86a:	49                   	dec    %ecx
 86b:	13 02                	adc    (%edx),%eax
 86d:	18 00                	sbb    %al,(%eax)
 86f:	00 04 0f             	add    %al,(%edi,%ecx,1)
 872:	00 0b                	add    %cl,(%ebx)
 874:	21 04 49             	and    %eax,(%ecx,%ecx,2)
 877:	13 00                	adc    (%eax),%eax
 879:	00 05 24 00 0b 0b    	add    %al,0xb0b0024
 87f:	3e 0b 03             	or     %ds:(%ebx),%eax
 882:	0e                   	push   %cs
 883:	00 00                	add    %al,(%eax)
 885:	06                   	push   %es
 886:	28 00                	sub    %al,(%eax)
 888:	03 0e                	add    (%esi),%ecx
 88a:	1c 0b                	sbb    $0xb,%al
 88c:	00 00                	add    %al,(%eax)
 88e:	07                   	pop    %es
 88f:	0d 00 03 08 3a       	or     $0x3a080300,%eax
 894:	21 03                	and    %eax,(%ebx)
 896:	3b 0b                	cmp    (%ebx),%ecx
 898:	39 0b                	cmp    %ecx,(%ebx)
 89a:	49                   	dec    %ecx
 89b:	13 38                	adc    (%eax),%edi
 89d:	0b 00                	or     (%eax),%eax
 89f:	00 08                	add    %cl,(%eax)
 8a1:	15 01 27 19 01       	adc    $0x1192701,%eax
 8a6:	13 00                	adc    (%eax),%eax
 8a8:	00 09                	add    %cl,(%ecx)
 8aa:	2e 01 3f             	add    %edi,%cs:(%edi)
 8ad:	19 03                	sbb    %eax,(%ebx)
 8af:	0e                   	push   %cs
 8b0:	3a 21                	cmp    (%ecx),%ah
 8b2:	01 3b                	add    %edi,(%ebx)
 8b4:	0b 39                	or     (%ecx),%edi
 8b6:	21 06                	and    %eax,(%esi)
 8b8:	27                   	daa
 8b9:	19 11                	sbb    %edx,(%ecx)
 8bb:	01 12                	add    %edx,(%edx)
 8bd:	06                   	push   %es
 8be:	40                   	inc    %eax
 8bf:	18 7c 19 01          	sbb    %bh,0x1(%ecx,%ebx,1)
 8c3:	13 00                	adc    (%eax),%eax
 8c5:	00 0a                	add    %cl,(%edx)
 8c7:	16                   	push   %ss
 8c8:	00 03                	add    %al,(%ebx)
 8ca:	0e                   	push   %cs
 8cb:	3a 0b                	cmp    (%ebx),%cl
 8cd:	3b 0b                	cmp    (%ebx),%ecx
 8cf:	39 0b                	cmp    %ecx,(%ebx)
 8d1:	49                   	dec    %ecx
 8d2:	13 00                	adc    (%eax),%eax
 8d4:	00 0b                	add    %cl,(%ebx)
 8d6:	13 01                	adc    (%ecx),%eax
 8d8:	03 0e                	add    (%esi),%ecx
 8da:	0b 0b                	or     (%ebx),%ecx
 8dc:	3a 0b                	cmp    (%ebx),%cl
 8de:	3b 0b                	cmp    (%ebx),%ecx
 8e0:	39 21                	cmp    %esp,(%ecx)
 8e2:	08 01                	or     %al,(%ecx)
 8e4:	13 00                	adc    (%eax),%eax
 8e6:	00 0c 05 00 03 0e 3a 	add    %cl,0x3a0e0300(,%eax,1)
 8ed:	21 01                	and    %eax,(%ecx)
 8ef:	3b 0b                	cmp    (%ebx),%ecx
 8f1:	39 0b                	cmp    %ecx,(%ebx)
 8f3:	49                   	dec    %ecx
 8f4:	13 02                	adc    (%edx),%eax
 8f6:	18 00                	sbb    %al,(%eax)
 8f8:	00 0d 15 01 27 19    	add    %cl,0x19270115
 8fe:	49                   	dec    %ecx
 8ff:	13 01                	adc    (%ecx),%eax
 901:	13 00                	adc    (%eax),%eax
 903:	00 0e                	add    %cl,(%esi)
 905:	34 00                	xor    $0x0,%al
 907:	03 0e                	add    (%esi),%ecx
 909:	3a 21                	cmp    (%ecx),%ah
 90b:	01 3b                	add    %edi,(%ebx)
 90d:	0b 39                	or     (%ecx),%edi
 90f:	0b 49 13             	or     0x13(%ecx),%ecx
 912:	3f                   	aas
 913:	19 02                	sbb    %eax,(%edx)
 915:	18 00                	sbb    %al,(%eax)
 917:	00 0f                	add    %cl,(%edi)
 919:	2e 01 3f             	add    %edi,%cs:(%edi)
 91c:	19 03                	sbb    %eax,(%ebx)
 91e:	0e                   	push   %cs
 91f:	3a 21                	cmp    (%ecx),%ah
 921:	04 3b                	add    $0x3b,%al
 923:	0b 39                	or     (%ecx),%edi
 925:	21 05 27 19 49 13    	and    %eax,0x13491927
 92b:	3c 19                	cmp    $0x19,%al
 92d:	01 13                	add    %edx,(%ebx)
 92f:	00 00                	add    %al,(%eax)
 931:	10 2e                	adc    %ch,(%esi)
 933:	01 3f                	add    %edi,(%edi)
 935:	19 03                	sbb    %eax,(%ebx)
 937:	0e                   	push   %cs
 938:	3a 21                	cmp    (%ecx),%ah
 93a:	01 3b                	add    %edi,(%ebx)
 93c:	0b 39                	or     (%ecx),%edi
 93e:	0b 27                	or     (%edi),%esp
 940:	19 49 13             	sbb    %ecx,0x13(%ecx)
 943:	11 01                	adc    %eax,(%ecx)
 945:	12 06                	adc    (%esi),%al
 947:	40                   	inc    %eax
 948:	18 7c 19 01          	sbb    %bh,0x1(%ecx,%ebx,1)
 94c:	13 00                	adc    (%eax),%eax
 94e:	00 11                	add    %dl,(%ecx)
 950:	11 01                	adc    %eax,(%ecx)
 952:	25 0e 13 0b 03       	and    $0x30b130e,%eax
 957:	1f                   	pop    %ds
 958:	1b 1f                	sbb    (%edi),%ebx
 95a:	11 01                	adc    %eax,(%ecx)
 95c:	12 06                	adc    (%esi),%al
 95e:	10 17                	adc    %dl,(%edi)
 960:	00 00                	add    %al,(%eax)
 962:	12 24 00             	adc    (%eax,%eax,1),%ah
 965:	0b 0b                	or     (%ebx),%ecx
 967:	3e 0b 03             	or     %ds:(%ebx),%eax
 96a:	08 00                	or     %al,(%eax)
 96c:	00 13                	add    %dl,(%ebx)
 96e:	0f 00 0b             	str    (%ebx)
 971:	0b 00                	or     (%eax),%eax
 973:	00 14 04             	add    %dl,(%esp,%eax,1)
 976:	01 3e                	add    %edi,(%esi)
 978:	0b 0b                	or     (%ebx),%ecx
 97a:	0b 49 13             	or     0x13(%ecx),%ecx
 97d:	3a 0b                	cmp    (%ebx),%cl
 97f:	3b 0b                	cmp    (%ebx),%ecx
 981:	39 0b                	cmp    %ecx,(%ebx)
 983:	01 13                	add    %edx,(%ebx)
 985:	00 00                	add    %al,(%eax)
 987:	15 2e 01 3f 19       	adc    $0x193f012e,%eax
 98c:	03 0e                	add    (%esi),%ecx
 98e:	3a 0b                	cmp    (%ebx),%cl
 990:	3b 0b                	cmp    (%ebx),%ecx
 992:	39 0b                	cmp    %ecx,(%ebx)
 994:	27                   	daa
 995:	19 3c 19             	sbb    %edi,(%ecx,%ebx,1)
 998:	01 13                	add    %edx,(%ebx)
 99a:	00 00                	add    %al,(%eax)
 99c:	16                   	push   %ss
 99d:	2e 01 3f             	add    %edi,%cs:(%edi)
 9a0:	19 03                	sbb    %eax,(%ebx)
 9a2:	0e                   	push   %cs
 9a3:	3a 0b                	cmp    (%ebx),%cl
 9a5:	3b 0b                	cmp    (%ebx),%ecx
 9a7:	39 0b                	cmp    %ecx,(%ebx)
 9a9:	11 01                	adc    %eax,(%ecx)
 9ab:	12 06                	adc    (%esi),%al
 9ad:	40                   	inc    %eax
 9ae:	18 7c 19 00          	sbb    %bh,0x0(%ecx,%ebx,1)
 9b2:	00 17                	add    %dl,(%edi)
 9b4:	34 00                	xor    $0x0,%al
 9b6:	03 0e                	add    (%esi),%ecx
 9b8:	3a 0b                	cmp    (%ebx),%cl
 9ba:	3b 0b                	cmp    (%ebx),%ecx
 9bc:	39 0b                	cmp    %ecx,(%ebx)
 9be:	49                   	dec    %ecx
 9bf:	13 02                	adc    (%edx),%eax
 9c1:	18 00                	sbb    %al,(%eax)
 9c3:	00 00                	add    %al,(%eax)
 9c5:	01 05 00 03 08 3a    	add    %eax,0x3a080300
 9cb:	21 01                	and    %eax,(%ecx)
 9cd:	3b 0b                	cmp    (%ebx),%ecx
 9cf:	39 21                	cmp    %esp,(%ecx)
 9d1:	11 49 13             	adc    %ecx,0x13(%ecx)
 9d4:	02 18                	add    (%eax),%bl
 9d6:	00 00                	add    %al,(%eax)
 9d8:	02 2e                	add    (%esi),%ch
 9da:	01 3f                	add    %edi,(%edi)
 9dc:	19 03                	sbb    %eax,(%ebx)
 9de:	0e                   	push   %cs
 9df:	3a 21                	cmp    (%ecx),%ah
 9e1:	01 3b                	add    %edi,(%ebx)
 9e3:	0b 39                	or     (%ecx),%edi
 9e5:	21 05 27 19 49 13    	and    %eax,0x13491927
 9eb:	11 01                	adc    %eax,(%ecx)
 9ed:	12 06                	adc    (%esi),%al
 9ef:	40                   	inc    %eax
 9f0:	18 7a 19             	sbb    %bh,0x19(%edx)
 9f3:	01 13                	add    %edx,(%ebx)
 9f5:	00 00                	add    %al,(%eax)
 9f7:	03 11                	add    (%ecx),%edx
 9f9:	01 25 0e 13 0b 03    	add    %esp,0x30b130e
 9ff:	1f                   	pop    %ds
 a00:	1b 1f                	sbb    (%edi),%ebx
 a02:	11 01                	adc    %eax,(%ecx)
 a04:	12 06                	adc    (%esi),%al
 a06:	10 17                	adc    %dl,(%edi)
 a08:	00 00                	add    %al,(%eax)
 a0a:	04 24                	add    $0x24,%al
 a0c:	00 0b                	add    %cl,(%ebx)
 a0e:	0b 3e                	or     (%esi),%edi
 a10:	0b 03                	or     (%ebx),%eax
 a12:	0e                   	push   %cs
 a13:	00 00                	add    %al,(%eax)
 a15:	05 24 00 0b 0b       	add    $0xb0b0024,%eax
 a1a:	3e 0b 03             	or     %ds:(%ebx),%eax
 a1d:	08 00                	or     %al,(%eax)
 a1f:	00 06                	add    %al,(%esi)
 a21:	2e 01 3f             	add    %edi,%cs:(%edi)
 a24:	19 03                	sbb    %eax,(%ebx)
 a26:	0e                   	push   %cs
 a27:	3a 0b                	cmp    (%ebx),%cl
 a29:	3b 0b                	cmp    (%ebx),%ecx
 a2b:	39 0b                	cmp    %ecx,(%ebx)
 a2d:	27                   	daa
 a2e:	19 49 13             	sbb    %ecx,0x13(%ecx)
 a31:	11 01                	adc    %eax,(%ecx)
 a33:	12 06                	adc    (%esi),%al
 a35:	40                   	inc    %eax
 a36:	18 7a 19             	sbb    %bh,0x19(%edx)
 a39:	00 00                	add    %al,(%eax)
	...

Disassembly of section .debug_line:

00000000 <.debug_line>:
       0:	12 05 00 00 05 00    	adc    0x50000,%al
       6:	04 00                	add    $0x0,%al
       8:	58                   	pop    %eax
       9:	00 00                	add    %al,(%eax)
       b:	00 01                	add    %al,(%ecx)
       d:	01 01                	add    %eax,(%ecx)
       f:	fb                   	sti
      10:	0e                   	push   %cs
      11:	0d 00 01 01 01       	or     $0x1010100,%eax
      16:	01 00                	add    %eax,(%eax)
      18:	00 00                	add    %al,(%eax)
      1a:	01 00                	add    %eax,(%eax)
      1c:	00 01                	add    %al,(%ecx)
      1e:	01 01                	add    %eax,(%ecx)
      20:	1f                   	pop    %ds
      21:	05 11 00 00 00       	add    $0x11,%eax
      26:	3a 00                	cmp    (%eax),%al
      28:	00 00                	add    %al,(%eax)
      2a:	43                   	inc    %ebx
      2b:	00 00                	add    %al,(%eax)
      2d:	00 4d 00             	add    %cl,0x0(%ebp)
      30:	00 00                	add    %al,(%eax)
      32:	5b                   	pop    %ebx
      33:	00 00                	add    %al,(%eax)
      35:	00 02                	add    %al,(%edx)
      37:	01 1f                	add    %ebx,(%edi)
      39:	02 0f                	add    (%edi),%cl
      3b:	08 09                	or     %cl,(%ecx)
      3d:	00 00                	add    %al,(%eax)
      3f:	00 01                	add    %al,(%ecx)
      41:	09 00                	or     %eax,(%eax)
      43:	00 00                	add    %al,(%eax)
      45:	01 6e 00             	add    %ebp,0x0(%esi)
      48:	00 00                	add    %al,(%eax)
      4a:	02 76 00             	add    0x0(%esi),%dh
      4d:	00 00                	add    %al,(%eax)
      4f:	02 71 00             	add    0x0(%ecx),%dh
      52:	00 00                	add    %al,(%eax)
      54:	03 7f 00             	add    0x0(%edi),%edi
      57:	00 00                	add    %al,(%eax)
      59:	02 88 00 00 00 02    	add    0x2000000(%eax),%cl
      5f:	6e                   	outsb  %ds:(%esi),(%dx)
      60:	00 00                	add    %al,(%eax)
      62:	00 04 05 24 00 05 02 	add    %al,0x2050024(,%eax,1)
      69:	4d                   	dec    %ebp
      6a:	04 00                	add    $0x0,%al
      6c:	00 03                	add    %al,(%ebx)
      6e:	0a 01                	or     (%ecx),%al
      70:	05 0f 08 13 05       	add    $0x513080f,%eax
      75:	12 08                	adc    (%eax),%cl
      77:	21 05 0b 91 05 09    	and    %eax,0x905910b
      7d:	91                   	xchg   %eax,%ecx
      7e:	05 01 3d 05 12       	add    $0x12053d01,%eax
      83:	5a                   	pop    %edx
      84:	05 10 f3 05 0e       	add    $0xe05f310,%eax
      89:	00 02                	add    %al,(%edx)
      8b:	04 01                	add    $0x1,%al
      8d:	c8 05 02 83          	enter  $0x205,$0x83
      91:	05 0d 08 75 05       	add    $0x575080d,%eax
      96:	11 82 05 13 67 05    	adc    %eax,0x5671305(%edx)
      9c:	0d 00 02 04 01       	or     $0x1040200,%eax
      a1:	08 3c 05 13 00 02 04 	or     %bh,0x4020013(,%eax,1)
      a8:	01 ac 05 11 00 02 04 	add    %ebp,0x4020011(%ebp,%eax,1)
      af:	02 ba 2f 05 0d 82    	add    -0x7df2fad1(%edx),%bh
      b5:	05 11 ac 05 0c       	add    $0xc05ac11,%eax
      ba:	59                   	pop    %ecx
      bb:	05 01 bb 05 3a       	add    $0x3a05bb01,%eax
      c0:	84 05 06 08 27 05    	test   %al,0x5270806
      c6:	04 75                	add    $0x75,%al
      c8:	05 1a 00 02 04       	add    $0x402001a,%eax
      cd:	01 9e 06 58 05 06    	add    %ebx,0x6055806(%esi)
      d3:	06                   	push   %es
      d4:	5a                   	pop    %edx
      d5:	05 05 58 05 0c       	add    $0xc055805,%eax
      da:	4b                   	dec    %ebx
      db:	05 09 00 02 04       	add    $0x4020009,%eax
      e0:	01 08                	add    %ecx,(%eax)
      e2:	20 05 07 83 85 05    	and    %al,0x5858307
      e8:	0b 3d 05 04 82 05    	or     0x5820405,%edi
      ee:	06                   	push   %es
      ef:	03 13                	add    (%ebx),%edx
      f1:	02 3a                	add    (%edx),%bh
      f3:	01 05 0e 03 6f 58    	add    %eax,0x586f030e
      f9:	05 0b 00 02 04       	add    $0x402000b,%eax
      fe:	01 08                	add    %ecx,(%eax)
     100:	58                   	pop    %eax
     101:	05 06 83 05 0a       	add    $0xa058306,%eax
     106:	5a                   	pop    %edx
     107:	d7                   	xlat   %ds:(%ebx)
     108:	05 18 08 67 05       	add    $0x5670818,%eax
     10d:	0e                   	push   %cs
     10e:	00 02                	add    %al,(%edx)
     110:	04 01                	add    $0x1,%al
     112:	d6                   	(bad)
     113:	05 0b 00 02 04       	add    $0x402000b,%eax
     118:	02 08                	add    (%eax),%cl
     11a:	20 05 06 83 05 0c    	and    %al,0xc058306
     120:	5a                   	pop    %edx
     121:	05 1c d7 05 0e       	add    $0xe05d71c,%eax
     126:	00 02                	add    %al,(%edx)
     128:	04 01                	add    $0x1,%al
     12a:	d6                   	(bad)
     12b:	05 0b 00 02 04       	add    $0x402000b,%eax
     130:	02 08                	add    (%eax),%cl
     132:	20 05 06 83 05 0a    	and    %al,0xa058306
     138:	30 d7                	xor    %dl,%bh
     13a:	05 18 08 67 05       	add    $0x5670818,%eax
     13f:	0e                   	push   %cs
     140:	00 02                	add    %al,(%edx)
     142:	04 01                	add    $0x1,%al
     144:	d6                   	(bad)
     145:	05 0b 00 02 04       	add    $0x402000b,%eax
     14a:	02 08                	add    (%eax),%cl
     14c:	20 05 06 83 05 07    	and    %al,0x7058306
     152:	24 05                	and    $0x5,%al
     154:	08 03                	or     %al,(%ebx)
     156:	64 3c 05             	fs cmp $0x5,%al
     159:	0d 58 05 09 03       	or     $0x3090558,%eax
     15e:	1f                   	pop    %ds
     15f:	82 05 01 3d 05 2e 5a 	addb   $0x5a,0x2e053d01
     166:	05 02 08 14 05       	add    $0x5140802,%eax
     16b:	09 67 05             	or     %esp,0x5(%edi)
     16e:	01 08                	add    %ecx,(%eax)
     170:	67 05 21 5a 05 02    	addr16 add $0x2055a21,%eax
     176:	08 14 05 05 67 05 04 	or     %dl,0x4056705(,%eax,1)
     17d:	c8 05 1c 00          	enter  $0x1c05,$0x0
     181:	02 04 01             	add    (%ecx,%eax,1),%al
     184:	4a                   	dec    %edx
     185:	06                   	push   %es
     186:	58                   	pop    %eax
     187:	05 09 06 2f 05       	add    $0x52f0609,%eax
     18c:	12 3c 05 09 ac 05 01 	adc    0x105ac09(,%eax,1),%bh
     193:	08 3d 05 25 5a 05    	or     %bh,0x55a2505
     199:	04 08                	add    $0x8,%al
     19b:	21 05 1a 00 02 04    	and    %eax,0x402001a
     1a1:	01 66 06             	add    %esp,0x6(%esi)
     1a4:	58                   	pop    %eax
     1a5:	05 02 06 2f 00       	add    $0x2f0602,%eax
     1aa:	02 04 01             	add    (%ecx,%eax,1),%al
     1ad:	06                   	push   %es
     1ae:	d6                   	(bad)
     1af:	05 01 06 08 13       	add    $0x13080601,%eax
     1b4:	05 18 5a 05 13       	add    $0x13055a18,%eax
     1b9:	08 21                	or     %ah,(%ecx)
     1bb:	05 0a ac 05 15       	add    $0x1505ac0a,%eax
     1c0:	08 3d 05 02 ac 05    	or     %bh,0x5ac0205
     1c6:	0a 08                	or     (%eax),%cl
     1c8:	59                   	pop    %ecx
     1c9:	05 01 4b 05 34       	add    $0x34054b01,%eax
     1ce:	5a                   	pop    %edx
     1cf:	05 08 08 30 05       	add    $0x5300808,%eax
     1d4:	02 74 05 11          	add    0x11(%ebp,%eax,1),%dh
     1d8:	2f                   	das
     1d9:	05 05 08 20 05       	add    $0x5200805,%eax
     1de:	24 00                	and    $0x0,%al
     1e0:	02 04 02             	add    (%edx,%eax,1),%al
     1e3:	49                   	dec    %ecx
     1e4:	05 0f 00 02 04       	add    $0x402000f,%eax
     1e9:	01 3c 05 1e 83 05 04 	add    %edi,0x405831e(,%eax,1)
     1f0:	22 05 23 00 02 04    	and    0x4020023,%al
     1f6:	01 66 06             	add    %esp,0x6(%esi)
     1f9:	58                   	pop    %eax
     1fa:	05 0b 06 2f 05       	add    $0x52f060b,%eax
     1ff:	04 08                	add    $0x8,%al
     201:	2f                   	das
     202:	05 03 67 05 0a       	add    $0xa056703,%eax
     207:	08 21                	or     %ah,(%ecx)
     209:	05 0d 76 05 13       	add    $0x1305760d,%eax
     20e:	08 12                	or     %dl,(%edx)
     210:	05 11 00 02 04       	add    $0x4020011,%eax
     215:	01 d6                	add    %edx,%esi
     217:	05 14 2f 05 01       	add    $0x1052f14,%eax
     21c:	08 21                	or     %ah,(%ecx)
     21e:	05 19 76 05 0a       	add    $0xa057619,%eax
     223:	08 21                	or     %ah,(%ecx)
     225:	05 02 74 05 11       	add    $0x11057402,%eax
     22a:	2f                   	das
     22b:	05 05 08 20 05       	add    $0x5200805,%eax
     230:	12 59 05             	adc    0x5(%ecx),%bl
     233:	15 08 20 05 06       	adc    $0x6052008,%eax
     238:	2e 05 16 4b 05 05    	cs add $0x5054b16,%eax
     23e:	08 20                	or     %ah,(%eax)
     240:	05 0f e6 05 13       	add    $0x1305e60f,%eax
     245:	f2 05 04 67 05 28    	repnz add $0x28056704,%eax
     24b:	00 02                	add    %al,(%edx)
     24d:	04 02                	add    $0x2,%al
     24f:	03 7a 2e             	add    0x2e(%edx),%edi
     252:	05 13 00 02 04       	add    $0x4020013,%eax
     257:	01 3c 05 09 03 09 66 	add    %edi,0x66090309(,%eax,1)
     25e:	05 01 59 05 44       	add    $0x44055901,%eax
     263:	5a                   	pop    %edx
     264:	05 04 08 21 05       	add    $0x5210804,%eax
     269:	14 00                	adc    $0x0,%al
     26b:	02 04 02             	add    (%edx,%eax,1),%al
     26e:	66 05 2b 00          	add    $0x2b,%ax
     272:	02 04 03             	add    (%ebx,%eax,1),%al
     275:	66 06                	pushw  %es
     277:	58                   	pop    %eax
     278:	05 06 06 2f 05       	add    $0x52f0606,%eax
     27d:	0a 75 05             	or     0x5(%ebp),%dh
     280:	02 74 05 0c          	add    0xc(%ebp,%eax,1),%dh
     284:	2f                   	das
     285:	05 05 58 05 10       	add    $0x10055805,%eax
     28a:	4b                   	dec    %ebx
     28b:	05 0c 08 ad 05       	add    $0x5ad080c,%eax
     290:	19 00                	sbb    %eax,(%eax)
     292:	02 04 02             	add    (%edx,%eax,1),%al
     295:	63 05 13 00 02 04    	arpl   %eax,0x4020013
     29b:	01 3c 05 09 03 12 82 	add    %edi,-0x7dedfcf7(,%eax,1)
     2a2:	05 01 3d 05 3d       	add    $0x3d053d01,%eax
     2a7:	5a                   	pop    %edx
     2a8:	05 04 08 21 05       	add    $0x5210804,%eax
     2ad:	14 00                	adc    $0x0,%al
     2af:	02 04 02             	add    (%edx,%eax,1),%al
     2b2:	66 05 2b 00          	add    $0x2b,%ax
     2b6:	02 04 03             	add    (%ebx,%eax,1),%al
     2b9:	66 06                	pushw  %es
     2bb:	58                   	pop    %eax
     2bc:	05 06 06 2f 05       	add    $0x52f0606,%eax
     2c1:	0a 75 05             	or     0x5(%ebp),%dh
     2c4:	02 74 05 0c          	add    0xc(%ebp,%eax,1),%dh
     2c8:	2f                   	das
     2c9:	05 05 58 05 04       	add    $0x4055805,%eax
     2ce:	4b                   	dec    %ebx
     2cf:	05 29 3c 05 04       	add    $0x4053c29,%eax
     2d4:	90                   	nop
     2d5:	05 0a 08 83 05       	add    $0x583080a,%eax
     2da:	19 00                	sbb    %eax,(%eax)
     2dc:	02 04 02             	add    (%edx,%eax,1),%al
     2df:	39 05 13 00 02 04    	cmp    %eax,0x4020013
     2e5:	01 3c 05 09 03 09 82 	add    %edi,-0x7df6fcf7(,%eax,1)
     2ec:	05 01 3d 05 17       	add    $0x17053d01,%eax
     2f1:	5a                   	pop    %edx
     2f2:	05 04 08 22 05       	add    $0x5220804,%eax
     2f7:	1c 00                	sbb    $0x0,%al
     2f9:	02 04 01             	add    (%ecx,%eax,1),%al
     2fc:	66 06                	pushw  %es
     2fe:	58                   	pop    %eax
     2ff:	05 0b 06 2f 05       	add    $0x52f060b,%eax
     304:	04 58                	add    $0x58,%al
     306:	05 0a 4b 05 09       	add    $0x9054b0a,%eax
     30b:	08 83 05 03 08 83    	or     %al,-0x7cf7fcfb(%ebx)
     311:	05 05 08 67 05       	add    $0x5670805,%eax
     316:	1a 00                	sbb    (%eax),%al
     318:	02 04 01             	add    (%ecx,%eax,1),%al
     31b:	82 06 58             	addb   $0x58,(%esi)
     31e:	05 0a 06 2f 05       	add    $0x52f060a,%eax
     323:	01 76 05             	add    %esi,0x5(%esi)
     326:	19 5a 05             	sbb    %ebx,0x5(%edx)
     329:	04 08                	add    $0x8,%al
     32b:	13 05 1c 00 02 04    	adc    0x402001c,%eax
     331:	01 66 06             	add    %esp,0x6(%esi)
     334:	58                   	pop    %eax
     335:	05 0b 06 2f 05       	add    $0x52f060b,%eax
     33a:	04 58                	add    $0x58,%al
     33c:	05 0a 4b 05 09       	add    $0x9054b0a,%eax
     341:	08 91 05 01 59 05    	or     %dl,0x5590105(%ecx)
     347:	31 5a 05             	xor    %ebx,0x5(%edx)
     34a:	04 08                	add    $0x8,%al
     34c:	13 05 1c 00 02 04    	adc    0x402001c,%eax
     352:	01 66 06             	add    %esp,0x6(%esi)
     355:	58                   	pop    %eax
     356:	05 0b 06 2f 05       	add    $0x52f060b,%eax
     35b:	04 58                	add    $0x58,%al
     35d:	05 03 4b 05 0a       	add    $0xa054b03,%eax
     362:	08 91 05 09 76 05    	or     %dl,0x5760905(%ecx)
     368:	01 59 05             	add    %ebx,0x5(%ecx)
     36b:	44                   	inc    %esp
     36c:	5a                   	pop    %edx
     36d:	05 06 08 2f 05       	add    $0x52f0806,%eax
     372:	0a 75 05             	or     0x5(%ebp),%dh
     375:	02 74 05 11          	add    0x11(%ebp,%eax,1),%dh
     379:	2f                   	das
     37a:	05 05 08 20 05       	add    $0x5200805,%eax
     37f:	11 59 05             	adc    %ebx,0x5(%ecx)
     382:	04 67                	add    $0x67,%al
     384:	05 21 00 02 04       	add    $0x4020021,%eax
     389:	02 2b                	add    (%ebx),%ch
     38b:	05 13 00 02 04       	add    $0x4020013,%eax
     390:	01 3c 05 04 ce 05 03 	add    %edi,0x305ce04(,%eax,1)
     397:	67 05 1f d7 05 0e    	addr16 add $0xe05d71f,%eax
     39d:	00 02                	add    %al,(%edx)
     39f:	04 01                	add    $0x1,%al
     3a1:	f2 05 1f 00 02 04    	repnz add $0x402001f,%eax
     3a7:	01 08                	add    %ecx,(%eax)
     3a9:	12 05 1d 00 02 04    	adc    0x402001d,%al
     3af:	02 ba 05 15 2f 05    	add    0x52f1505(%edx),%bh
     3b5:	09 08                	or     %ecx,(%eax)
     3b7:	3e 05 01 08 13 05    	ds add $0x5130801,%eax
     3bd:	1f                   	pop    %ds
     3be:	76 05                	jbe    3c5 <main+0x118>
     3c0:	0f 08                	invd
     3c2:	13 05 0a 3c 05 0c    	adc    0xc053c0a,%eax
     3c8:	3d 05 01 08 4b       	cmp    $0x4b080105,%eax
     3cd:	05 1e 5a 05 0c       	add    $0xc055a1e,%eax
     3d2:	08 13                	or     %dl,(%ebx)
     3d4:	05 01 08 2f 05       	add    $0x52f0801,%eax
     3d9:	13 5a 05             	adc    0x5(%edx),%ebx
     3dc:	14 08                	adc    $0x8,%al
     3de:	13 05 0c ac 05 01    	adc    0x105ac0c,%eax
     3e4:	08 2f                	or     %ch,(%edi)
     3e6:	05 3e 5a 05 02       	add    $0x2055a3e,%eax
     3eb:	08 4c 05 04          	or     %cl,0x4(%ebp,%eax,1)
     3ef:	67 05 11 00 02 04    	addr16 add $0x4020011,%eax
     3f5:	02 66 05             	add    0x5(%esi),%ah
     3f8:	23 00                	and    (%eax),%eax
     3fa:	02 04 04             	add    (%esp,%eax,1),%al
     3fd:	66 05 38 00          	add    $0x38,%ax
     401:	02 04 05 66 06 58 05 	add    0x5580666(,%eax,1),%al
     408:	06                   	push   %es
     409:	06                   	push   %es
     40a:	5a                   	pop    %edx
     40b:	05 09 76 05 07       	add    $0x7057609,%eax
     410:	75 05                	jne    417 <main+0x16a>
     412:	06                   	push   %es
     413:	59                   	pop    %ecx
     414:	05 05 58 05 18       	add    $0x18055805,%eax
     419:	4b                   	dec    %ebx
     41a:	05 0b 90 05 07       	add    $0x705900b,%eax
     41f:	ac                   	lods   %ds:(%esi),%al
     420:	05 11 58 05 0f       	add    $0xf055811,%eax
     425:	2e 05 05 2f 05 0a    	cs add $0xa052f05,%eax
     42b:	85 05 0b 3d 05 04    	test   %eax,0x4053d0b
     431:	82 05 08 08 e6 05 0e 	addb   $0xe,0x5e60808
     438:	d7                   	xlat   %ds:(%ebx)
     439:	05 0a 00 02 04       	add    $0x402000a,%eax
     43e:	01 d6                	add    %edx,%esi
     440:	05 0e 3d 05 06       	add    $0x6053d0e,%eax
     445:	74 05                	je     44c <main+0x19f>
     447:	15 2f 05 0e 90       	adc    $0x900e052f,%eax
     44c:	05 0a ac 05 15       	add    $0x1505ac0a,%eax
     451:	58                   	pop    %eax
     452:	05 12 2e 05 08       	add    $0x8052e12,%eax
     457:	2f                   	das
     458:	05 29 00 02 04       	add    $0x4020029,%eax
     45d:	04 3a                	add    $0x3a,%al
     45f:	05 1b 00 02 04       	add    $0x402001b,%eax
     464:	01 3c 00             	add    %edi,(%eax,%eax,1)
     467:	02 04 03             	add    (%ebx,%eax,1),%al
     46a:	06                   	push   %es
     46b:	ba 05 06 06 86       	mov    $0x86060605,%edx
     470:	05 0a 5b d7 05       	add    $0x5d75b0a,%eax
     475:	0e                   	push   %cs
     476:	08 91 05 0a 00 02    	or     %dl,0x2000a05(%ecx)
     47c:	04 01                	add    $0x1,%al
     47e:	d6                   	(bad)
     47f:	05 0e 3d 05 06       	add    $0x6053d0e,%eax
     484:	74 05                	je     48b <init_stdio+0x1>
     486:	15 2f 05 0e 90       	adc    $0x900e052f,%eax
     48b:	05 0a ac 05 15       	add    $0x1505ac0a,%eax
     490:	58                   	pop    %eax
     491:	05 12 2e 05 08       	add    $0x8052e12,%eax
     496:	2f                   	das
     497:	05 29 00 02 04       	add    $0x4020029,%eax
     49c:	04 3a                	add    $0x3a,%al
     49e:	05 1b 00 02 04       	add    $0x402001b,%eax
     4a3:	01 3c 00             	add    %edi,(%eax,%eax,1)
     4a6:	02 04 03             	add    (%ebx,%eax,1),%al
     4a9:	06                   	push   %es
     4aa:	ba 05 06 06 86       	mov    $0x86060605,%edx
     4af:	05 0a 31 d7 05       	add    $0x5d7310a,%eax
     4b4:	0e                   	push   %cs
     4b5:	08 91 05 0a 00 02    	or     %dl,0x2000a05(%ecx)
     4bb:	04 01                	add    $0x1,%al
     4bd:	d6                   	(bad)
     4be:	05 0e 3d 05 06       	add    $0x6053d0e,%eax
     4c3:	74 05                	je     4ca <init_stdio+0x40>
     4c5:	15 2f 05 0e 90       	adc    $0x900e052f,%eax
     4ca:	05 0a ac 05 15       	add    $0x1505ac0a,%eax
     4cf:	58                   	pop    %eax
     4d0:	05 12 2e 05 08       	add    $0x8052e12,%eax
     4d5:	2f                   	das
     4d6:	05 29 00 02 04       	add    $0x4020029,%eax
     4db:	04 3a                	add    $0x3a,%al
     4dd:	05 1b 00 02 04       	add    $0x402001b,%eax
     4e2:	01 3c 00             	add    %edi,(%eax,%eax,1)
     4e5:	02 04 03             	add    (%ebx,%eax,1),%al
     4e8:	06                   	push   %es
     4e9:	82 05 06 06 86 03 6c 	addb   $0x6c,0x3860606
     4f0:	2e 03 0a             	add    %cs:(%edx),%ecx
     4f3:	3c 03                	cmp    $0x3,%al
     4f5:	0a 3c 05 0a 23 05 08 	or     0x805230a(,%eax,1),%bh
     4fc:	03 5a 3c             	add    0x3c(%edx),%ebx
     4ff:	05 18 58 00 02       	add    $0x2005818,%eax
     504:	04 01                	add    $0x1,%al
     506:	06                   	push   %es
     507:	4a                   	dec    %edx
     508:	05 09 06 03 29       	add    $0x29030609,%eax
     50d:	ba 05 01 3d 02       	mov    $0x23d0105,%edx
     512:	05 00 01 01 d2       	add    $0xd2010100,%eax
     517:	03 00                	add    (%eax),%eax
     519:	00 05 00 04 00 4f    	add    %al,0x4f000400
     51f:	00 00                	add    %al,(%eax)
     521:	00 01                	add    %al,(%ecx)
     523:	01 01                	add    %eax,(%ecx)
     525:	fb                   	sti
     526:	0e                   	push   %cs
     527:	0d 00 01 01 01       	or     $0x1010100,%eax
     52c:	01 00                	add    %eax,(%eax)
     52e:	00 00                	add    %al,(%eax)
     530:	01 00                	add    %eax,(%eax)
     532:	00 01                	add    %al,(%ecx)
     534:	01 01                	add    %eax,(%ecx)
     536:	1f                   	pop    %ds
     537:	04 11                	add    $0x11,%al
     539:	00 00                	add    %al,(%eax)
     53b:	00 3a                	add    %bh,(%edx)
     53d:	00 00                	add    %al,(%eax)
     53f:	00 43 00             	add    %al,0x0(%ebx)
     542:	00 00                	add    %al,(%eax)
     544:	4d                   	dec    %ebp
     545:	00 00                	add    %al,(%eax)
     547:	00 02                	add    %al,(%edx)
     549:	01 1f                	add    %ebx,(%edi)
     54b:	02 0f                	add    (%edi),%cl
     54d:	07                   	pop    %es
     54e:	9a 00 00 00 01 9a 00 	lcall  $0x9a,$0x1000000
     555:	00 00                	add    %al,(%eax)
     557:	01 a3 00 00 00 02    	add    %esp,0x2000000(%ebx)
     55d:	7f 00                	jg     55f <vfprintf+0x31>
     55f:	00 00                	add    %al,(%eax)
     561:	02 6e 00             	add    0x0(%esi),%ch
     564:	00 00                	add    %al,(%eax)
     566:	02 ab 00 00 00 03    	add    0x3000000(%ebx),%ch
     56c:	88 00                	mov    %al,(%eax)
     56e:	00 00                	add    %al,(%eax)
     570:	02 05 13 00 05 02    	add    0x2050013,%al
     576:	e3 0e                	jecxz  586 <vfprintf+0x58>
     578:	00 00                	add    %al,(%eax)
     57a:	03 14 01             	add    (%ecx,%eax,1),%edx
     57d:	05 18 08 21 05       	add    $0x5210818,%eax
     582:	35 c9 05 1a 90       	xor    $0x901a05c9,%eax
     587:	05 18 00 02 04       	add    $0x4020018,%eax
     58c:	01 ba 05 20 83 05    	add    %edi,0x5832005(%edx)
     592:	18 82 05 17 91 05    	sbb    %al,0x5911705(%edx)
     598:	0f 90 05 01 83 05 14 	seto   0x14058301
     59f:	68 05 33 08 13       	push   $0x13083305
     5a4:	05 05 90 05 01       	add    $0x1059005,%eax
     5a9:	08 83 05 1a 68 05    	or     %al,0x5681a05(%ebx)
     5af:	0b 08                	or     (%eax),%ecx
     5b1:	13 05 09 ad 05 0f    	adc    0xf05ad09,%eax
     5b7:	82 05 0c f3 05 1b 82 	addb   $0x82,0x1b05f30c
     5be:	05 30 82 05 28       	add    $0x28058230,%eax
     5c3:	90                   	nop
     5c4:	05 07 2e 4b 05       	add    $0x54b2e07,%eax
     5c9:	0c 08                	or     $0x8,%al
     5cb:	3d 32 05 01 3d       	cmp    $0x3d010532,%eax
     5d0:	05 28 5a 05 09       	add    $0x9055a28,%eax
     5d5:	08 13                	or     %dl,(%ebx)
     5d7:	05 01 08 4b 05       	add    $0x54b0801,%eax
     5dc:	15 5a 05 03 c9       	adc    $0xc903055a,%eax
     5e1:	05 01 21 05 26       	add    $0x26052101,%eax
     5e6:	31 05 14 08 21 05    	xor    %eax,0x5210814
     5ec:	02 08                	add    (%eax),%cl
     5ee:	13 05 03 08 3d 05    	adc    0x53d0803,%eax
     5f4:	09 d7                	or     %edx,%edi
     5f6:	05 01 3d 05 1a       	add    $0x1a053d01,%eax
     5fb:	5b                   	pop    %ebx
     5fc:	05 07 f3 05 06       	add    $0x605f307,%eax
     601:	76 05                	jbe    608 <vfprintf+0xda>
     603:	05 58 05 08 4b       	add    $0x4b080558,%eax
     608:	05 09 3d 05 08       	add    $0x8053d09,%eax
     60d:	4c                   	dec    %esp
     60e:	05 0f 2f 05 17       	add    $0x17052f0f,%eax
     613:	d6                   	(bad)
     614:	05 1c 82 05 09       	add    $0x905821c,%eax
     619:	3c 05                	cmp    $0x5,%al
     61b:	08 59 05             	or     %bl,0x5(%ecx)
     61e:	09 3a                	or     %edi,(%edx)
     620:	05 22 58 05 16       	add    $0x16055822,%eax
     625:	00 02                	add    %al,(%edx)
     627:	04 01                	add    $0x1,%al
     629:	4a                   	dec    %edx
     62a:	05 13 00 02 04       	add    $0x4020013,%eax
     62f:	01 58 05             	add    %ebx,0x5(%eax)
     632:	25 00 02 04 02       	and    $0x2040200,%eax
     637:	4a                   	dec    %edx
     638:	05 22 00 02 04       	add    $0x4020022,%eax
     63d:	02 58 05             	add    0x5(%eax),%bl
     640:	05 4f 05 12 00       	add    $0x12054f,%eax
     645:	02 04 01             	add    (%ecx,%eax,1),%al
     648:	66 06                	pushw  %es
     64a:	58                   	pop    %eax
     64b:	05 0a 06 2f 05       	add    $0x52f060a,%eax
     650:	01 3d 05 1c 30 05    	add    %edi,0x5301c05
     656:	09 f3                	or     %esi,%ebx
     658:	05 08 59 05 09       	add    $0x9055908,%eax
     65d:	4b                   	dec    %ebx
     65e:	05 08 59 4b 05       	add    $0x54b5908,%eax
     663:	19 00                	sbb    %eax,(%eax)
     665:	02 04 02             	add    (%edx,%eax,1),%al
     668:	2e 05 09 00 02 04    	cs add $0x4020009,%eax
     66e:	01 3c 05 0e 00 02 04 	add    %edi,0x402000e(,%eax,1)
     675:	01 58 05             	add    %ebx,0x5(%eax)
     678:	06                   	push   %es
     679:	5a                   	pop    %edx
     67a:	05 05 58 05 08       	add    $0x8055805,%eax
     67f:	59                   	pop    %ecx
     680:	05 09 3d 05 08       	add    $0x8053d09,%eax
     685:	4c                   	dec    %esp
     686:	05 07 2f 05 0d       	add    $0xd052f07,%eax
     68b:	67 05 14 d7 05 19    	addr16 add $0x1905d714,%eax
     691:	82 05 1f 3c 05 0b 90 	addb   $0x90,0xb053c1f
     698:	05 0a a1 05 09       	add    $0x905a10a,%eax
     69d:	58                   	pop    %eax
     69e:	05 11 59 05 13       	add    $0x13055911,%eax
     6a3:	93                   	xchg   %eax,%ebx
     6a4:	05 1d ac 05 22       	add    $0x2205ac1d,%eax
     6a9:	82 05 1a 3c 05 0d 82 	addb   $0x82,0xd053c1a
     6b0:	05 08 3f 05 09       	add    $0x9053f08,%eax
     6b5:	03 73 3c             	add    0x3c(%ebx),%esi
     6b8:	05 22 58 05 16       	add    $0x16055822,%eax
     6bd:	00 02                	add    %al,(%edx)
     6bf:	04 01                	add    $0x1,%al
     6c1:	4a                   	dec    %edx
     6c2:	05 13 00 02 04       	add    $0x4020013,%eax
     6c7:	01 58 05             	add    %ebx,0x5(%eax)
     6ca:	25 00 02 04 02       	and    $0x2040200,%eax
     6cf:	58                   	pop    %eax
     6d0:	05 22 00 02 04       	add    $0x4020022,%eax
     6d5:	02 58 05             	add    0x5(%eax),%bl
     6d8:	05 03 10 90 05       	add    $0x5901003,%eax
     6dd:	12 00                	adc    (%eax),%al
     6df:	02 04 01             	add    (%ecx,%eax,1),%al
     6e2:	66 06                	pushw  %es
     6e4:	58                   	pop    %eax
     6e5:	05 0a 06 2f 05       	add    $0x52f060a,%eax
     6ea:	01 3d 05 28 30 05    	add    %edi,0x5302805
     6f0:	09 f3                	or     %esi,%ebx
     6f2:	05 08 bb 05 10       	add    $0x1005bb08,%eax
     6f7:	68 05 0c 67 05       	push   $0x5670c05
     6fc:	10 4a 3d             	adc    %cl,0x3d(%edx)
     6ff:	05 19 85 05 09       	add    $0x9058519,%eax
     704:	66 3d 05 0b          	cmp    $0xb05,%ax
     708:	67 30 05             	xor    %al,(%di)
     70b:	0c 9f                	or     $0x9f,%al
     70d:	39 05 08 6b 05 0e    	cmp    %eax,0xe056b08
     713:	82 05 08 3e 05 0f a0 	addb   $0xa0,0xf053e08
     71a:	05 23 30 05 1e       	add    $0x1e053023,%eax
     71f:	c8 05 18 3c          	enter  $0x1805,$0x3c
     723:	05 11 3c 05 10       	add    $0x10053c11,%eax
     728:	3c 05                	cmp    $0x5,%al
     72a:	1e                   	push   %ds
     72b:	58                   	pop    %eax
     72c:	05 18 2e 05 0f       	add    $0xf052e18,%eax
     731:	2f                   	das
     732:	05 10 08 9b 05       	add    $0x59b0810,%eax
     737:	11 03                	adc    %eax,(%ebx)
     739:	0a 82 05 10 91 05    	or     0x5911005(%edx),%al
     73f:	28 67 05             	sub    %ah,0x5(%edi)
     742:	22 66 05             	and    0x5(%esi),%ah
     745:	1c 3c                	sbb    $0x3c,%al
     747:	05 15 3c 05 14       	add    $0x14053c15,%eax
     74c:	3c 05                	cmp    $0x5,%al
     74e:	22 58 05             	and    0x5(%eax),%bl
     751:	1c 2e                	sbb    $0x2e,%al
     753:	05 27 4c 05 22       	add    $0x22054c27,%eax
     758:	66 05 1c 3c          	add    $0x3c1c,%ax
     75c:	05 15 3c 05 14       	add    $0x14053c15,%eax
     761:	3c 05                	cmp    $0x5,%al
     763:	22 58 05             	and    0x5(%eax),%bl
     766:	1c 2e                	sbb    $0x2e,%al
     768:	05 0f 2f 05 10       	add    $0x10052f0f,%eax
     76d:	03 79 4a             	add    0x4a(%ecx),%edi
     770:	05 08 03 0b 66       	add    $0x660b0308,%eax
     775:	05 17 00 02 04       	add    $0x4020017,%eax
     77a:	01 66 05             	add    %esp,0x5(%esi)
     77d:	0c 68                	or     $0x68,%al
     77f:	05 01 3d 05 14       	add    $0x14053d01,%eax
     784:	30 05 08 d9 05 06    	xor    %al,0x605d908
     78a:	3c 2f                	cmp    $0x2f,%al
     78c:	05 02 59 2f 05       	add    $0x52f5902,%eax
     791:	01 21                	add    %esp,(%ecx)
     793:	05 1e 5a 05 06       	add    $0x6055a1e,%eax
     798:	d9 3d 05 02 59 05    	fnstcw 0x5590205
     79e:	01 2f                	add    %ebp,(%edi)
     7a0:	05 0b 68 05 06       	add    $0x605680b,%eax
     7a5:	ca 05 02             	lret   $0x205
     7a8:	59                   	pop    %ecx
     7a9:	05 01 30 03 10       	add    $0x10033001,%eax
     7ae:	2e 05 17 08 3d 05    	cs add $0x53d0817,%eax
     7b4:	0f 40 05 09 7c 05 07 	cmovo  0x7057c09,%eax
     7bb:	58                   	pop    %eax
     7bc:	05 05 2e 05 0d       	add    $0xd052e05,%eax
     7c1:	00 02                	add    %al,(%edx)
     7c3:	04 01                	add    $0x1,%al
     7c5:	3d 05 05 59 05       	cmp    $0x5590505,%eax
     7ca:	07                   	pop    %es
     7cb:	59                   	pop    %ecx
     7cc:	05 09 75 05 07       	add    $0x7057509,%eax
     7d1:	58                   	pop    %eax
     7d2:	05 05 2e 05 0c       	add    $0xc052e05,%eax
     7d7:	59                   	pop    %ecx
     7d8:	05 09 59 05 07       	add    $0x7055909,%eax
     7dd:	58                   	pop    %eax
     7de:	05 05 2e 3d 05       	add    $0x53d2e05,%eax
     7e3:	11 00                	adc    %eax,(%eax)
     7e5:	02 04 02             	add    (%edx,%eax,1),%al
     7e8:	66 05 20 00          	add    $0x20,%ax
     7ec:	02 04 03             	add    (%ebx,%eax,1),%al
     7ef:	66 05 13 59          	add    $0x5913,%ax
     7f3:	05 0f 2e 05 20       	add    $0x20052e0f,%eax
     7f8:	00 02                	add    %al,(%edx)
     7fa:	04 01                	add    $0x1,%al
     7fc:	4a                   	dec    %edx
     7fd:	05 1d 00 02 04       	add    $0x402001d,%eax
     802:	01 2e                	add    %ebp,(%esi)
     804:	05 08 4b 05 05       	add    $0x5054b08,%eax
     809:	58                   	pop    %eax
     80a:	3d 05 08 3d 05       	cmp    $0x53d0805,%eax
     80f:	05 76 05 17 67       	add    $0x67170576,%eax
     814:	00 02                	add    %al,(%edx)
     816:	04 01                	add    $0x1,%al
     818:	06                   	push   %es
     819:	58                   	pop    %eax
     81a:	00 02                	add    %al,(%edx)
     81c:	04 02                	add    $0x2,%al
     81e:	74 05                	je     825 <fopen+0x1b>
     820:	08 00                	or     %al,(%eax)
     822:	02 04 04             	add    (%esp,%eax,1),%al
     825:	06                   	push   %es
     826:	58                   	pop    %eax
     827:	05 2a 03 13 3c       	add    $0x3c13032a,%eax
     82c:	00 02                	add    %al,(%edx)
     82e:	04 01                	add    $0x1,%al
     830:	06                   	push   %es
     831:	66 00 02             	data16 add %al,(%edx)
     834:	04 02                	add    $0x2,%al
     836:	74 05                	je     83d <fopen+0x33>
     838:	14 06                	adc    $0x6,%al
     83a:	59                   	pop    %ecx
     83b:	05 12 3c 05 09       	add    $0x9053c12,%eax
     840:	e4 05                	in     $0x5,%al
     842:	0c 3d                	or     $0x3d,%al
     844:	05 09 3c 05 0b       	add    $0xb053c09,%eax
     849:	c9                   	leave
     84a:	05 14 74 05 07       	add    $0x7057414,%eax
     84f:	75 05                	jne    856 <fopen+0x4c>
     851:	06                   	push   %es
     852:	00 02                	add    %al,(%edx)
     854:	04 01                	add    $0x1,%al
     856:	ba 4b 05 0c 59       	mov    $0x590c054b,%edx
     85b:	05 0b 00 02 04       	add    $0x402000b,%eax
     860:	01 ba 05 09 4b 05    	add    %edi,0x54b0905(%edx)
     866:	1f                   	pop    %ds
     867:	00 02                	add    %al,(%edx)
     869:	04 01                	add    $0x1,%al
     86b:	ba 00 02 04 02       	mov    $0x2040200,%edx
     870:	06                   	push   %es
     871:	ac                   	lods   %ds:(%esi),%al
     872:	05 06 00 02 04       	add    $0x4020006,%eax
     877:	04 06                	add    $0x6,%al
     879:	58                   	pop    %eax
     87a:	31 5a 05             	xor    %ebx,0x5(%edx)
     87d:	0f 00 02             	sldt   (%edx)
     880:	04 01                	add    $0x1,%al
     882:	66 05 1f 00          	add    $0x1f,%ax
     886:	02 04 02             	add    (%edx,%eax,1),%al
     889:	9e                   	sahf
     88a:	05 31 00 02 04       	add    $0x4020031,%eax
     88f:	03 4a 05             	add    0x5(%edx),%ecx
     892:	08 75 92             	or     %dh,-0x6e(%ebp)
     895:	75 91                	jne    828 <fopen+0x1e>
     897:	05 20 03 72 74       	add    $0x74720320,%eax
     89c:	05 1e 58 05 1c       	add    $0x1c05581e,%eax
     8a1:	2e 05 06 3d 05 04    	cs add $0x4053d06,%eax
     8a7:	5d                   	pop    %ebp
     8a8:	3e 05 05 03 09 20    	ds add $0x20090305,%eax
     8ae:	05 18 67 00 02       	add    $0x2006718,%eax
     8b3:	04 01                	add    $0x1,%al
     8b5:	06                   	push   %es
     8b6:	66 00 02             	data16 add %al,(%edx)
     8b9:	04 02                	add    $0x2,%al
     8bb:	74 05                	je     8c2 <fclose+0x1>
     8bd:	07                   	pop    %es
     8be:	00 02                	add    %al,(%edx)
     8c0:	04 04                	add    $0x4,%al
     8c2:	06                   	push   %es
     8c3:	58                   	pop    %eax
     8c4:	05 0c 59 05 07       	add    $0x705590c,%eax
     8c9:	67 05 05 3d 05 0b    	addr16 add $0xb053d05,%eax
     8cf:	67 00 02             	add    %al,(%bp,%si)
     8d2:	04 01                	add    $0x1,%al
     8d4:	06                   	push   %es
     8d5:	66 00 02             	data16 add %al,(%edx)
     8d8:	04 02                	add    $0x2,%al
     8da:	58                   	pop    %eax
     8db:	00 02                	add    %al,(%edx)
     8dd:	04 04                	add    $0x4,%al
     8df:	3c 05                	cmp    $0x5,%al
     8e1:	09 06                	or     %eax,(%esi)
     8e3:	59                   	pop    %ecx
     8e4:	05 01 3d 02 08       	add    $0x8023d01,%eax
     8e9:	00 01                	add    %al,(%ecx)
     8eb:	01 8c 06 00 00 05 00 	add    %ecx,0x50000(%esi,%eax,1)
     8f2:	04 00                	add    $0x0,%al
     8f4:	41                   	inc    %ecx
     8f5:	00 00                	add    %al,(%eax)
     8f7:	00 01                	add    %al,(%ecx)
     8f9:	01 01                	add    %eax,(%ecx)
     8fb:	fb                   	sti
     8fc:	0e                   	push   %cs
     8fd:	0d 00 01 01 01       	or     $0x1010100,%eax
     902:	01 00                	add    %eax,(%eax)
     904:	00 00                	add    %al,(%eax)
     906:	01 00                	add    %eax,(%eax)
     908:	00 01                	add    %al,(%ecx)
     90a:	01 01                	add    %eax,(%ecx)
     90c:	1f                   	pop    %ds
     90d:	03 11                	add    (%ecx),%edx
     90f:	00 00                	add    %al,(%eax)
     911:	00 3a                	add    %bh,(%edx)
     913:	00 00                	add    %al,(%eax)
     915:	00 43 00             	add    %al,0x0(%ebx)
     918:	00 00                	add    %al,(%eax)
     91a:	02 01                	add    (%ecx),%al
     91c:	1f                   	pop    %ds
     91d:	02 0f                	add    (%edi),%cl
     91f:	05 bd 00 00 00       	add    $0xbd,%eax
     924:	01 bd 00 00 00 01    	add    %edi,0x1000000(%ebp)
     92a:	7f 00                	jg     92c <fclose+0x6b>
     92c:	00 00                	add    %al,(%eax)
     92e:	02 c6                	add    %dh,%al
     930:	00 00                	add    %al,(%eax)
     932:	00 02                	add    %al,(%edx)
     934:	88 00                	mov    %al,(%eax)
     936:	00 00                	add    %al,(%eax)
     938:	02 05 2d 00 05 02    	add    0x205002d,%al
     93e:	f6 14 00             	notb   (%eax,%eax,1)
     941:	00 16                	add    %dl,(%esi)
     943:	05 16 f3 05 17       	add    $0x1705f316,%eax
     948:	67 05 02 68 05 06    	addr16 add $0x6056802,%eax
     94e:	2f                   	das
     94f:	05 05 58 05 19       	add    $0x19055805,%eax
     954:	00 02                	add    %al,(%edx)
     956:	04 01                	add    $0x1,%al
     958:	58                   	pop    %eax
     959:	06                   	push   %es
     95a:	3c 05                	cmp    $0x5,%al
     95c:	0f 06                	clts
     95e:	2d 05 15 3c 05       	sub    $0x53c1505,%eax
     963:	0a 00                	or     (%eax),%al
     965:	02 04 01             	add    (%ecx,%eax,1),%al
     968:	3c 05                	cmp    $0x5,%al
     96a:	08 69 05             	or     %ch,0x5(%ecx)
     96d:	01 59 05             	add    %ebx,0x5(%ecx)
     970:	35 30 05 17 f3       	xor    $0xf3170530,%eax
     975:	67 05 02 68 05 06    	addr16 add $0x6056802,%eax
     97b:	2f                   	das
     97c:	05 0e 58 05 05       	add    $0x505580e,%eax
     981:	58                   	pop    %eax
     982:	05 0b 4b 05 12       	add    $0x12054b0b,%eax
     987:	58                   	pop    %eax
     988:	05 1c 58 00 02       	add    $0x200581c,%eax
     98d:	04 01                	add    $0x1,%al
     98f:	06                   	push   %es
     990:	4a                   	dec    %edx
     991:	58                   	pop    %eax
     992:	00 02                	add    %al,(%edx)
     994:	04 02                	add    $0x2,%al
     996:	2e 58                	cs pop %eax
     998:	05 0f 06 2c 05       	add    $0x52c060f,%eax
     99d:	16                   	push   %ss
     99e:	3c 05                	cmp    $0x5,%al
     9a0:	1d 3c 05 0a 00       	sbb    $0xa053c,%eax
     9a5:	02 04 01             	add    (%ecx,%eax,1),%al
     9a8:	3c 05                	cmp    $0x5,%al
     9aa:	09 6b 05             	or     %ebp,0x5(%ebx)
     9ad:	01 59 05             	add    %ebx,0x5(%ecx)
     9b0:	31 30                	xor    %esi,(%eax)
     9b2:	05 08 f3 05 0e       	add    $0xe05f308,%eax
     9b7:	67 05 02 68 05 0a    	addr16 add $0xa056802,%eax
     9bd:	2f                   	das
     9be:	05 08 58 05 0f       	add    $0xf055808,%eax
     9c3:	00 02                	add    %al,(%edx)
     9c5:	04 02                	add    $0x2,%al
     9c7:	57                   	push   %edi
     9c8:	05 16 00 02 04       	add    $0x4020016,%eax
     9cd:	02 3c 05 1d 00 02 04 	add    0x402001d(,%eax,1),%bh
     9d4:	02 3c 05 0a 00 02 04 	add    0x402000a(,%eax,1),%bh
     9db:	01 3c 05 09 69 05 01 	add    %edi,0x1056909(,%eax,1)
     9e2:	3d 05 32 30 05       	cmp    $0x5303205,%eax
     9e7:	08 f3                	or     %dh,%bl
     9e9:	05 0e 67 05 04       	add    $0x405670e,%eax
     9ee:	68 05 1c 00 02       	push   $0x2001c05
     9f3:	04 01                	add    $0x1,%al
     9f5:	82 05 0f 00 02 04 01 	addb   $0x1,0x402000f
     9fc:	82 05 0b 59 05 15 66 	addb   $0x66,0x1505590b
     a03:	05 03 66 05 0b       	add    $0xb056603,%eax
     a08:	2f                   	das
     a09:	05 0d 66 05 0b       	add    $0xb05660d,%eax
     a0e:	58                   	pop    %eax
     a0f:	05 21 00 02 04       	add    $0x4020021,%eax
     a14:	03 57 05             	add    0x5(%edi),%edx
     a17:	1c 00                	sbb    $0x0,%al
     a19:	02 04 01             	add    (%ecx,%eax,1),%al
     a1c:	3c 05                	cmp    $0x5,%al
     a1e:	04 65                	add    $0x65,%al
     a20:	05 11 35 05 08       	add    $0x8053511,%eax
     a25:	90                   	nop
     a26:	05 0d 90 05 0b       	add    $0xb05900d,%eax
     a2b:	2e 05 10 00 02 04    	cs add $0x4020010,%eax
     a31:	02 2d 05 0b 00 02    	add    0x2000b05,%ch
     a37:	04 01                	add    $0x1,%al
     a39:	3c 05                	cmp    $0x5,%al
     a3b:	09 6a 05             	or     %ebp,0x5(%edx)
     a3e:	01 3d 05 27 30 05    	add    %edi,0x5302705
     a44:	16                   	push   %ss
     a45:	f3 05 11 67 05 02    	repz add $0x2056711,%eax
     a4b:	68 05 07 2f 05       	push   $0x52f0705
     a50:	10 00                	adc    %al,(%eax)
     a52:	02 04 02             	add    (%edx,%eax,1),%al
     a55:	81 05 16 00 02 04 02 	addl   $0xb053c02,0x4020016
     a5c:	3c 05 0b 
     a5f:	00 02                	add    %al,(%edx)
     a61:	04 01                	add    $0x1,%al
     a63:	3c 05                	cmp    $0x5,%al
     a65:	09 69 05             	or     %ebp,0x5(%ecx)
     a68:	01 3d 05 27 30 05    	add    %edi,0x5302705
     a6e:	09 f5                	or     %esi,%ebp
     a70:	05 02 66 05 1b       	add    $0x1b056602,%eax
     a75:	00 02                	add    %al,(%edx)
     a77:	04 03                	add    $0x3,%al
     a79:	2e 05 0f 00 02 04    	cs add $0x402000f,%eax
     a7f:	01 3c 05 12 00 02 04 	add    %edi,0x4020012(,%eax,1)
     a86:	01 58 05             	add    %ebx,0x5(%eax)
     a89:	02 4c 05 1d          	add    0x1d(%ebp,%eax,1),%cl
     a8d:	00 02                	add    %al,(%edx)
     a8f:	04 02                	add    $0x2,%al
     a91:	2e 05 22 00 02 04    	cs add $0x4020022,%eax
     a97:	02 3c 05 0f 00 02 04 	add    0x402000f(,%eax,1),%bh
     a9e:	01 3c 05 0d 00 02 04 	add    %edi,0x402000d(,%eax,1)
     aa5:	01 58 05             	add    %ebx,0x5(%eax)
     aa8:	0a 00                	or     (%eax),%al
     aaa:	02 04 01             	add    (%ecx,%eax,1),%al
     aad:	58                   	pop    %eax
     aae:	05 14 00 02 04       	add    $0x4020014,%eax
     ab3:	01 58 05             	add    %ebx,0x5(%eax)
     ab6:	09 4c 05 01          	or     %ecx,0x1(%ebp,%eax,1)
     aba:	3d 05 2b 30 05       	cmp    $0x5302b05,%eax
     abf:	02 c9                	add    %cl,%cl
     ac1:	05 07 2f 05 06       	add    $0x6052f07,%eax
     ac6:	58                   	pop    %eax
     ac7:	05 0b 4b 05 15       	add    $0x15054b0b,%eax
     acc:	72 05                	jb     ad3 <ftell+0x4>
     ace:	1b 3c 05 09 00 02 04 	sbb    0x4020009(,%eax,1),%edi
     ad5:	01 3c 05 10 00 02 04 	add    %edi,0x4020010(,%eax,1)
     adc:	01 58 05             	add    %ebx,0x5(%eax)
     adf:	0d 00 02 04 01       	or     $0x1040200,%eax
     ae4:	58                   	pop    %eax
     ae5:	05 0a 4d 05 21       	add    $0x21054d0a,%eax
     aea:	58                   	pop    %eax
     aeb:	05 08 59 00 02       	add    $0x2005908,%eax
     af0:	04 01                	add    $0x1,%al
     af2:	06                   	push   %es
     af3:	4a                   	dec    %edx
     af4:	58                   	pop    %eax
     af5:	00 02                	add    %al,(%edx)
     af7:	04 02                	add    $0x2,%al
     af9:	2e 05 01 06 59 05    	cs add $0x5590601,%eax
     aff:	2c 30                	sub    $0x30,%al
     b01:	05 09 08 13 05       	add    $0x5130809,%eax
     b06:	01 08                	add    %ecx,(%eax)
     b08:	2f                   	das
     b09:	05 27 5a 05 08       	add    $0x8055a27,%eax
     b0e:	f3 05 09 68 05 02    	repz add $0x2056809,%eax
     b14:	66 05 1a 00          	add    $0x1a,%ax
     b18:	02 04 02             	add    (%edx,%eax,1),%al
     b1b:	20 05 12 00 02 04    	and    %al,0x4020012
     b21:	02 90 05 17 00 02    	add    0x2001705(%eax),%dl
     b27:	04 02                	add    $0x2,%al
     b29:	90                   	nop
     b2a:	05 15 00 02 04       	add    $0x4020015,%eax
     b2f:	02 2e                	add    (%esi),%ch
     b31:	05 10 00 02 04       	add    $0x4020010,%eax
     b36:	02 2e                	add    (%esi),%ch
     b38:	05 1e 00 02 04       	add    $0x402001e,%eax
     b3d:	02 2e                	add    (%esi),%ch
     b3f:	05 09 4d 05 01       	add    $0x1054d09,%eax
     b44:	3d 31 05 09 08       	cmp    $0x8090531,%eax
     b49:	15 05 1f 30 05       	adc    $0x5301f05,%eax
     b4e:	1c 90                	sbb    $0x90,%al
     b50:	05 0a 2e 05 1f       	add    $0x1f052e0a,%eax
     b55:	2f                   	das
     b56:	05 1c 90 05 0a       	add    $0xa05901c,%eax
     b5b:	2e 2f                	cs das
     b5d:	05 0c 4b 05 0a       	add    $0xa054b0c,%eax
     b62:	9f                   	lahf
     b63:	05 09 4b 05 0b       	add    $0xb054b09,%eax
     b68:	03 79 74             	add    0x74(%ecx),%edi
     b6b:	05 0e 58 05 0a       	add    $0xa05580e,%eax
     b70:	03 09                	add    (%ecx),%ecx
     b72:	4a                   	dec    %edx
     b73:	05 01 59 05 20       	add    $0x20055901,%eax
     b78:	5a                   	pop    %edx
     b79:	05 0a f3 05 09       	add    $0x905f30a,%eax
     b7e:	75 05                	jne    b85 <freopen+0x19>
     b80:	0b 2f                	or     (%edi),%ebp
     b82:	05 08 3d 05 0a       	add    $0xa053d08,%eax
     b87:	3a 05 0f 58 05 0a    	cmp    0xa05580f,%al
     b8d:	4e                   	dec    %esi
     b8e:	05 01 3d 05 3d       	add    $0x3d053d01,%eax
     b93:	30 05 06 08 23 05    	xor    %al,0x5230806
     b99:	07                   	pop    %es
     b9a:	67 84 05             	test   %al,(%di)
     b9d:	06                   	push   %es
     b9e:	58                   	pop    %eax
     b9f:	05 11 4c 05 0e       	add    $0xe054c11,%eax
     ba4:	83 05 08 78 05 05 00 	addl   $0x0,0x5057808
     bab:	02 04 01             	add    (%ecx,%eax,1),%al
     bae:	08 12                	or     %dl,(%edx)
     bb0:	05 07 3d 05 06       	add    $0x6053d07,%eax
     bb5:	58                   	pop    %eax
     bb6:	05 11 4c 05 0e       	add    $0xe054c11,%eax
     bbb:	83 05 0d 78 05 07 00 	addl   $0x0,0x705780d
     bc2:	02 04 01             	add    (%ecx,%eax,1),%al
     bc5:	08 12                	or     %dl,(%edx)
     bc7:	83 05 06 58 05 11 4c 	addl   $0x4c,0x11055806
     bce:	05 0e 83 05 08       	add    $0x805830e,%eax
     bd3:	5c                   	pop    %esp
     bd4:	05 13 67 05 0d       	add    $0xd056713,%eax
     bd9:	66 05 0a 59          	add    $0x590a,%ax
     bdd:	05 01 3d 05 34       	add    $0x34053d01,%eax
     be2:	5d                   	pop    %ebp
     be3:	05 0d 08 4b 05       	add    $0x54b080d,%eax
     be8:	06                   	push   %es
     be9:	58                   	pop    %eax
     bea:	05 0c 4b 05 0e       	add    $0xe054b0c,%eax
     bef:	9f                   	lahf
     bf0:	05 06 66 05 13       	add    $0x13056606,%eax
     bf5:	4c                   	dec    %esp
     bf6:	05 07 67 05 22       	add    $0x22056707,%eax
     bfb:	00 02                	add    %al,(%edx)
     bfd:	04 02                	add    $0x2,%al
     bff:	2e 05 0e 00 02 04    	cs add $0x402000e,%eax
     c05:	01 3c 05 16 00 02 04 	add    %edi,0x4020016(,%eax,1)
     c0c:	01 58 05             	add    %ebx,0x5(%eax)
     c0f:	13 00                	adc    (%eax),%eax
     c11:	02 04 01             	add    (%ecx,%eax,1),%al
     c14:	58                   	pop    %eax
     c15:	05 12 4b 05 16       	add    $0x16054b12,%eax
     c1a:	b1 05                	mov    $0x5,%cl
     c1c:	0d 08 83 05 03       	or     $0x3058308,%eax
     c21:	66 05 0d f3          	add    $0xf30d,%ax
     c25:	05 03 66 05 0d       	add    $0xd056603,%eax
     c2a:	f3 05 03 82 05 12    	repz add $0x12058203,%eax
     c30:	f4                   	hlt
     c31:	05 09 6b 05 07       	add    $0x7056b09,%eax
     c36:	90                   	nop
     c37:	05 06 58 05 0d       	add    $0xd055806,%eax
     c3c:	58                   	pop    %eax
     c3d:	05 0a 00 02 04       	add    $0x402000a,%eax
     c42:	01 3d 05 05 92 05    	add    %edi,0x5920505
     c48:	0b 67 05             	or     0x5(%edi),%esp
     c4b:	09 82 05 06 74 05    	or     %eax,0x5740605(%edx)
     c51:	18 00                	sbb    %al,(%eax)
     c53:	02 04 01             	add    (%ecx,%eax,1),%al
     c56:	4a                   	dec    %edx
     c57:	06                   	push   %es
     c58:	58                   	pop    %eax
     c59:	05 0b 06 59 05       	add    $0x559060b,%eax
     c5e:	09 90 05 06 74 05    	or     %edx,0x5740605(%eax)
     c64:	18 00                	sbb    %al,(%eax)
     c66:	02 04 01             	add    (%ecx,%eax,1),%al
     c69:	4a                   	dec    %edx
     c6a:	06                   	push   %es
     c6b:	58                   	pop    %eax
     c6c:	05 0b 06 59 05       	add    $0x559060b,%eax
     c71:	09 ac 05 06 74 05 18 	or     %ebp,0x18057406(%ebp,%eax,1)
     c78:	00 02                	add    %al,(%edx)
     c7a:	04 01                	add    $0x1,%al
     c7c:	4a                   	dec    %edx
     c7d:	06                   	push   %es
     c7e:	58                   	pop    %eax
     c7f:	05 0b 06 59 05       	add    $0x559060b,%eax
     c84:	09 ac 05 06 74 05 18 	or     %ebp,0x18057406(%ebp,%eax,1)
     c8b:	00 02                	add    %al,(%edx)
     c8d:	04 01                	add    $0x1,%al
     c8f:	4a                   	dec    %edx
     c90:	06                   	push   %es
     c91:	58                   	pop    %eax
     c92:	05 19 06 5a 05       	add    $0x55a0619,%eax
     c97:	05 66 05 09 40       	add    $0x40090566,%eax
     c9c:	05 0f 4b 05 0d       	add    $0xd054b0f,%eax
     ca1:	82 05 0a 74 05 0f 67 	addb   $0x67,0xf05740a
     ca8:	05 0d 90 05 0a       	add    $0xa05900d,%eax
     cad:	74 05                	je     cb4 <putchar+0x2d>
     caf:	0f 67 05 0d ac 05 0a 	packuswb 0xa05ac0d,%mm0
     cb6:	74 05                	je     cbd <snprintf+0x2>
     cb8:	0f 67 05 0d ac 05 0a 	packuswb 0xa05ac0d,%mm0
     cbf:	74 05                	je     cc6 <snprintf+0xb>
     cc1:	10 00                	adc    %al,(%eax)
     cc3:	02 04 01             	add    (%ecx,%eax,1),%al
     cc6:	67 05 15 00 02 04    	addr16 add $0x4020015,%eax
     ccc:	01 66 05             	add    %esp,0x5(%esi)
     ccf:	1a 00                	sbb    (%eax),%al
     cd1:	02 04 01             	add    (%ecx,%eax,1),%al
     cd4:	3c 05                	cmp    $0x5,%al
     cd6:	20 00                	and    %al,(%eax)
     cd8:	02 04 01             	add    (%ecx,%eax,1),%al
     cdb:	3c 05                	cmp    $0x5,%al
     cdd:	14 4c                	adc    $0x4c,%al
     cdf:	05 0a 66 05 0e       	add    $0xe05660a,%eax
     ce4:	3d 05 26 66 00       	cmp    $0x662605,%eax
     ce9:	02 04 01             	add    (%ecx,%eax,1),%al
     cec:	06                   	push   %es
     ced:	4a                   	dec    %edx
     cee:	82 05 2e 00 02 04 02 	addb   $0x2,0x402002e
     cf5:	06                   	push   %es
     cf6:	2e 05 26 00 02 04    	cs add $0x4020026,%eax
     cfc:	02 82 05 01 3d 5c    	add    0x5c3d0105(%edx),%al
     d02:	05 12 08 21 05       	add    $0x5210812,%eax
     d07:	06                   	push   %es
     d08:	08 3d 05 0e 67 05    	or     %bh,0x5670e05
     d0e:	0a 08                	or     (%eax),%cl
     d10:	2f                   	das
     d11:	05 01 3d 05 35       	add    $0x35053d01,%eax
     d16:	5a                   	pop    %edx
     d17:	05 0e 08 4b 05       	add    $0x54b080e,%eax
     d1c:	06                   	push   %es
     d1d:	58                   	pop    %eax
     d1e:	05 0e 4b 05 1b       	add    $0x1b054b0e,%eax
     d23:	00 02                	add    %al,(%edx)
     d25:	04 01                	add    $0x1,%al
     d27:	65 05 25 4c 05 0c    	gs add $0xc054c25,%eax
     d2d:	58                   	pop    %eax
     d2e:	05 2a 00 02 04       	add    $0x402002a,%eax
     d33:	01 08                	add    %ecx,(%eax)
     d35:	20 06                	and    %al,(%esi)
     d37:	3c 05                	cmp    $0x5,%al
     d39:	16                   	push   %ss
     d3a:	06                   	push   %es
     d3b:	5c                   	pop    %esp
     d3c:	05 0d 08 83 05       	add    $0x583080d,%eax
     d41:	03 66 05             	add    0x5(%esi),%esp
     d44:	0d f3 05 03 66       	or     $0x660305f3,%eax
     d49:	05 0d f3 05 03       	add    $0x305f30d,%eax
     d4e:	82 05 12 f4 05 0f 69 	addb   $0x69,0xf05f412
     d55:	05 0b 90 05 06       	add    $0x605900b,%eax
     d5a:	90                   	nop
     d5b:	05 13 58 05 0a       	add    $0xa055813,%eax
     d60:	00 02                	add    %al,(%edx)
     d62:	04 01                	add    $0x1,%al
     d64:	3d 05 05 68 05       	cmp    $0x5680505,%eax
     d69:	0a 67 05             	or     0x5(%edi),%ah
     d6c:	08 82 05 06 74 05    	or     %al,0x5740605(%edx)
     d72:	17                   	pop    %ss
     d73:	00 02                	add    %al,(%edx)
     d75:	04 01                	add    $0x1,%al
     d77:	4a                   	dec    %edx
     d78:	06                   	push   %es
     d79:	58                   	pop    %eax
     d7a:	05 0a 06 59 05       	add    $0x559060a,%eax
     d7f:	08 90 05 06 74 05    	or     %dl,0x5740605(%eax)
     d85:	17                   	pop    %ss
     d86:	00 02                	add    %al,(%edx)
     d88:	04 01                	add    $0x1,%al
     d8a:	4a                   	dec    %edx
     d8b:	06                   	push   %es
     d8c:	58                   	pop    %eax
     d8d:	05 0a 06 59 05       	add    $0x559060a,%eax
     d92:	08 ac 05 06 74 05 17 	or     %ch,0x17057406(%ebp,%eax,1)
     d99:	00 02                	add    %al,(%edx)
     d9b:	04 01                	add    $0x1,%al
     d9d:	4a                   	dec    %edx
     d9e:	06                   	push   %es
     d9f:	58                   	pop    %eax
     da0:	05 0a 06 59 05       	add    $0x559060a,%eax
     da5:	08 ac 05 06 74 05 17 	or     %ch,0x17057406(%ebp,%eax,1)
     dac:	00 02                	add    %al,(%edx)
     dae:	04 01                	add    $0x1,%al
     db0:	4a                   	dec    %edx
     db1:	06                   	push   %es
     db2:	58                   	pop    %eax
     db3:	05 19 06 5a 05       	add    $0x55a0619,%eax
     db8:	05 66 05 09 41       	add    $0x41090566,%eax
     dbd:	05 0f 4b 05 0d       	add    $0xd054b0f,%eax
     dc2:	82 05 0a 74 05 0f 67 	addb   $0x67,0xf05740a
     dc9:	05 0d 90 05 0a       	add    $0xa05900d,%eax
     dce:	74 05                	je     dd5 <snprintf+0x11a>
     dd0:	0f 67 05 0d ac 05 0a 	packuswb 0xa05ac0d,%mm0
     dd7:	74 05                	je     dde <snprintf+0x123>
     dd9:	0f 67 05 0d ac 05 0a 	packuswb 0xa05ac0d,%mm0
     de0:	74 05                	je     de7 <snprintf+0x12c>
     de2:	0e                   	push   %cs
     de3:	00 02                	add    %al,(%edx)
     de5:	04 01                	add    $0x1,%al
     de7:	68 05 13 00 02       	push   $0x2001305
     dec:	04 01                	add    $0x1,%al
     dee:	66 05 18 00          	add    $0x18,%ax
     df2:	02 04 01             	add    (%ecx,%eax,1),%al
     df5:	3c 05                	cmp    $0x5,%al
     df7:	1e                   	push   %ds
     df8:	00 02                	add    %al,(%edx)
     dfa:	04 01                	add    $0x1,%al
     dfc:	3c 05                	cmp    $0x5,%al
     dfe:	14 4c                	adc    $0x4c,%al
     e00:	05 0a 66 05 0e       	add    $0xe05660a,%eax
     e05:	3d 05 2a 66 05       	cmp    $0x5662a05,%eax
     e0a:	21 00                	and    %eax,(%eax)
     e0c:	02 04 01             	add    (%ecx,%eax,1),%al
     e0f:	4a                   	dec    %edx
     e10:	05 2a 00 02 04       	add    $0x402002a,%eax
     e15:	01 66 06             	add    %esp,0x6(%esi)
     e18:	20 05 32 00 02 04    	and    %al,0x4020032
     e1e:	02 06                	add    (%esi),%al
     e20:	2e 05 2a 00 02 04    	cs add $0x402002a,%eax
     e26:	02 66 05             	add    0x5(%esi),%ah
     e29:	01 3d 5b 05 05 f8    	add    %edi,0xf805055b
     e2f:	05 11 6a 05 03       	add    $0x3056a11,%eax
     e34:	66 05 09 31          	add    $0x3109,%ax
     e38:	05 08 58 05 0e       	add    $0xe055808,%eax
     e3d:	59                   	pop    %ecx
     e3e:	83 05 0d 58 05 0e 4b 	addl   $0x4b,0xe05580d
     e45:	05 08 9a 05 09       	add    $0x9059a08,%eax
     e4a:	3b 05 26 3c 05 41    	cmp    0x41053c26,%eax
     e50:	3c 05                	cmp    $0x5,%al
     e52:	10 03                	adc    %al,(%ebx)
     e54:	0a 4a 05             	or     0x5(%edx),%cl
     e57:	0e                   	push   %cs
     e58:	03 0b                	add    (%ebx),%ecx
     e5a:	66 05 1b 75          	add    $0x751b,%ax
     e5e:	05 22 c8 05 2e       	add    $0x2e05c822,%eax
     e63:	90                   	nop
     e64:	05 0e 58 05 10       	add    $0x1005580e,%eax
     e69:	69 05 0c 4a 05 18 9f 	imul   $0x660c059f,0x18054a0c,%eax
     e70:	05 0c 66 
     e73:	05 1f 03 2c 3c       	add    $0x3c2c031f,%eax
     e78:	05 10 90 05 17       	add    $0x17059010,%eax
     e7d:	5b                   	pop    %ebx
     e7e:	05 06 85 05 05       	add    $0x5058506,%eax
     e83:	41                   	inc    %ecx
     e84:	05 0a 03 78 3c       	add    $0x3c78030a,%eax
     e89:	05 38 03 0b 58       	add    $0x580b0338,%eax
     e8e:	05 11 82 05 1d       	add    $0x1d058211,%eax
     e93:	82 05 2b 58 05 05 2f 	addb   $0x2f,0x505582b
     e9a:	05 19 38 03 09       	add    $0x9033819,%eax
     e9f:	58                   	pop    %eax
     ea0:	05 08 92 05 07       	add    $0x7059208,%eax
     ea5:	58                   	pop    %eax
     ea6:	05 0d 59 59 05       	add    $0x559590d,%eax
     eab:	0c 58                	or     $0x58,%al
     ead:	05 0d 4b 05 07       	add    $0x7054b0d,%eax
     eb2:	75 05                	jne    eb9 <snprintf+0x1fe>
     eb4:	08 3c 05 07 58 05 0d 	or     %bh,0xd055807(,%eax,1)
     ebb:	59                   	pop    %ecx
     ebc:	59                   	pop    %ecx
     ebd:	05 0c 58 05 0d       	add    $0xd05580c,%eax
     ec2:	4b                   	dec    %ebx
     ec3:	05 07 75 05 08       	add    $0x8057507,%eax
     ec8:	3c 05                	cmp    $0x5,%al
     eca:	07                   	pop    %es
     ecb:	58                   	pop    %eax
     ecc:	05 0d 59 59 05       	add    $0x559590d,%eax
     ed1:	0c 58                	or     $0x58,%al
     ed3:	05 0d 4b 05 07       	add    $0x7054b0d,%eax
     ed8:	75 05                	jne    edf <__x86.get_pc_thunk.bx>
     eda:	08 3c 05 07 58 05 0d 	or     %bh,0xd055807(,%eax,1)
     ee1:	59                   	pop    %ecx
     ee2:	59                   	pop    %ecx
     ee3:	05 0c 58 05 0d       	add    $0xd05580c,%eax
     ee8:	83 05 01 03 18 58 31 	addl   $0x31,0x58180301
     eef:	05 09 f3 05 05       	add    $0x505f309,%eax
     ef4:	76 05                	jbe    efb <init_stdlib+0x18>
     ef6:	11 30                	adc    %esi,(%eax)
     ef8:	05 0c 9e 05 15       	add    $0x15059e0c,%eax
     efd:	4b                   	dec    %ebx
     efe:	05 0c 82 05 15       	add    $0x1505820c,%eax
     f03:	82 05 10 2e 05 15 2b 	addb   $0x2b,0x15052e10
     f0a:	05 0e 00 02 04       	add    $0x402000e,%eax
     f0f:	01 3c 05 16 a0 05 0b 	add    %edi,0xb05a016(,%eax,1)
     f16:	24 05                	and    $0x5,%al
     f18:	1a 00                	sbb    (%eax),%al
     f1a:	02 04 02             	add    (%edx,%eax,1),%al
     f1d:	2e 05 18 00 02 04    	cs add $0x4020018,%eax
     f23:	02 ac 05 1e 00 02 04 	add    0x402001e(%ebp,%eax,1),%ch
     f2a:	02 58 05             	add    0x5(%eax),%bl
     f2d:	0e                   	push   %cs
     f2e:	00 02                	add    %al,(%edx)
     f30:	04 01                	add    $0x1,%al
     f32:	3c 05                	cmp    $0x5,%al
     f34:	0c 84                	or     $0x84,%al
     f36:	05 01 3d 05 1c       	add    $0x1c053d01,%eax
     f3b:	30 05 05 08 21 05    	xor    %al,0x5210805
     f41:	18 00                	sbb    %al,(%eax)
     f43:	02 04 01             	add    (%ecx,%eax,1),%al
     f46:	66 06                	pushw  %es
     f48:	58                   	pop    %eax
     f49:	05 0d 06 2f 05       	add    $0x52f060d,%eax
     f4e:	07                   	pop    %es
     f4f:	00 02                	add    %al,(%edx)
     f51:	04 01                	add    $0x1,%al
     f53:	d6                   	(bad)
     f54:	05 19 3d 05 0f       	add    $0xf053d19,%eax
     f59:	4a                   	dec    %edx
     f5a:	05 05 e5 05 1a       	add    $0x1a05e505,%eax
     f5f:	00 02                	add    %al,(%edx)
     f61:	04 01                	add    $0x1,%al
     f63:	66 06                	pushw  %es
     f65:	58                   	pop    %eax
     f66:	05 06 06 2f 05       	add    $0x52f0606,%eax
     f6b:	0c 82                	or     $0x82,%al
     f6d:	05 03 3d 05 0a       	add    $0xa053d03,%eax
     f72:	08 13                	or     %dl,(%ebx)
     f74:	05 01 3d 02 05       	add    $0x5023d01,%eax
     f79:	00 01                	add    %al,(%ecx)
     f7b:	01 e8                	add    %ebp,%eax
     f7d:	00 00                	add    %al,(%eax)
     f7f:	00 05 00 04 00 37    	add    %al,0x37000400
     f85:	00 00                	add    %al,(%eax)
     f87:	00 01                	add    %al,(%ecx)
     f89:	01 01                	add    %eax,(%ecx)
     f8b:	fb                   	sti
     f8c:	0e                   	push   %cs
     f8d:	0d 00 01 01 01       	or     $0x1010100,%eax
     f92:	01 00                	add    %eax,(%eax)
     f94:	00 00                	add    %al,(%eax)
     f96:	01 00                	add    %eax,(%eax)
     f98:	00 01                	add    %al,(%ecx)
     f9a:	01 01                	add    %eax,(%ecx)
     f9c:	1f                   	pop    %ds
     f9d:	03 11                	add    (%ecx),%edx
     f9f:	00 00                	add    %al,(%eax)
     fa1:	00 e1                	add    %ah,%cl
     fa3:	00 00                	add    %al,(%eax)
     fa5:	00 43 00             	add    %al,0x0(%ebx)
     fa8:	00 00                	add    %al,(%eax)
     faa:	02 01                	add    (%ecx),%al
     fac:	1f                   	pop    %ds
     fad:	02 0f                	add    (%edi),%cl
     faf:	03 dc                	add    %esp,%ebx
     fb1:	00 00                	add    %al,(%eax)
     fb3:	00 01                	add    %al,(%ecx)
     fb5:	dc 00                	faddl  (%eax)
     fb7:	00 00                	add    %al,(%eax)
     fb9:	01 c6                	add    %eax,%esi
     fbb:	00 00                	add    %al,(%eax)
     fbd:	00 02                	add    %al,(%edx)
     fbf:	05 20 00 05 02       	add    $0x2050020,%eax
     fc4:	29 1f                	sub    %ebx,(%edi)
     fc6:	00 00                	add    %al,(%eax)
     fc8:	15 05 08 db 05       	adc    $0x5db0805,%eax
     fcd:	06                   	push   %es
     fce:	3c 05                	cmp    $0x5,%al
     fd0:	08 2f                	or     %ch,(%edi)
     fd2:	05 06 3c 2f 05       	add    $0x52f3c06,%eax
     fd7:	02 59 05             	add    0x5(%ecx),%bl
     fda:	01 30                	add    %esi,(%eax)
     fdc:	05 13 5a 05 08       	add    $0x8055a13,%eax
     fe1:	db 05 06 3c 2f 05    	fildl  0x52f3c06
     fe7:	02 59 05             	add    0x5(%ecx),%bl
     fea:	01 2f                	add    %ebp,(%edi)
     fec:	05 28 68 05 08       	add    $0x8056828,%eax
     ff1:	db 05 06 3c 05 08    	fildl  0x8053c06
     ff7:	2f                   	das
     ff8:	05 06 3c 05 08       	add    $0x8053c06,%eax
     ffd:	2f                   	das
     ffe:	05 06 3c 2f 05       	add    $0x52f3c06,%eax
    1003:	02 59 05             	add    0x5(%ecx),%bl
    1006:	01 30                	add    %esi,(%eax)
    1008:	05 29 5a 05 08       	add    $0x8055a29,%eax
    100d:	db 05 06 3c 05 08    	fildl  0x8053c06
    1013:	2f                   	das
    1014:	05 06 3c 05 08       	add    $0x8053c06,%eax
    1019:	2f                   	das
    101a:	05 06 3c 2f 05       	add    $0x52f3c06,%eax
    101f:	02 59 05             	add    0x5(%ecx),%bl
    1022:	01 30                	add    %esi,(%eax)
    1024:	05 27 5a 05 08       	add    $0x8055a27,%eax
    1029:	db 05 06 3c 05 08    	fildl  0x8053c06
    102f:	2f                   	das
    1030:	05 06 3c 05 08       	add    $0x8053c06,%eax
    1035:	2f                   	das
    1036:	05 06 3c 2f 05       	add    $0x52f3c06,%eax
    103b:	02 59 05             	add    0x5(%ecx),%bl
    103e:	01 30                	add    %esi,(%eax)
    1040:	05 16 5a 05 08       	add    $0x8055a16,%eax
    1045:	db 05 06 3c 2f 05    	fildl  0x52f3c06
    104b:	02 59 05             	add    0x5(%ecx),%bl
    104e:	01 30                	add    %esi,(%eax)
    1050:	05 2b 5a 05 06       	add    $0x6055a2b,%eax
    1055:	db 05 08 3d 05 06    	fildl  0x6053d08
    105b:	3c 2f                	cmp    $0x2f,%al
    105d:	05 02 59 05 01       	add    $0x1055902,%eax
    1062:	30 02                	xor    %al,(%edx)
    1064:	05 00 01 01 8d       	add    $0x8d010100,%eax
    1069:	00 00                	add    %al,(%eax)
    106b:	00 05 00 04 00 40    	add    %al,0x40000400
    1071:	00 00                	add    %al,(%eax)
    1073:	00 01                	add    %al,(%ecx)
    1075:	01 01                	add    %eax,(%ecx)
    1077:	fb                   	sti
    1078:	0e                   	push   %cs
    1079:	0d 00 01 01 01       	or     $0x1010100,%eax
    107e:	01 00                	add    %eax,(%eax)
    1080:	00 00                	add    %al,(%eax)
    1082:	01 00                	add    %eax,(%eax)
    1084:	00 01                	add    %al,(%ecx)
    1086:	01 01                	add    %eax,(%ecx)
    1088:	1f                   	pop    %ds
    1089:	04 11                	add    $0x11,%al
    108b:	00 00                	add    %al,(%eax)
    108d:	00 e1                	add    %ah,%cl
    108f:	00 00                	add    %al,(%eax)
    1091:	00 4d 00             	add    %cl,0x0(%ebp)
    1094:	00 00                	add    %al,(%eax)
    1096:	43                   	inc    %ebx
    1097:	00 00                	add    %al,(%eax)
    1099:	00 02                	add    %al,(%edx)
    109b:	01 1f                	add    %ebx,(%edi)
    109d:	02 0f                	add    (%edi),%cl
    109f:	04 fb                	add    $0xfb,%al
    10a1:	00 00                	add    %al,(%eax)
    10a3:	00 01                	add    %al,(%ecx)
    10a5:	fb                   	sti
    10a6:	00 00                	add    %al,(%eax)
    10a8:	00 01                	add    %al,(%ecx)
    10aa:	ab                   	stos   %eax,%es:(%edi)
    10ab:	00 00                	add    %al,(%eax)
    10ad:	00 02                	add    %al,(%edx)
    10af:	c6 00 00             	movb   $0x0,(%eax)
    10b2:	00 03                	add    %al,(%ebx)
    10b4:	05 2e 00 05 02       	add    $0x205002e,%eax
    10b9:	29 20                	sub    %esp,(%eax)
    10bb:	00 00                	add    %al,(%eax)
    10bd:	15 05 06 d9 3d       	adc    $0x3dd90605,%eax
    10c2:	05 02 59 05 01       	add    $0x1055902,%eax
    10c7:	30 05 3a 59 05 06    	xor    %al,0x605593a
    10cd:	da 05 08 3d 05 06    	fiaddl 0x6053d08
    10d3:	3c 2f                	cmp    $0x2f,%al
    10d5:	05 02 59 05 01       	add    $0x1055902,%eax
    10da:	2f                   	das
    10db:	05 3d 68 05 06       	add    $0x605683d,%eax
    10e0:	08 18                	or     %bl,(%eax)
    10e2:	3d 05 02 59 05       	cmp    $0x5590205,%eax
    10e7:	07                   	pop    %es
    10e8:	2f                   	das
    10e9:	3d 05 0c 3d 67       	cmp    $0x673d0c05,%eax
    10ee:	05 09 67 05 01       	add    $0x1056709,%eax
    10f3:	d7                   	xlat   %ds:(%ebx)
    10f4:	02 0a                	add    (%edx),%cl
    10f6:	00 01                	add    %al,(%ecx)
    10f8:	01 af 00 00 00 05    	add    %ebp,0x5000000(%edi)
    10fe:	00 04 00             	add    %al,(%eax,%eax,1)
    1101:	40                   	inc    %eax
    1102:	00 00                	add    %al,(%eax)
    1104:	00 01                	add    %al,(%ecx)
    1106:	01 01                	add    %eax,(%ecx)
    1108:	fb                   	sti
    1109:	0e                   	push   %cs
    110a:	0d 00 01 01 01       	or     $0x1010100,%eax
    110f:	01 00                	add    %eax,(%eax)
    1111:	00 00                	add    %al,(%eax)
    1113:	01 00                	add    %eax,(%eax)
    1115:	00 01                	add    %al,(%ecx)
    1117:	01 01                	add    %eax,(%ecx)
    1119:	1f                   	pop    %ds
    111a:	04 11                	add    $0x11,%al
    111c:	00 00                	add    %al,(%eax)
    111e:	00 e1                	add    %ah,%cl
    1120:	00 00                	add    %al,(%eax)
    1122:	00 4d 00             	add    %cl,0x0(%ebp)
    1125:	00 00                	add    %al,(%eax)
    1127:	43                   	inc    %ebx
    1128:	00 00                	add    %al,(%eax)
    112a:	00 02                	add    %al,(%edx)
    112c:	01 1f                	add    %ebx,(%edi)
    112e:	02 0f                	add    (%edi),%cl
    1130:	04 11                	add    $0x11,%al
    1132:	01 00                	add    %eax,(%eax)
    1134:	00 01                	add    %al,(%ecx)
    1136:	11 01                	adc    %eax,(%ecx)
    1138:	00 00                	add    %al,(%eax)
    113a:	01 18                	add    %ebx,(%eax)
    113c:	01 00                	add    %eax,(%eax)
    113e:	00 02                	add    %al,(%edx)
    1140:	c6 00 00             	movb   $0x0,(%eax)
    1143:	00 03                	add    %al,(%ebx)
    1145:	05 31 00 05 02       	add    $0x2050031,%eax
    114a:	ae                   	scas   %es:(%edi),%al
    114b:	20 00                	and    %al,(%eax)
    114d:	00 15 05 08 db 05    	add    %dl,0x5db0805
    1153:	06                   	push   %es
    1154:	3c 05                	cmp    $0x5,%al
    1156:	08 2f                	or     %ch,(%edi)
    1158:	05 06 3c 05 08       	add    $0x8053c06,%eax
    115d:	2f                   	das
    115e:	05 06 3c 2f 05       	add    $0x52f3c06,%eax
    1163:	02 59 05             	add    0x5(%ecx),%bl
    1166:	01 2f                	add    %ebp,(%edi)
    1168:	05 25 67 05 06       	add    $0x6056725,%eax
    116d:	d9 3d 05 02 59 05    	fnstcw 0x5590205
    1173:	01 2f                	add    %ebp,(%edi)
    1175:	05 0d 68 05 06       	add    $0x605680d,%eax
    117a:	ca 05 02             	lret   $0x205
    117d:	59                   	pop    %ecx
    117e:	05 01 2f 05 1a       	add    $0x1a052f01,%eax
    1183:	3e 05 08 d9 05 06    	ds add $0x605d908,%eax
    1189:	3c 2f                	cmp    $0x2f,%al
    118b:	05 02 59 05 01       	add    $0x1055902,%eax
    1190:	2f                   	das
    1191:	05 2c 68 05 08       	add    $0x805682c,%eax
    1196:	da 05 06 3c 05 08    	fiaddl 0x8053c06
    119c:	2f                   	das
    119d:	05 06 3c 2f 05       	add    $0x52f3c06,%eax
    11a2:	02 59 05             	add    0x5(%ecx),%bl
    11a5:	01 2f                	add    %ebp,(%edi)
    11a7:	02 06                	add    (%esi),%al
    11a9:	00 01                	add    %al,(%ecx)
    11ab:	01 2c 01             	add    %ebp,(%ecx,%eax,1)
    11ae:	00 00                	add    %al,(%eax)
    11b0:	05 00 04 00 45       	add    $0x45000400,%eax
    11b5:	00 00                	add    %al,(%eax)
    11b7:	00 01                	add    %al,(%ecx)
    11b9:	01 01                	add    %eax,(%ecx)
    11bb:	fb                   	sti
    11bc:	0e                   	push   %cs
    11bd:	0d 00 01 01 01       	or     $0x1010100,%eax
    11c2:	01 00                	add    %eax,(%eax)
    11c4:	00 00                	add    %al,(%eax)
    11c6:	01 00                	add    %eax,(%eax)
    11c8:	00 01                	add    %al,(%ecx)
    11ca:	01 01                	add    %eax,(%ecx)
    11cc:	1f                   	pop    %ds
    11cd:	04 11                	add    $0x11,%al
    11cf:	00 00                	add    %al,(%eax)
    11d1:	00 e1                	add    %ah,%cl
    11d3:	00 00                	add    %al,(%eax)
    11d5:	00 43 00             	add    %al,0x0(%ebx)
    11d8:	00 00                	add    %al,(%eax)
    11da:	4d                   	dec    %ebp
    11db:	00 00                	add    %al,(%eax)
    11dd:	00 02                	add    %al,(%edx)
    11df:	01 1f                	add    %ebx,(%edi)
    11e1:	02 0f                	add    (%edi),%cl
    11e3:	05 2c 01 00 00       	add    $0x12c,%eax
    11e8:	01 2c 01             	add    %ebp,(%ecx,%eax,1)
    11eb:	00 00                	add    %al,(%eax)
    11ed:	01 c6                	add    %eax,%esi
    11ef:	00 00                	add    %al,(%eax)
    11f1:	00 02                	add    %al,(%edx)
    11f3:	31 01                	xor    %eax,(%ecx)
    11f5:	00 00                	add    %al,(%eax)
    11f7:	03 71 00             	add    0x0(%ecx),%esi
    11fa:	00 00                	add    %al,(%eax)
    11fc:	03 05 0f 00 05 02    	add    0x205000f,%eax
    1202:	52                   	push   %edx
    1203:	21 00                	and    %eax,(%eax)
    1205:	00 03                	add    %al,(%ebx)
    1207:	0f 01 05 13 08 21 05 	sgdtl  0x5210813
    120e:	07                   	pop    %es
    120f:	08 67 05             	or     %ah,0x5(%edi)
    1212:	09 67 05             	or     %esp,0x5(%edi)
    1215:	1c 08                	sbb    $0x8,%al
    1217:	67 05 05 bc 05 01    	addr16 add $0x105bc05,%eax
    121d:	d7                   	xlat   %ds:(%ebx)
    121e:	05 34 68 05 08       	add    $0x8056834,%eax
    1223:	08 21                	or     %ah,(%ecx)
    1225:	05 07 82 05 1d       	add    $0x1d058207,%eax
    122a:	00 02                	add    %al,(%edx)
    122c:	04 01                	add    $0x1,%al
    122e:	4a                   	dec    %edx
    122f:	05 18 59 05 0c       	add    $0xc055918,%eax
    1234:	82 05 01 08 13 05 23 	addb   $0x23,0x5130801
    123b:	5a                   	pop    %edx
    123c:	05 08 08 21 05       	add    $0x5210808,%eax
    1241:	07                   	pop    %es
    1242:	82 05 1d 00 02 04 01 	addb   $0x1,0x402001d
    1249:	4a                   	dec    %edx
    124a:	05 11 59 05 05       	add    $0x5055911,%eax
    124f:	90                   	nop
    1250:	05 01 ad 05 46       	add    $0x4605ad01,%eax
    1255:	68 05 08 08 21       	push   $0x21080805
    125a:	05 07 82 05 1d       	add    $0x1d058207,%eax
    125f:	00 02                	add    %al,(%edx)
    1261:	04 01                	add    $0x1,%al
    1263:	4a                   	dec    %edx
    1264:	05 11 59 05 05       	add    $0x5055911,%eax
    1269:	90                   	nop
    126a:	05 01 08 13 05       	add    $0x5130801,%eax
    126f:	22 68 05             	and    0x5(%eax),%ch
    1272:	08 08                	or     %cl,(%eax)
    1274:	21 05 07 82 05 1d    	and    %eax,0x1d058207
    127a:	00 02                	add    %al,(%edx)
    127c:	04 01                	add    $0x1,%al
    127e:	4a                   	dec    %edx
    127f:	05 11 59 05 05       	add    $0x5055911,%eax
    1284:	90                   	nop
    1285:	05 01 ad 05 68       	add    $0x6805ad01,%eax
    128a:	68 05 08 08 21       	push   $0x21080805
    128f:	05 07 82 05 1d       	add    $0x1d058207,%eax
    1294:	00 02                	add    %al,(%edx)
    1296:	04 01                	add    $0x1,%al
    1298:	4a                   	dec    %edx
    1299:	05 11 59 05 05       	add    $0x5055911,%eax
    129e:	90                   	nop
    129f:	05 01 d7 05 56       	add    $0x5605d701,%eax
    12a4:	68 05 08 08 75       	push   $0x75080805
    12a9:	05 07 82 05 1d       	add    $0x1d058207,%eax
    12ae:	00 02                	add    %al,(%edx)
    12b0:	04 01                	add    $0x1,%al
    12b2:	4a                   	dec    %edx
    12b3:	05 11 59 05 05       	add    $0x5055911,%eax
    12b8:	90                   	nop
    12b9:	05 01 08 ad 05       	add    $0x5ad0801,%eax
    12be:	22 68 05             	and    0x5(%eax),%ch
    12c1:	08 08                	or     %cl,(%eax)
    12c3:	21 05 07 82 05 1d    	and    %eax,0x1d058207
    12c9:	00 02                	add    %al,(%edx)
    12cb:	04 01                	add    $0x1,%al
    12cd:	4a                   	dec    %edx
    12ce:	05 11 59 05 05       	add    $0x5055911,%eax
    12d3:	90                   	nop
    12d4:	05 01 ad 02 06       	add    $0x602ad01,%eax
    12d9:	00 01                	add    %al,(%ecx)
    12db:	01 d5                	add    %edx,%ebp
    12dd:	00 00                	add    %al,(%eax)
    12df:	00 05 00 04 00 2e    	add    %al,0x2e000400
    12e5:	00 00                	add    %al,(%eax)
    12e7:	00 01                	add    %al,(%ecx)
    12e9:	01 01                	add    %eax,(%ecx)
    12eb:	fb                   	sti
    12ec:	0e                   	push   %cs
    12ed:	0d 00 01 01 01       	or     $0x1010100,%eax
    12f2:	01 00                	add    %eax,(%eax)
    12f4:	00 00                	add    %al,(%eax)
    12f6:	01 00                	add    %eax,(%eax)
    12f8:	00 01                	add    %al,(%ecx)
    12fa:	01 01                	add    %eax,(%ecx)
    12fc:	1f                   	pop    %ds
    12fd:	02 11                	add    (%ecx),%dl
    12ff:	00 00                	add    %al,(%eax)
    1301:	00 3a                	add    %bh,(%edx)
    1303:	00 00                	add    %al,(%eax)
    1305:	00 02                	add    %al,(%edx)
    1307:	01 1f                	add    %ebx,(%edi)
    1309:	02 0f                	add    (%edi),%cl
    130b:	02 3f                	add    (%edi),%bh
    130d:	01 00                	add    %eax,(%eax)
    130f:	00 01                	add    %al,(%ecx)
    1311:	3f                   	aas
    1312:	01 00                	add    %eax,(%eax)
    1314:	00 01                	add    %al,(%ecx)
    1316:	05 13 00 05 02       	add    $0x2050013,%eax
    131b:	87 23                	xchg   %esp,(%ebx)
    131d:	00 00                	add    %al,(%eax)
    131f:	03 2a                	add    (%edx),%ebp
    1321:	01 05 04 c9 05 0e    	add    %eax,0xe05c904
    1327:	00 02                	add    %al,(%edx)
    1329:	04 01                	add    $0x1,%al
    132b:	66 05 22 00          	add    $0x22,%ax
    132f:	02 04 02             	add    (%edx,%eax,1),%al
    1332:	66 06                	pushw  %es
    1334:	58                   	pop    %eax
    1335:	05 09 06 2f 05       	add    $0x52f0609,%eax
    133a:	01 59 05             	add    %ebx,0x5(%ecx)
    133d:	13 2f                	adc    (%edi),%ebp
    133f:	05 04 c9 05 0f       	add    $0xf05c904,%eax
    1344:	00 02                	add    %al,(%edx)
    1346:	04 01                	add    $0x1,%al
    1348:	66 05 1c 00          	add    $0x1c,%ax
    134c:	02 04 04             	add    (%esp,%eax,1),%al
    134f:	66 05 29 00          	add    $0x29,%ax
    1353:	02 04 05 66 05 3e 00 	add    0x3e0566(,%eax,1),%al
    135a:	02 04 06             	add    (%esi,%eax,1),%al
    135d:	66 06                	pushw  %es
    135f:	58                   	pop    %eax
    1360:	05 09 06 2f 05       	add    $0x52f0609,%eax
    1365:	01 59 05             	add    %ebx,0x5(%ecx)
    1368:	13 2f                	adc    (%edi),%ebp
    136a:	05 04 c9 05 0e       	add    $0xe05c904,%eax
    136f:	00 02                	add    %al,(%edx)
    1371:	04 01                	add    $0x1,%al
    1373:	66 05 22 00          	add    $0x22,%ax
    1377:	02 04 02             	add    (%edx,%eax,1),%al
    137a:	66 06                	pushw  %es
    137c:	58                   	pop    %eax
    137d:	05 09 06 2f 05       	add    $0x52f0609,%eax
    1382:	01 59 05             	add    %ebx,0x5(%ecx)
    1385:	13 30                	adc    (%eax),%esi
    1387:	05 04 c9 05 0e       	add    $0xe05c904,%eax
    138c:	00 02                	add    %al,(%edx)
    138e:	04 01                	add    $0x1,%al
    1390:	66 05 0c 67          	add    $0x670c,%ax
    1394:	05 0a 84 05 01       	add    $0x105840a,%eax
    1399:	3d 05 13 30 05       	cmp    $0x5301305,%eax
    139e:	04 c9                	add    $0xc9,%al
    13a0:	05 0e 00 02 04       	add    $0x402000e,%eax
    13a5:	01 66 05             	add    %esp,0x5(%esi)
    13a8:	0c 67                	or     $0x67,%al
    13aa:	05 0a 84 05 01       	add    $0x105840a,%eax
    13af:	3d 02 02 00 01       	cmp    $0x1000202,%eax
    13b4:	01                   	.byte 0x1

Disassembly of section .debug_frame:

00000000 <.debug_frame>:
   0:	10 00                	adc    %al,(%eax)
   2:	00 00                	add    %al,(%eax)
   4:	ff                   	(bad)
   5:	ff                   	(bad)
   6:	ff                   	(bad)
   7:	ff 01                	incl   (%ecx)
   9:	00 01                	add    %al,(%ecx)
   b:	7c 08                	jl     15 <_init-0x5f>
   d:	0c 04                	or     $0x4,%al
   f:	04 88                	add    $0x88,%al
  11:	01 00                	add    %eax,(%eax)
  13:	00 20                	add    %ah,(%eax)
  15:	00 00                	add    %al,(%eax)
  17:	00 00                	add    %al,(%eax)
  19:	00 00                	add    %al,(%eax)
  1b:	00 4d 04             	add    %cl,0x4(%ebp)
  1e:	00 00                	add    %al,(%eax)
  20:	3d 00 00 00 41       	cmp    $0x41000000,%eax
  25:	0e                   	push   %cs
  26:	08 85 02 42 0d 05    	or     %al,0x50d4202(%ebp)
  2c:	44                   	inc    %esp
  2d:	83 03 75             	addl   $0x75,(%ebx)
  30:	c5 c3 0c             	(bad)
  33:	04 04                	add    $0x4,%al
  35:	00 00                	add    %al,(%eax)
  37:	00 24 00             	add    %ah,(%eax,%eax,1)
  3a:	00 00                	add    %al,(%eax)
  3c:	00 00                	add    %al,(%eax)
  3e:	00 00                	add    %al,(%eax)
  40:	8a 04 00             	mov    (%eax,%eax,1),%al
  43:	00 a4 00 00 00 41 0e 	add    %ah,0xe410000(%eax,%eax,1)
  4a:	08 85 02 42 0d 05    	or     %al,0x50d4202(%ebp)
  50:	42                   	inc    %edx
  51:	86 03                	xchg   %al,(%ebx)
  53:	83 04 02 9c          	addl   $0xffffff9c,(%edx,%eax,1)
  57:	c3                   	ret
  58:	41                   	inc    %ecx
  59:	c6 41 c5 0c          	movb   $0xc,-0x3b(%ecx)
  5d:	04 04                	add    $0x4,%al
  5f:	00 20                	add    %ah,(%eax)
  61:	00 00                	add    %al,(%eax)
  63:	00 00                	add    %al,(%eax)
  65:	00 00                	add    %al,(%eax)
  67:	00 2e                	add    %ch,(%esi)
  69:	05 00 00 b5 01       	add    $0x1b50000,%eax
  6e:	00 00                	add    %al,(%eax)
  70:	41                   	inc    %ecx
  71:	0e                   	push   %cs
  72:	08 85 02 42 0d 05    	or     %al,0x50d4202(%ebp)
  78:	44                   	inc    %esp
  79:	83 03 03             	addl   $0x3,(%ebx)
  7c:	ad                   	lods   %ds:(%esi),%eax
  7d:	01 c5                	add    %eax,%ebp
  7f:	c3                   	ret
  80:	0c 04                	or     $0x4,%al
  82:	04 00                	add    $0x0,%al
  84:	20 00                	and    %al,(%eax)
  86:	00 00                	add    %al,(%eax)
  88:	00 00                	add    %al,(%eax)
  8a:	00 00                	add    %al,(%eax)
  8c:	e3 06                	jecxz  94 <_start+0x10>
  8e:	00 00                	add    %al,(%eax)
  90:	33 00                	xor    (%eax),%eax
  92:	00 00                	add    %al,(%eax)
  94:	41                   	inc    %ecx
  95:	0e                   	push   %cs
  96:	08 85 02 42 0d 05    	or     %al,0x50d4202(%ebp)
  9c:	44                   	inc    %esp
  9d:	83 03 6b             	addl   $0x6b,(%ebx)
  a0:	c5 c3 0c             	(bad)
  a3:	04 04                	add    $0x4,%al
  a5:	00 00                	add    %al,(%eax)
  a7:	00 20                	add    %ah,(%eax)
  a9:	00 00                	add    %al,(%eax)
  ab:	00 00                	add    %al,(%eax)
  ad:	00 00                	add    %al,(%eax)
  af:	00 16                	add    %dl,(%esi)
  b1:	07                   	pop    %es
  b2:	00 00                	add    %al,(%eax)
  b4:	56                   	push   %esi
  b5:	00 00                	add    %al,(%eax)
  b7:	00 41 0e             	add    %al,0xe(%ecx)
  ba:	08 85 02 42 0d 05    	or     %al,0x50d4202(%ebp)
  c0:	44                   	inc    %esp
  c1:	83 03 02             	addl   $0x2,(%ebx)
  c4:	4e                   	dec    %esi
  c5:	c5 c3 0c             	(bad)
  c8:	04 04                	add    $0x4,%al
  ca:	00 00                	add    %al,(%eax)
  cc:	20 00                	and    %al,(%eax)
  ce:	00 00                	add    %al,(%eax)
  d0:	00 00                	add    %al,(%eax)
  d2:	00 00                	add    %al,(%eax)
  d4:	6c                   	insb   (%dx),%es:(%edi)
  d5:	07                   	pop    %es
  d6:	00 00                	add    %al,(%eax)
  d8:	43                   	inc    %ebx
  d9:	00 00                	add    %al,(%eax)
  db:	00 41 0e             	add    %al,0xe(%ecx)
  de:	08 85 02 42 0d 05    	or     %al,0x50d4202(%ebp)
  e4:	44                   	inc    %esp
  e5:	83 03 7b             	addl   $0x7b,(%ebx)
  e8:	c5 c3 0c             	(bad)
  eb:	04 04                	add    $0x4,%al
  ed:	00 00                	add    %al,(%eax)
  ef:	00 20                	add    %ah,(%eax)
  f1:	00 00                	add    %al,(%eax)
  f3:	00 00                	add    %al,(%eax)
  f5:	00 00                	add    %al,(%eax)
  f7:	00 af 07 00 00 5b    	add    %ch,0x5b000007(%edi)
  fd:	00 00                	add    %al,(%eax)
  ff:	00 41 0e             	add    %al,0xe(%ecx)
 102:	08 85 02 42 0d 05    	or     %al,0x50d4202(%ebp)
 108:	44                   	inc    %esp
 109:	83 03 02             	addl   $0x2,(%ebx)
 10c:	53                   	push   %ebx
 10d:	c5 c3 0c             	(bad)
 110:	04 04                	add    $0x4,%al
 112:	00 00                	add    %al,(%eax)
 114:	24 00                	and    $0x0,%al
 116:	00 00                	add    %al,(%eax)
 118:	00 00                	add    %al,(%eax)
 11a:	00 00                	add    %al,(%eax)
 11c:	0a 08                	or     (%eax),%cl
 11e:	00 00                	add    %al,(%eax)
 120:	b7 00                	mov    $0x0,%bh
 122:	00 00                	add    %al,(%eax)
 124:	41                   	inc    %ecx
 125:	0e                   	push   %cs
 126:	08 85 02 42 0d 05    	or     %al,0x50d4202(%ebp)
 12c:	45                   	inc    %ebp
 12d:	86 03                	xchg   %al,(%ebx)
 12f:	83 04 02 ac          	addl   $0xffffffac,(%edx,%eax,1)
 133:	c3                   	ret
 134:	41                   	inc    %ecx
 135:	c6 41 c5 0c          	movb   $0xc,-0x3b(%ecx)
 139:	04 04                	add    $0x4,%al
 13b:	00 20                	add    %ah,(%eax)
 13d:	00 00                	add    %al,(%eax)
 13f:	00 00                	add    %al,(%eax)
 141:	00 00                	add    %al,(%eax)
 143:	00 c1                	add    %al,%cl
 145:	08 00                	or     %al,(%eax)
 147:	00 96 00 00 00 41    	add    %dl,0x41000000(%esi)
 14d:	0e                   	push   %cs
 14e:	08 85 02 42 0d 05    	or     %al,0x50d4202(%ebp)
 154:	44                   	inc    %esp
 155:	83 03 02             	addl   $0x2,(%ebx)
 158:	8e c5                	mov    %ebp,%es
 15a:	c3                   	ret
 15b:	0c 04                	or     $0x4,%al
 15d:	04 00                	add    $0x0,%al
 15f:	00 20                	add    %ah,(%eax)
 161:	00 00                	add    %al,(%eax)
 163:	00 00                	add    %al,(%eax)
 165:	00 00                	add    %al,(%eax)
 167:	00 57 09             	add    %dl,0x9(%edi)
 16a:	00 00                	add    %al,(%eax)
 16c:	73 00                	jae    16e <__do_global_dtors_aux+0x52>
 16e:	00 00                	add    %al,(%eax)
 170:	41                   	inc    %ecx
 171:	0e                   	push   %cs
 172:	08 85 02 42 0d 05    	or     %al,0x50d4202(%ebp)
 178:	44                   	inc    %esp
 179:	83 03 02             	addl   $0x2,(%ebx)
 17c:	6b c5 c3             	imul   $0xffffffc3,%ebp,%eax
 17f:	0c 04                	or     $0x4,%al
 181:	04 00                	add    $0x0,%al
 183:	00 20                	add    %ah,(%eax)
 185:	00 00                	add    %al,(%eax)
 187:	00 00                	add    %al,(%eax)
 189:	00 00                	add    %al,(%eax)
 18b:	00 ca                	add    %cl,%dl
 18d:	09 00                	or     %eax,(%eax)
 18f:	00 79 00             	add    %bh,0x0(%ecx)
 192:	00 00                	add    %al,(%eax)
 194:	41                   	inc    %ecx
 195:	0e                   	push   %cs
 196:	08 85 02 42 0d 05    	or     %al,0x50d4202(%ebp)
 19c:	44                   	inc    %esp
 19d:	83 03 02             	addl   $0x2,(%ebx)
 1a0:	71 c5                	jno    167 <__do_global_dtors_aux+0x4b>
 1a2:	c3                   	ret
 1a3:	0c 04                	or     $0x4,%al
 1a5:	04 00                	add    $0x0,%al
 1a7:	00 20                	add    %ah,(%eax)
 1a9:	00 00                	add    %al,(%eax)
 1ab:	00 00                	add    %al,(%eax)
 1ad:	00 00                	add    %al,(%eax)
 1af:	00 43 0a             	add    %al,0xa(%ebx)
 1b2:	00 00                	add    %al,(%eax)
 1b4:	8c 00                	mov    %es,(%eax)
 1b6:	00 00                	add    %al,(%eax)
 1b8:	41                   	inc    %ecx
 1b9:	0e                   	push   %cs
 1ba:	08 85 02 42 0d 05    	or     %al,0x50d4202(%ebp)
 1c0:	44                   	inc    %esp
 1c1:	83 03 02             	addl   $0x2,(%ebx)
 1c4:	84 c5                	test   %al,%ch
 1c6:	c3                   	ret
 1c7:	0c 04                	or     $0x4,%al
 1c9:	04 00                	add    $0x0,%al
 1cb:	00 20                	add    %ah,(%eax)
 1cd:	00 00                	add    %al,(%eax)
 1cf:	00 00                	add    %al,(%eax)
 1d1:	00 00                	add    %al,(%eax)
 1d3:	00 cf                	add    %cl,%bh
 1d5:	0a 00                	or     (%eax),%al
 1d7:	00 4b 00             	add    %cl,0x0(%ebx)
 1da:	00 00                	add    %al,(%eax)
 1dc:	41                   	inc    %ecx
 1dd:	0e                   	push   %cs
 1de:	08 85 02 42 0d 05    	or     %al,0x50d4202(%ebp)
 1e4:	44                   	inc    %esp
 1e5:	83 03 02             	addl   $0x2,(%ebx)
 1e8:	43                   	inc    %ebx
 1e9:	c5 c3 0c             	(bad)
 1ec:	04 04                	add    $0x4,%al
 1ee:	00 00                	add    %al,(%eax)
 1f0:	20 00                	and    %al,(%eax)
 1f2:	00 00                	add    %al,(%eax)
 1f4:	00 00                	add    %al,(%eax)
 1f6:	00 00                	add    %al,(%eax)
 1f8:	1a 0b                	sbb    (%ebx),%cl
 1fa:	00 00                	add    %al,(%eax)
 1fc:	52                   	push   %edx
 1fd:	00 00                	add    %al,(%eax)
 1ff:	00 41 0e             	add    %al,0xe(%ecx)
 202:	08 85 02 42 0d 05    	or     %al,0x50d4202(%ebp)
 208:	44                   	inc    %esp
 209:	83 03 02             	addl   $0x2,(%ebx)
 20c:	4a                   	dec    %edx
 20d:	c5 c3 0c             	(bad)
 210:	04 04                	add    $0x4,%al
 212:	00 00                	add    %al,(%eax)
 214:	24 00                	and    $0x0,%al
 216:	00 00                	add    %al,(%eax)
 218:	00 00                	add    %al,(%eax)
 21a:	00 00                	add    %al,(%eax)
 21c:	6c                   	insb   (%dx),%es:(%edi)
 21d:	0b 00                	or     (%eax),%eax
 21f:	00 c1                	add    %al,%cl
 221:	00 00                	add    %al,(%eax)
 223:	00 41 0e             	add    %al,0xe(%ecx)
 226:	08 85 02 42 0d 05    	or     %al,0x50d4202(%ebp)
 22c:	45                   	inc    %ebp
 22d:	86 03                	xchg   %al,(%ebx)
 22f:	83 04 02 b6          	addl   $0xffffffb6,(%edx,%eax,1)
 233:	c3                   	ret
 234:	41                   	inc    %ecx
 235:	c6 41 c5 0c          	movb   $0xc,-0x3b(%ecx)
 239:	04 04                	add    $0x4,%al
 23b:	00 20                	add    %ah,(%eax)
 23d:	00 00                	add    %al,(%eax)
 23f:	00 00                	add    %al,(%eax)
 241:	00 00                	add    %al,(%eax)
 243:	00 2d 0c 00 00 31    	add    %ch,0x3100000c
 249:	00 00                	add    %al,(%eax)
 24b:	00 41 0e             	add    %al,0xe(%ecx)
 24e:	08 85 02 42 0d 05    	or     %al,0x50d4202(%ebp)
 254:	44                   	inc    %esp
 255:	83 03 69             	addl   $0x69,(%ebx)
 258:	c5 c3 0c             	(bad)
 25b:	04 04                	add    $0x4,%al
 25d:	00 00                	add    %al,(%eax)
 25f:	00 20                	add    %ah,(%eax)
 261:	00 00                	add    %al,(%eax)
 263:	00 00                	add    %al,(%eax)
 265:	00 00                	add    %al,(%eax)
 267:	00 5e 0c             	add    %bl,0xc(%esi)
 26a:	00 00                	add    %al,(%eax)
 26c:	29 00                	sub    %eax,(%eax)
 26e:	00 00                	add    %al,(%eax)
 270:	41                   	inc    %ecx
 271:	0e                   	push   %cs
 272:	08 85 02 42 0d 05    	or     %al,0x50d4202(%ebp)
 278:	44                   	inc    %esp
 279:	83 03 61             	addl   $0x61,(%ebx)
 27c:	c5 c3 0c             	(bad)
 27f:	04 04                	add    $0x4,%al
 281:	00 00                	add    %al,(%eax)
 283:	00 20                	add    %ah,(%eax)
 285:	00 00                	add    %al,(%eax)
 287:	00 00                	add    %al,(%eax)
 289:	00 00                	add    %al,(%eax)
 28b:	00 87 0c 00 00 34    	add    %al,0x3400000c(%edi)
 291:	00 00                	add    %al,(%eax)
 293:	00 41 0e             	add    %al,0xe(%ecx)
 296:	08 85 02 42 0d 05    	or     %al,0x50d4202(%ebp)
 29c:	44                   	inc    %esp
 29d:	83 03 6c             	addl   $0x6c,(%ebx)
 2a0:	c5 c3 0c             	(bad)
 2a3:	04 04                	add    $0x4,%al
 2a5:	00 00                	add    %al,(%eax)
 2a7:	00 20                	add    %ah,(%eax)
 2a9:	00 00                	add    %al,(%eax)
 2ab:	00 00                	add    %al,(%eax)
 2ad:	00 00                	add    %al,(%eax)
 2af:	00 bb 0c 00 00 20    	add    %bh,0x2000000c(%ebx)
 2b5:	02 00                	add    (%eax),%al
 2b7:	00 41 0e             	add    %al,0xe(%ecx)
 2ba:	08 85 02 42 0d 05    	or     %al,0x50d4202(%ebp)
 2c0:	47                   	inc    %edi
 2c1:	83 03 03             	addl   $0x3,(%ebx)
 2c4:	15 02 c5 c3 0c       	adc    $0xcc3c502,%eax
 2c9:	04 04                	add    $0x4,%al
 2cb:	00 0c 00             	add    %cl,(%eax,%eax,1)
 2ce:	00 00                	add    %al,(%eax)
 2d0:	00 00                	add    %al,(%eax)
 2d2:	00 00                	add    %al,(%eax)
 2d4:	db 0e                	fisttpl (%esi)
 2d6:	00 00                	add    %al,(%eax)
 2d8:	04 00                	add    $0x0,%al
 2da:	00 00                	add    %al,(%eax)
 2dc:	0c 00                	or     $0x0,%al
 2de:	00 00                	add    %al,(%eax)
 2e0:	00 00                	add    %al,(%eax)
 2e2:	00 00                	add    %al,(%eax)
 2e4:	df 0e                	fisttps (%esi)
 2e6:	00 00                	add    %al,(%eax)
 2e8:	04 00                	add    $0x0,%al
 2ea:	00 00                	add    %al,(%eax)
 2ec:	10 00                	adc    %al,(%eax)
 2ee:	00 00                	add    %al,(%eax)
 2f0:	ff                   	(bad)
 2f1:	ff                   	(bad)
 2f2:	ff                   	(bad)
 2f3:	ff 01                	incl   (%ecx)
 2f5:	00 01                	add    %al,(%ecx)
 2f7:	7c 08                	jl     301 <main+0x54>
 2f9:	0c 04                	or     $0x4,%al
 2fb:	04 88                	add    $0x88,%al
 2fd:	01 00                	add    %eax,(%eax)
 2ff:	00 20                	add    %ah,(%eax)
 301:	00 00                	add    %al,(%eax)
 303:	00 ec                	add    %ch,%ah
 305:	02 00                	add    (%eax),%al
 307:	00 e3                	add    %ah,%bl
 309:	0e                   	push   %cs
 30a:	00 00                	add    %al,(%eax)
 30c:	64 00 00             	add    %al,%fs:(%eax)
 30f:	00 41 0e             	add    %al,0xe(%ecx)
 312:	08 85 02 42 0d 05    	or     %al,0x50d4202(%ebp)
 318:	44                   	inc    %esp
 319:	83 03 02             	addl   $0x2,(%ebx)
 31c:	5c                   	pop    %esp
 31d:	c5 c3 0c             	(bad)
 320:	04 04                	add    $0x4,%al
 322:	00 00                	add    %al,(%eax)
 324:	20 00                	and    %al,(%eax)
 326:	00 00                	add    %al,(%eax)
 328:	ec                   	in     (%dx),%al
 329:	02 00                	add    (%eax),%al
 32b:	00 47 0f             	add    %al,0xf(%edi)
 32e:	00 00                	add    %al,(%eax)
 330:	39 00                	cmp    %eax,(%eax)
 332:	00 00                	add    %al,(%eax)
 334:	41                   	inc    %ecx
 335:	0e                   	push   %cs
 336:	08 85 02 42 0d 05    	or     %al,0x50d4202(%ebp)
 33c:	44                   	inc    %esp
 33d:	83 03 71             	addl   $0x71,(%ebx)
 340:	c5 c3 0c             	(bad)
 343:	04 04                	add    $0x4,%al
 345:	00 00                	add    %al,(%eax)
 347:	00 20                	add    %ah,(%eax)
 349:	00 00                	add    %al,(%eax)
 34b:	00 ec                	add    %ch,%ah
 34d:	02 00                	add    (%eax),%al
 34f:	00 80 0f 00 00 71    	add    %al,0x7100000f(%eax)
 355:	00 00                	add    %al,(%eax)
 357:	00 41 0e             	add    %al,0xe(%ecx)
 35a:	08 85 02 42 0d 05    	or     %al,0x50d4202(%ebp)
 360:	44                   	inc    %esp
 361:	83 03 02             	addl   $0x2,(%ebx)
 364:	69 c5 c3 0c 04 04    	imul   $0x4040cc3,%ebp,%eax
 36a:	00 00                	add    %al,(%eax)
 36c:	20 00                	and    %al,(%eax)
 36e:	00 00                	add    %al,(%eax)
 370:	ec                   	in     (%dx),%al
 371:	02 00                	add    (%eax),%al
 373:	00 f1                	add    %dh,%cl
 375:	0f 00 00             	sldt   (%eax)
 378:	2b 00                	sub    (%eax),%eax
 37a:	00 00                	add    %al,(%eax)
 37c:	41                   	inc    %ecx
 37d:	0e                   	push   %cs
 37e:	08 85 02 42 0d 05    	or     %al,0x50d4202(%ebp)
 384:	44                   	inc    %esp
 385:	83 03 63             	addl   $0x63,(%ebx)
 388:	c5 c3 0c             	(bad)
 38b:	04 04                	add    $0x4,%al
 38d:	00 00                	add    %al,(%eax)
 38f:	00 1c 00             	add    %bl,(%eax,%eax,1)
 392:	00 00                	add    %al,(%eax)
 394:	ec                   	in     (%dx),%al
 395:	02 00                	add    (%eax),%al
 397:	00 1c 10             	add    %bl,(%eax,%edx,1)
 39a:	00 00                	add    %al,(%eax)
 39c:	10 00                	adc    %al,(%eax)
 39e:	00 00                	add    %al,(%eax)
 3a0:	41                   	inc    %ecx
 3a1:	0e                   	push   %cs
 3a2:	08 85 02 42 0d 05    	or     %al,0x50d4202(%ebp)
 3a8:	4c                   	dec    %esp
 3a9:	c5 0c 04             	lds    (%esp,%eax,1),%ecx
 3ac:	04 00                	add    $0x0,%al
 3ae:	00 00                	add    %al,(%eax)
 3b0:	20 00                	and    %al,(%eax)
 3b2:	00 00                	add    %al,(%eax)
 3b4:	ec                   	in     (%dx),%al
 3b5:	02 00                	add    (%eax),%al
 3b7:	00 2c 10             	add    %ch,(%eax,%edx,1)
 3ba:	00 00                	add    %al,(%eax)
 3bc:	4d                   	dec    %ebp
 3bd:	00 00                	add    %al,(%eax)
 3bf:	00 41 0e             	add    %al,0xe(%ecx)
 3c2:	08 85 02 42 0d 05    	or     %al,0x50d4202(%ebp)
 3c8:	44                   	inc    %esp
 3c9:	83 03 02             	addl   $0x2,(%ebx)
 3cc:	45                   	inc    %ebp
 3cd:	c5 c3 0c             	(bad)
 3d0:	04 04                	add    $0x4,%al
 3d2:	00 00                	add    %al,(%eax)
 3d4:	1c 00                	sbb    $0x0,%al
 3d6:	00 00                	add    %al,(%eax)
 3d8:	ec                   	in     (%dx),%al
 3d9:	02 00                	add    (%eax),%al
 3db:	00 79 10             	add    %bh,0x10(%ecx)
 3de:	00 00                	add    %al,(%eax)
 3e0:	77 00                	ja     3e2 <main+0x135>
 3e2:	00 00                	add    %al,(%eax)
 3e4:	41                   	inc    %ecx
 3e5:	0e                   	push   %cs
 3e6:	08 85 02 42 0d 05    	or     %al,0x50d4202(%ebp)
 3ec:	02 73 c5             	add    -0x3b(%ebx),%dh
 3ef:	0c 04                	or     $0x4,%al
 3f1:	04 00                	add    $0x0,%al
 3f3:	00 1c 00             	add    %bl,(%eax,%eax,1)
 3f6:	00 00                	add    %al,(%eax)
 3f8:	ec                   	in     (%dx),%al
 3f9:	02 00                	add    (%eax),%al
 3fb:	00 f0                	add    %dh,%al
 3fd:	10 00                	adc    %al,(%eax)
 3ff:	00 e0                	add    %ah,%al
 401:	00 00                	add    %al,(%eax)
 403:	00 41 0e             	add    %al,0xe(%ecx)
 406:	08 85 02 42 0d 05    	or     %al,0x50d4202(%ebp)
 40c:	02 dc                	add    %ah,%bl
 40e:	c5 0c 04             	lds    (%esp,%eax,1),%ecx
 411:	04 00                	add    $0x0,%al
 413:	00 1c 00             	add    %bl,(%eax,%eax,1)
 416:	00 00                	add    %al,(%eax)
 418:	ec                   	in     (%dx),%al
 419:	02 00                	add    (%eax),%al
 41b:	00 d0                	add    %dl,%al
 41d:	11 00                	adc    %eax,(%eax)
 41f:	00 10                	add    %dl,(%eax)
 421:	01 00                	add    %eax,(%eax)
 423:	00 41 0e             	add    %al,0xe(%ecx)
 426:	08 85 02 42 0d 05    	or     %al,0x50d4202(%ebp)
 42c:	03 0c 01             	add    (%ecx,%eax,1),%ecx
 42f:	c5 0c 04             	lds    (%esp,%eax,1),%ecx
 432:	04 00                	add    $0x0,%al
 434:	20 00                	and    %al,(%eax)
 436:	00 00                	add    %al,(%eax)
 438:	ec                   	in     (%dx),%al
 439:	02 00                	add    (%eax),%al
 43b:	00 e0                	add    %ah,%al
 43d:	12 00                	adc    (%eax),%al
 43f:	00 20                	add    %ah,(%eax)
 441:	00 00                	add    %al,(%eax)
 443:	00 41 0e             	add    %al,0xe(%ecx)
 446:	08 85 02 42 0d 05    	or     %al,0x50d4202(%ebp)
 44c:	41                   	inc    %ecx
 44d:	83 03 5b             	addl   $0x5b,(%ebx)
 450:	c5 c3 0c             	(bad)
 453:	04 04                	add    $0x4,%al
 455:	00 00                	add    %al,(%eax)
 457:	00 20                	add    %ah,(%eax)
 459:	00 00                	add    %al,(%eax)
 45b:	00 ec                	add    %ch,%ah
 45d:	02 00                	add    (%eax),%al
 45f:	00 00                	add    %al,(%eax)
 461:	13 00                	adc    (%eax),%eax
 463:	00 1e                	add    %bl,(%esi)
 465:	00 00                	add    %al,(%eax)
 467:	00 41 0e             	add    %al,0xe(%ecx)
 46a:	08 85 02 42 0d 05    	or     %al,0x50d4202(%ebp)
 470:	41                   	inc    %ecx
 471:	83 03 59             	addl   $0x59,(%ebx)
 474:	c5 c3 0c             	(bad)
 477:	04 04                	add    $0x4,%al
 479:	00 00                	add    %al,(%eax)
 47b:	00 1c 00             	add    %bl,(%eax,%eax,1)
 47e:	00 00                	add    %al,(%eax)
 480:	ec                   	in     (%dx),%al
 481:	02 00                	add    (%eax),%al
 483:	00 1e                	add    %bl,(%esi)
 485:	13 00                	adc    (%eax),%eax
 487:	00 16                	add    %dl,(%esi)
 489:	00 00                	add    %al,(%eax)
 48b:	00 41 0e             	add    %al,0xe(%ecx)
 48e:	08 85 02 42 0d 05    	or     %al,0x50d4202(%ebp)
 494:	52                   	push   %edx
 495:	c5 0c 04             	lds    (%esp,%eax,1),%ecx
 498:	04 00                	add    $0x0,%al
 49a:	00 00                	add    %al,(%eax)
 49c:	28 00                	sub    %al,(%eax)
 49e:	00 00                	add    %al,(%eax)
 4a0:	ec                   	in     (%dx),%al
 4a1:	02 00                	add    (%eax),%al
 4a3:	00 34 13             	add    %dh,(%ebx,%edx,1)
 4a6:	00 00                	add    %al,(%eax)
 4a8:	c2 01 00             	ret    $0x1
 4ab:	00 41 0e             	add    %al,0xe(%ecx)
 4ae:	08 85 02 42 0d 05    	or     %al,0x50d4202(%ebp)
 4b4:	46                   	inc    %esi
 4b5:	87 03                	xchg   %eax,(%ebx)
 4b7:	86 04 83             	xchg   %al,(%ebx,%eax,4)
 4ba:	05 03 b5 01 c3       	add    $0xc301b503,%eax
 4bf:	41                   	inc    %ecx
 4c0:	c6 41 c7 41          	movb   $0x41,-0x39(%ecx)
 4c4:	c5 0c 04             	lds    (%esp,%eax,1),%ecx
 4c7:	04 0c                	add    $0xc,%al
 4c9:	00 00                	add    %al,(%eax)
 4cb:	00 ec                	add    %ch,%ah
 4cd:	02 00                	add    (%eax),%al
 4cf:	00 db                	add    %bl,%bl
 4d1:	0e                   	push   %cs
 4d2:	00 00                	add    %al,(%eax)
 4d4:	04 00                	add    $0x0,%al
 4d6:	00 00                	add    %al,(%eax)
 4d8:	0c 00                	or     $0x0,%al
 4da:	00 00                	add    %al,(%eax)
 4dc:	ec                   	in     (%dx),%al
 4dd:	02 00                	add    (%eax),%al
 4df:	00 df                	add    %bl,%bh
 4e1:	0e                   	push   %cs
 4e2:	00 00                	add    %al,(%eax)
 4e4:	04 00                	add    $0x0,%al
 4e6:	00 00                	add    %al,(%eax)
 4e8:	10 00                	adc    %al,(%eax)
 4ea:	00 00                	add    %al,(%eax)
 4ec:	ff                   	(bad)
 4ed:	ff                   	(bad)
 4ee:	ff                   	(bad)
 4ef:	ff 01                	incl   (%ecx)
 4f1:	00 01                	add    %al,(%ecx)
 4f3:	7c 08                	jl     4fd <init_stdio+0x73>
 4f5:	0c 04                	or     $0x4,%al
 4f7:	04 88                	add    $0x88,%al
 4f9:	01 00                	add    %eax,(%eax)
 4fb:	00 1c 00             	add    %bl,(%eax,%eax,1)
 4fe:	00 00                	add    %al,(%eax)
 500:	e8 04 00 00 f6       	call   f6000509 <_end+0xf5ffcef1>
 505:	14 00                	adc    $0x0,%al
 507:	00 40 00             	add    %al,0x0(%eax)
 50a:	00 00                	add    %al,(%eax)
 50c:	41                   	inc    %ecx
 50d:	0e                   	push   %cs
 50e:	08 85 02 42 0d 05    	or     %al,0x50d4202(%ebp)
 514:	7c c5                	jl     4db <init_stdio+0x51>
 516:	0c 04                	or     $0x4,%al
 518:	04 00                	add    $0x0,%al
 51a:	00 00                	add    %al,(%eax)
 51c:	1c 00                	sbb    $0x0,%al
 51e:	00 00                	add    %al,(%eax)
 520:	e8 04 00 00 36       	call   36000529 <_end+0x35ffcf11>
 525:	15 00 00 5e 00       	adc    $0x5e0000,%eax
 52a:	00 00                	add    %al,(%eax)
 52c:	41                   	inc    %ecx
 52d:	0e                   	push   %cs
 52e:	08 85 02 42 0d 05    	or     %al,0x50d4202(%ebp)
 534:	02 5a c5             	add    -0x3b(%edx),%bl
 537:	0c 04                	or     $0x4,%al
 539:	04 00                	add    $0x0,%al
 53b:	00 1c 00             	add    %bl,(%eax,%eax,1)
 53e:	00 00                	add    %al,(%eax)
 540:	e8 04 00 00 94       	call   94000549 <_end+0x93ffcf31>
 545:	15 00 00 3c 00       	adc    $0x3c0000,%eax
 54a:	00 00                	add    %al,(%eax)
 54c:	41                   	inc    %ecx
 54d:	0e                   	push   %cs
 54e:	08 85 02 42 0d 05    	or     %al,0x50d4202(%ebp)
 554:	78 c5                	js     51b <init_stdio+0x91>
 556:	0c 04                	or     $0x4,%al
 558:	04 00                	add    $0x0,%al
 55a:	00 00                	add    %al,(%eax)
 55c:	1c 00                	sbb    $0x0,%al
 55e:	00 00                	add    %al,(%eax)
 560:	e8 04 00 00 d0       	call   d0000569 <_end+0xcfffcf51>
 565:	15 00 00 7e 00       	adc    $0x7e0000,%eax
 56a:	00 00                	add    %al,(%eax)
 56c:	41                   	inc    %ecx
 56d:	0e                   	push   %cs
 56e:	08 85 02 42 0d 05    	or     %al,0x50d4202(%ebp)
 574:	02 7a c5             	add    -0x3b(%edx),%bh
 577:	0c 04                	or     $0x4,%al
 579:	04 00                	add    $0x0,%al
 57b:	00 1c 00             	add    %bl,(%eax,%eax,1)
 57e:	00 00                	add    %al,(%eax)
 580:	e8 04 00 00 4e       	call   4e000589 <_end+0x4dffcf71>
 585:	16                   	push   %ss
 586:	00 00                	add    %al,(%eax)
 588:	37                   	aaa
 589:	00 00                	add    %al,(%eax)
 58b:	00 41 0e             	add    %al,0xe(%ecx)
 58e:	08 85 02 42 0d 05    	or     %al,0x50d4202(%ebp)
 594:	73 c5                	jae    55b <vfprintf+0x2d>
 596:	0c 04                	or     $0x4,%al
 598:	04 00                	add    $0x0,%al
 59a:	00 00                	add    %al,(%eax)
 59c:	1c 00                	sbb    $0x0,%al
 59e:	00 00                	add    %al,(%eax)
 5a0:	e8 04 00 00 85       	call   850005a9 <_end+0x84ffcf91>
 5a5:	16                   	push   %ss
 5a6:	00 00                	add    %al,(%eax)
 5a8:	44                   	inc    %esp
 5a9:	00 00                	add    %al,(%eax)
 5ab:	00 41 0e             	add    %al,0xe(%ecx)
 5ae:	08 85 02 42 0d 05    	or     %al,0x50d4202(%ebp)
 5b4:	02 40 c5             	add    -0x3b(%eax),%al
 5b7:	0c 04                	or     $0x4,%al
 5b9:	04 00                	add    $0x0,%al
 5bb:	00 1c 00             	add    %bl,(%eax,%eax,1)
 5be:	00 00                	add    %al,(%eax)
 5c0:	e8 04 00 00 c9       	call   c90005c9 <_end+0xc8ffcfb1>
 5c5:	16                   	push   %ss
 5c6:	00 00                	add    %al,(%eax)
 5c8:	4f                   	dec    %edi
 5c9:	00 00                	add    %al,(%eax)
 5cb:	00 41 0e             	add    %al,0xe(%ecx)
 5ce:	08 85 02 42 0d 05    	or     %al,0x50d4202(%ebp)
 5d4:	02 4b c5             	add    -0x3b(%ebx),%cl
 5d7:	0c 04                	or     $0x4,%al
 5d9:	04 00                	add    $0x0,%al
 5db:	00 20                	add    %ah,(%eax)
 5dd:	00 00                	add    %al,(%eax)
 5df:	00 e8                	add    %ch,%al
 5e1:	04 00                	add    $0x0,%al
 5e3:	00 18                	add    %bl,(%eax)
 5e5:	17                   	pop    %ss
 5e6:	00 00                	add    %al,(%eax)
 5e8:	29 00                	sub    %eax,(%eax)
 5ea:	00 00                	add    %al,(%eax)
 5ec:	41                   	inc    %ecx
 5ed:	0e                   	push   %cs
 5ee:	08 85 02 42 0d 05    	or     %al,0x50d4202(%ebp)
 5f4:	44                   	inc    %esp
 5f5:	83 03 61             	addl   $0x61,(%ebx)
 5f8:	c5 c3 0c             	(bad)
 5fb:	04 04                	add    $0x4,%al
 5fd:	00 00                	add    %al,(%eax)
 5ff:	00 1c 00             	add    %bl,(%eax,%eax,1)
 602:	00 00                	add    %al,(%eax)
 604:	e8 04 00 00 41       	call   4100060d <_end+0x40ffcff5>
 609:	17                   	pop    %ss
 60a:	00 00                	add    %al,(%eax)
 60c:	3e 00 00             	add    %al,%ds:(%eax)
 60f:	00 41 0e             	add    %al,0xe(%ecx)
 612:	08 85 02 42 0d 05    	or     %al,0x50d4202(%ebp)
 618:	7a c5                	jp     5df <vfprintf+0xb1>
 61a:	0c 04                	or     $0x4,%al
 61c:	04 00                	add    $0x0,%al
 61e:	00 00                	add    %al,(%eax)
 620:	20 00                	and    %al,(%eax)
 622:	00 00                	add    %al,(%eax)
 624:	e8 04 00 00 7f       	call   7f00062d <_end+0x7effd015>
 629:	17                   	pop    %ss
 62a:	00 00                	add    %al,(%eax)
 62c:	59                   	pop    %ecx
 62d:	00 00                	add    %al,(%eax)
 62f:	00 41 0e             	add    %al,0xe(%ecx)
 632:	08 85 02 42 0d 05    	or     %al,0x50d4202(%ebp)
 638:	41                   	inc    %ecx
 639:	83 03 02             	addl   $0x2,(%ebx)
 63c:	54                   	push   %esp
 63d:	c5 c3 0c             	(bad)
 640:	04 04                	add    $0x4,%al
 642:	00 00                	add    %al,(%eax)
 644:	1c 00                	sbb    $0x0,%al
 646:	00 00                	add    %al,(%eax)
 648:	e8 04 00 00 d8       	call   d8000651 <_end+0xd7ffd039>
 64d:	17                   	pop    %ss
 64e:	00 00                	add    %al,(%eax)
 650:	2d 00 00 00 41       	sub    $0x41000000,%eax
 655:	0e                   	push   %cs
 656:	08 85 02 42 0d 05    	or     %al,0x50d4202(%ebp)
 65c:	69 c5 0c 04 04 00    	imul   $0x4040c,%ebp,%eax
 662:	00 00                	add    %al,(%eax)
 664:	20 00                	and    %al,(%eax)
 666:	00 00                	add    %al,(%eax)
 668:	e8 04 00 00 05       	call   5000671 <_end+0x4ffd059>
 66d:	18 00                	sbb    %al,(%eax)
 66f:	00 ac 00 00 00 41 0e 	add    %ch,0xe410000(%eax,%eax,1)
 676:	08 85 02 42 0d 05    	or     %al,0x50d4202(%ebp)
 67c:	44                   	inc    %esp
 67d:	83 03 02             	addl   $0x2,(%ebx)
 680:	a4                   	movsb  %ds:(%esi),%es:(%edi)
 681:	c5 c3 0c             	(bad)
 684:	04 04                	add    $0x4,%al
 686:	00 00                	add    %al,(%eax)
 688:	20 00                	and    %al,(%eax)
 68a:	00 00                	add    %al,(%eax)
 68c:	e8 04 00 00 b1       	call   b1000695 <_end+0xb0ffd07d>
 691:	18 00                	sbb    %al,(%eax)
 693:	00 fe                	add    %bh,%dh
 695:	01 00                	add    %eax,(%eax)
 697:	00 41 0e             	add    %al,0xe(%ecx)
 69a:	08 85 02 42 0d 05    	or     %al,0x50d4202(%ebp)
 6a0:	47                   	inc    %edi
 6a1:	83 03 03             	addl   $0x3,(%ebx)
 6a4:	f3 01 c5             	repz add %eax,%ebp
 6a7:	c3                   	ret
 6a8:	0c 04                	or     $0x4,%al
 6aa:	04 00                	add    $0x0,%al
 6ac:	20 00                	and    %al,(%eax)
 6ae:	00 00                	add    %al,(%eax)
 6b0:	e8 04 00 00 af       	call   af0006b9 <_end+0xaeffd0a1>
 6b5:	1a 00                	sbb    (%eax),%al
 6b7:	00 47 00             	add    %al,0x0(%edi)
 6ba:	00 00                	add    %al,(%eax)
 6bc:	41                   	inc    %ecx
 6bd:	0e                   	push   %cs
 6be:	08 85 02 42 0d 05    	or     %al,0x50d4202(%ebp)
 6c4:	44                   	inc    %esp
 6c5:	83 03 7f             	addl   $0x7f,(%ebx)
 6c8:	c5 c3 0c             	(bad)
 6cb:	04 04                	add    $0x4,%al
 6cd:	00 00                	add    %al,(%eax)
 6cf:	00 20                	add    %ah,(%eax)
 6d1:	00 00                	add    %al,(%eax)
 6d3:	00 e8                	add    %ch,%al
 6d5:	04 00                	add    $0x0,%al
 6d7:	00 f6                	add    %dh,%dh
 6d9:	1a 00                	sbb    (%eax),%al
 6db:	00 ed                	add    %ch,%ch
 6dd:	01 00                	add    %eax,(%eax)
 6df:	00 41 0e             	add    %al,0xe(%ecx)
 6e2:	08 85 02 42 0d 05    	or     %al,0x50d4202(%ebp)
 6e8:	47                   	inc    %edi
 6e9:	83 03 03             	addl   $0x3,(%ebx)
 6ec:	e2 01                	loop   6ef <fprintf+0xc>
 6ee:	c5 c3 0c             	(bad)
 6f1:	04 04                	add    $0x4,%al
 6f3:	00 1c 00             	add    %bl,(%eax,%eax,1)
 6f6:	00 00                	add    %al,(%eax)
 6f8:	e8 04 00 00 e3       	call   e3000701 <_end+0xe2ffd0e9>
 6fd:	1c 00                	sbb    $0x0,%al
 6ff:	00 67 01             	add    %ah,0x1(%edi)
 702:	00 00                	add    %al,(%eax)
 704:	41                   	inc    %ecx
 705:	0e                   	push   %cs
 706:	08 85 02 42 0d 05    	or     %al,0x50d4202(%ebp)
 70c:	03 63 01             	add    0x1(%ebx),%esp
 70f:	c5 0c 04             	lds    (%esp,%eax,1),%ecx
 712:	04 00                	add    $0x0,%al
 714:	1c 00                	sbb    $0x0,%al
 716:	00 00                	add    %al,(%eax)
 718:	e8 04 00 00 4a       	call   4a000721 <_end+0x49ffd109>
 71d:	1e                   	push   %ds
 71e:	00 00                	add    %al,(%eax)
 720:	6b 00 00             	imul   $0x0,(%eax),%eax
 723:	00 41 0e             	add    %al,0xe(%ecx)
 726:	08 85 02 42 0d 05    	or     %al,0x50d4202(%ebp)
 72c:	02 67 c5             	add    -0x3b(%edi),%ah
 72f:	0c 04                	or     $0x4,%al
 731:	04 00                	add    $0x0,%al
 733:	00 20                	add    %ah,(%eax)
 735:	00 00                	add    %al,(%eax)
 737:	00 e8                	add    %ch,%al
 739:	04 00                	add    $0x0,%al
 73b:	00 b5 1e 00 00 74    	add    %dh,0x7400001e(%ebp)
 741:	00 00                	add    %al,(%eax)
 743:	00 41 0e             	add    %al,0xe(%ecx)
 746:	08 85 02 42 0d 05    	or     %al,0x50d4202(%ebp)
 74c:	44                   	inc    %esp
 74d:	83 03 02             	addl   $0x2,(%ebx)
 750:	6c                   	insb   (%dx),%es:(%edi)
 751:	c5 c3 0c             	(bad)
 754:	04 04                	add    $0x4,%al
 756:	00 00                	add    %al,(%eax)
 758:	0c 00                	or     $0x0,%al
 75a:	00 00                	add    %al,(%eax)
 75c:	e8 04 00 00 db       	call   db000765 <_end+0xdaffd14d>
 761:	0e                   	push   %cs
 762:	00 00                	add    %al,(%eax)
 764:	04 00                	add    $0x0,%al
 766:	00 00                	add    %al,(%eax)
 768:	0c 00                	or     $0x0,%al
 76a:	00 00                	add    %al,(%eax)
 76c:	e8 04 00 00 df       	call   df000775 <_end+0xdeffd15d>
 771:	0e                   	push   %cs
 772:	00 00                	add    %al,(%eax)
 774:	04 00                	add    $0x0,%al
 776:	00 00                	add    %al,(%eax)
 778:	10 00                	adc    %al,(%eax)
 77a:	00 00                	add    %al,(%eax)
 77c:	ff                   	(bad)
 77d:	ff                   	(bad)
 77e:	ff                   	(bad)
 77f:	ff 01                	incl   (%ecx)
 781:	00 01                	add    %al,(%ecx)
 783:	7c 08                	jl     78d <fputs+0x21>
 785:	0c 04                	or     $0x4,%al
 787:	04 88                	add    $0x88,%al
 789:	01 00                	add    %eax,(%eax)
 78b:	00 20                	add    %ah,(%eax)
 78d:	00 00                	add    %al,(%eax)
 78f:	00 78 07             	add    %bh,0x7(%eax)
 792:	00 00                	add    %al,(%eax)
 794:	29 1f                	sub    %ebx,(%edi)
 796:	00 00                	add    %al,(%eax)
 798:	24 00                	and    $0x0,%al
 79a:	00 00                	add    %al,(%eax)
 79c:	41                   	inc    %ecx
 79d:	0e                   	push   %cs
 79e:	08 85 02 42 0d 05    	or     %al,0x50d4202(%ebp)
 7a4:	41                   	inc    %ecx
 7a5:	83 03 5f             	addl   $0x5f,(%ebx)
 7a8:	c5 c3 0c             	(bad)
 7ab:	04 04                	add    $0x4,%al
 7ad:	00 00                	add    %al,(%eax)
 7af:	00 20                	add    %ah,(%eax)
 7b1:	00 00                	add    %al,(%eax)
 7b3:	00 78 07             	add    %bh,0x7(%eax)
 7b6:	00 00                	add    %al,(%eax)
 7b8:	4d                   	dec    %ebp
 7b9:	1f                   	pop    %ds
 7ba:	00 00                	add    %al,(%eax)
 7bc:	20 00                	and    %al,(%eax)
 7be:	00 00                	add    %al,(%eax)
 7c0:	41                   	inc    %ecx
 7c1:	0e                   	push   %cs
 7c2:	08 85 02 42 0d 05    	or     %al,0x50d4202(%ebp)
 7c8:	41                   	inc    %ecx
 7c9:	83 03 5b             	addl   $0x5b,(%ebx)
 7cc:	c5 c3 0c             	(bad)
 7cf:	04 04                	add    $0x4,%al
 7d1:	00 00                	add    %al,(%eax)
 7d3:	00 20                	add    %ah,(%eax)
 7d5:	00 00                	add    %al,(%eax)
 7d7:	00 78 07             	add    %bh,0x7(%eax)
 7da:	00 00                	add    %al,(%eax)
 7dc:	6d                   	insl   (%dx),%es:(%edi)
 7dd:	1f                   	pop    %ds
 7de:	00 00                	add    %al,(%eax)
 7e0:	29 00                	sub    %eax,(%eax)
 7e2:	00 00                	add    %al,(%eax)
 7e4:	41                   	inc    %ecx
 7e5:	0e                   	push   %cs
 7e6:	08 85 02 42 0d 05    	or     %al,0x50d4202(%ebp)
 7ec:	41                   	inc    %ecx
 7ed:	83 03 64             	addl   $0x64,(%ebx)
 7f0:	c5 c3 0c             	(bad)
 7f3:	04 04                	add    $0x4,%al
 7f5:	00 00                	add    %al,(%eax)
 7f7:	00 20                	add    %ah,(%eax)
 7f9:	00 00                	add    %al,(%eax)
 7fb:	00 78 07             	add    %bh,0x7(%eax)
 7fe:	00 00                	add    %al,(%eax)
 800:	96                   	xchg   %eax,%esi
 801:	1f                   	pop    %ds
 802:	00 00                	add    %al,(%eax)
 804:	29 00                	sub    %eax,(%eax)
 806:	00 00                	add    %al,(%eax)
 808:	41                   	inc    %ecx
 809:	0e                   	push   %cs
 80a:	08 85 02 42 0d 05    	or     %al,0x50d4202(%ebp)
 810:	41                   	inc    %ecx
 811:	83 03 64             	addl   $0x64,(%ebx)
 814:	c5 c3 0c             	(bad)
 817:	04 04                	add    $0x4,%al
 819:	00 00                	add    %al,(%eax)
 81b:	00 20                	add    %ah,(%eax)
 81d:	00 00                	add    %al,(%eax)
 81f:	00 78 07             	add    %bh,0x7(%eax)
 822:	00 00                	add    %al,(%eax)
 824:	bf 1f 00 00 29       	mov    $0x2900001f,%edi
 829:	00 00                	add    %al,(%eax)
 82b:	00 41 0e             	add    %al,0xe(%ecx)
 82e:	08 85 02 42 0d 05    	or     %al,0x50d4202(%ebp)
 834:	41                   	inc    %ecx
 835:	83 03 64             	addl   $0x64,(%ebx)
 838:	c5 c3 0c             	(bad)
 83b:	04 04                	add    $0x4,%al
 83d:	00 00                	add    %al,(%eax)
 83f:	00 20                	add    %ah,(%eax)
 841:	00 00                	add    %al,(%eax)
 843:	00 78 07             	add    %bh,0x7(%eax)
 846:	00 00                	add    %al,(%eax)
 848:	e8 1f 00 00 1f       	call   1f00086c <_end+0x1effd254>
 84d:	00 00                	add    %al,(%eax)
 84f:	00 41 0e             	add    %al,0xe(%ecx)
 852:	08 85 02 42 0d 05    	or     %al,0x50d4202(%ebp)
 858:	41                   	inc    %ecx
 859:	83 03 5a             	addl   $0x5a,(%ebx)
 85c:	c5 c3 0c             	(bad)
 85f:	04 04                	add    $0x4,%al
 861:	00 00                	add    %al,(%eax)
 863:	00 20                	add    %ah,(%eax)
 865:	00 00                	add    %al,(%eax)
 867:	00 78 07             	add    %bh,0x7(%eax)
 86a:	00 00                	add    %al,(%eax)
 86c:	07                   	pop    %es
 86d:	20 00                	and    %al,(%eax)
 86f:	00 22                	add    %ah,(%edx)
 871:	00 00                	add    %al,(%eax)
 873:	00 41 0e             	add    %al,0xe(%ecx)
 876:	08 85 02 42 0d 05    	or     %al,0x50d4202(%ebp)
 87c:	41                   	inc    %ecx
 87d:	83 03 5d             	addl   $0x5d,(%ebx)
 880:	c5 c3 0c             	(bad)
 883:	04 04                	add    $0x4,%al
 885:	00 00                	add    %al,(%eax)
 887:	00 0c 00             	add    %cl,(%eax,%eax,1)
 88a:	00 00                	add    %al,(%eax)
 88c:	78 07                	js     895 <fopen+0x8b>
 88e:	00 00                	add    %al,(%eax)
 890:	db 0e                	fisttpl (%esi)
 892:	00 00                	add    %al,(%eax)
 894:	04 00                	add    $0x0,%al
 896:	00 00                	add    %al,(%eax)
 898:	10 00                	adc    %al,(%eax)
 89a:	00 00                	add    %al,(%eax)
 89c:	ff                   	(bad)
 89d:	ff                   	(bad)
 89e:	ff                   	(bad)
 89f:	ff 01                	incl   (%ecx)
 8a1:	00 01                	add    %al,(%ecx)
 8a3:	7c 08                	jl     8ad <fopen+0xa3>
 8a5:	0c 04                	or     $0x4,%al
 8a7:	04 88                	add    $0x88,%al
 8a9:	01 00                	add    %eax,(%eax)
 8ab:	00 20                	add    %ah,(%eax)
 8ad:	00 00                	add    %al,(%eax)
 8af:	00 98 08 00 00 29    	add    %bl,0x29000008(%eax)
 8b5:	20 00                	and    %al,(%eax)
 8b7:	00 1d 00 00 00 41    	add    %bl,0x41000000
 8bd:	0e                   	push   %cs
 8be:	08 85 02 42 0d 05    	or     %al,0x50d4202(%ebp)
 8c4:	41                   	inc    %ecx
 8c5:	83 03 58             	addl   $0x58,(%ebx)
 8c8:	c5 c3 0c             	(bad)
 8cb:	04 04                	add    $0x4,%al
 8cd:	00 00                	add    %al,(%eax)
 8cf:	00 20                	add    %ah,(%eax)
 8d1:	00 00                	add    %al,(%eax)
 8d3:	00 98 08 00 00 46    	add    %bl,0x46000008(%eax)
 8d9:	20 00                	and    %al,(%eax)
 8db:	00 23                	add    %ah,(%ebx)
 8dd:	00 00                	add    %al,(%eax)
 8df:	00 41 0e             	add    %al,0xe(%ecx)
 8e2:	08 85 02 42 0d 05    	or     %al,0x50d4202(%ebp)
 8e8:	41                   	inc    %ecx
 8e9:	83 03 5e             	addl   $0x5e,(%ebx)
 8ec:	c5 c3 0c             	(bad)
 8ef:	04 04                	add    $0x4,%al
 8f1:	00 00                	add    %al,(%eax)
 8f3:	00 20                	add    %ah,(%eax)
 8f5:	00 00                	add    %al,(%eax)
 8f7:	00 98 08 00 00 69    	add    %bl,0x69000008(%eax)
 8fd:	20 00                	and    %al,(%eax)
 8ff:	00 45 00             	add    %al,0x0(%ebp)
 902:	00 00                	add    %al,(%eax)
 904:	41                   	inc    %ecx
 905:	0e                   	push   %cs
 906:	08 85 02 42 0d 05    	or     %al,0x50d4202(%ebp)
 90c:	44                   	inc    %esp
 90d:	83 03 7b             	addl   $0x7b,(%ebx)
 910:	c5 c3 0c             	(bad)
 913:	04 04                	add    $0x4,%al
 915:	00 00                	add    %al,(%eax)
 917:	00 0c 00             	add    %cl,(%eax,%eax,1)
 91a:	00 00                	add    %al,(%eax)
 91c:	98                   	cwtl
 91d:	08 00                	or     %al,(%eax)
 91f:	00 db                	add    %bl,%bl
 921:	0e                   	push   %cs
 922:	00 00                	add    %al,(%eax)
 924:	04 00                	add    $0x0,%al
 926:	00 00                	add    %al,(%eax)
 928:	10 00                	adc    %al,(%eax)
 92a:	00 00                	add    %al,(%eax)
 92c:	ff                   	(bad)
 92d:	ff                   	(bad)
 92e:	ff                   	(bad)
 92f:	ff 01                	incl   (%ecx)
 931:	00 01                	add    %al,(%ecx)
 933:	7c 08                	jl     93d <fclose+0x7c>
 935:	0c 04                	or     $0x4,%al
 937:	04 88                	add    $0x88,%al
 939:	01 00                	add    %eax,(%eax)
 93b:	00 20                	add    %ah,(%eax)
 93d:	00 00                	add    %al,(%eax)
 93f:	00 28                	add    %ch,(%eax)
 941:	09 00                	or     %eax,(%eax)
 943:	00 ae 20 00 00 2a    	add    %ch,0x2a000020(%esi)
 949:	00 00                	add    %al,(%eax)
 94b:	00 41 0e             	add    %al,0xe(%ecx)
 94e:	08 85 02 42 0d 05    	or     %al,0x50d4202(%ebp)
 954:	41                   	inc    %ecx
 955:	83 03 65             	addl   $0x65,(%ebx)
 958:	c5 c3 0c             	(bad)
 95b:	04 04                	add    $0x4,%al
 95d:	00 00                	add    %al,(%eax)
 95f:	00 20                	add    %ah,(%eax)
 961:	00 00                	add    %al,(%eax)
 963:	00 28                	add    %ch,(%eax)
 965:	09 00                	or     %eax,(%eax)
 967:	00 d8                	add    %bl,%al
 969:	20 00                	and    %al,(%eax)
 96b:	00 1e                	add    %bl,(%esi)
 96d:	00 00                	add    %al,(%eax)
 96f:	00 41 0e             	add    %al,0xe(%ecx)
 972:	08 85 02 42 0d 05    	or     %al,0x50d4202(%ebp)
 978:	41                   	inc    %ecx
 979:	83 03 59             	addl   $0x59,(%ebx)
 97c:	c5 c3 0c             	(bad)
 97f:	04 04                	add    $0x4,%al
 981:	00 00                	add    %al,(%eax)
 983:	00 1c 00             	add    %bl,(%eax,%eax,1)
 986:	00 00                	add    %al,(%eax)
 988:	28 09                	sub    %cl,(%ecx)
 98a:	00 00                	add    %al,(%eax)
 98c:	f6 20                	mulb   (%eax)
 98e:	00 00                	add    %al,(%eax)
 990:	17                   	pop    %ss
 991:	00 00                	add    %al,(%eax)
 993:	00 41 0e             	add    %al,0xe(%ecx)
 996:	08 85 02 42 0d 05    	or     %al,0x50d4202(%ebp)
 99c:	53                   	push   %ebx
 99d:	c5 0c 04             	lds    (%esp,%eax,1),%ecx
 9a0:	04 00                	add    $0x0,%al
 9a2:	00 00                	add    %al,(%eax)
 9a4:	20 00                	and    %al,(%eax)
 9a6:	00 00                	add    %al,(%eax)
 9a8:	28 09                	sub    %cl,(%ecx)
 9aa:	00 00                	add    %al,(%eax)
 9ac:	0d 21 00 00 20       	or     $0x20000021,%eax
 9b1:	00 00                	add    %al,(%eax)
 9b3:	00 41 0e             	add    %al,0xe(%ecx)
 9b6:	08 85 02 42 0d 05    	or     %al,0x50d4202(%ebp)
 9bc:	41                   	inc    %ecx
 9bd:	83 03 5b             	addl   $0x5b,(%ebx)
 9c0:	c5 c3 0c             	(bad)
 9c3:	04 04                	add    $0x4,%al
 9c5:	00 00                	add    %al,(%eax)
 9c7:	00 20                	add    %ah,(%eax)
 9c9:	00 00                	add    %al,(%eax)
 9cb:	00 28                	add    %ch,(%eax)
 9cd:	09 00                	or     %eax,(%eax)
 9cf:	00 2d 21 00 00 25    	add    %ch,0x25000021
 9d5:	00 00                	add    %al,(%eax)
 9d7:	00 41 0e             	add    %al,0xe(%ecx)
 9da:	08 85 02 42 0d 05    	or     %al,0x50d4202(%ebp)
 9e0:	41                   	inc    %ecx
 9e1:	83 03 60             	addl   $0x60,(%ebx)
 9e4:	c5 c3 0c             	(bad)
 9e7:	04 04                	add    $0x4,%al
 9e9:	00 00                	add    %al,(%eax)
 9eb:	00 0c 00             	add    %cl,(%eax,%eax,1)
 9ee:	00 00                	add    %al,(%eax)
 9f0:	28 09                	sub    %cl,(%ecx)
 9f2:	00 00                	add    %al,(%eax)
 9f4:	db 0e                	fisttpl (%esi)
 9f6:	00 00                	add    %al,(%eax)
 9f8:	04 00                	add    $0x0,%al
 9fa:	00 00                	add    %al,(%eax)
 9fc:	10 00                	adc    %al,(%eax)
 9fe:	00 00                	add    %al,(%eax)
 a00:	ff                   	(bad)
 a01:	ff                   	(bad)
 a02:	ff                   	(bad)
 a03:	ff 01                	incl   (%ecx)
 a05:	00 01                	add    %al,(%ecx)
 a07:	7c 08                	jl     a11 <fread+0x47>
 a09:	0c 04                	or     $0x4,%al
 a0b:	04 88                	add    $0x88,%al
 a0d:	01 00                	add    %eax,(%eax)
 a0f:	00 20                	add    %ah,(%eax)
 a11:	00 00                	add    %al,(%eax)
 a13:	00 fc                	add    %bh,%ah
 a15:	09 00                	or     %eax,(%eax)
 a17:	00 52 21             	add    %dl,0x21(%edx)
 a1a:	00 00                	add    %al,(%eax)
 a1c:	66 00 00             	data16 add %al,(%eax)
 a1f:	00 41 0e             	add    %al,0xe(%ecx)
 a22:	08 85 02 42 0d 05    	or     %al,0x50d4202(%ebp)
 a28:	44                   	inc    %esp
 a29:	83 03 02             	addl   $0x2,(%ebx)
 a2c:	5e                   	pop    %esi
 a2d:	c5 c3 0c             	(bad)
 a30:	04 04                	add    $0x4,%al
 a32:	00 00                	add    %al,(%eax)
 a34:	20 00                	and    %al,(%eax)
 a36:	00 00                	add    %al,(%eax)
 a38:	fc                   	cld
 a39:	09 00                	or     %eax,(%eax)
 a3b:	00 b8 21 00 00 41    	add    %bh,0x41000021(%eax)
 a41:	00 00                	add    %al,(%eax)
 a43:	00 41 0e             	add    %al,0xe(%ecx)
 a46:	08 85 02 42 0d 05    	or     %al,0x50d4202(%ebp)
 a4c:	44                   	inc    %esp
 a4d:	83 03 79             	addl   $0x79,(%ebx)
 a50:	c5 c3 0c             	(bad)
 a53:	04 04                	add    $0x4,%al
 a55:	00 00                	add    %al,(%eax)
 a57:	00 20                	add    %ah,(%eax)
 a59:	00 00                	add    %al,(%eax)
 a5b:	00 fc                	add    %bh,%ah
 a5d:	09 00                	or     %eax,(%eax)
 a5f:	00 f9                	add    %bh,%cl
 a61:	21 00                	and    %eax,(%eax)
 a63:	00 3d 00 00 00 41    	add    %bh,0x41000000
 a69:	0e                   	push   %cs
 a6a:	08 85 02 42 0d 05    	or     %al,0x50d4202(%ebp)
 a70:	44                   	inc    %esp
 a71:	83 03 75             	addl   $0x75,(%ebx)
 a74:	c5 c3 0c             	(bad)
 a77:	04 04                	add    $0x4,%al
 a79:	00 00                	add    %al,(%eax)
 a7b:	00 20                	add    %ah,(%eax)
 a7d:	00 00                	add    %al,(%eax)
 a7f:	00 fc                	add    %bh,%ah
 a81:	09 00                	or     %eax,(%eax)
 a83:	00 36                	add    %dh,(%esi)
 a85:	22 00                	and    (%eax),%al
 a87:	00 43 00             	add    %al,0x0(%ebx)
 a8a:	00 00                	add    %al,(%eax)
 a8c:	41                   	inc    %ecx
 a8d:	0e                   	push   %cs
 a8e:	08 85 02 42 0d 05    	or     %al,0x50d4202(%ebp)
 a94:	44                   	inc    %esp
 a95:	83 03 7b             	addl   $0x7b,(%ebx)
 a98:	c5 c3 0c             	(bad)
 a9b:	04 04                	add    $0x4,%al
 a9d:	00 00                	add    %al,(%eax)
 a9f:	00 20                	add    %ah,(%eax)
 aa1:	00 00                	add    %al,(%eax)
 aa3:	00 fc                	add    %bh,%ah
 aa5:	09 00                	or     %eax,(%eax)
 aa7:	00 79 22             	add    %bh,0x22(%ecx)
 aaa:	00 00                	add    %al,(%eax)
 aac:	3d 00 00 00 41       	cmp    $0x41000000,%eax
 ab1:	0e                   	push   %cs
 ab2:	08 85 02 42 0d 05    	or     %al,0x50d4202(%ebp)
 ab8:	44                   	inc    %esp
 ab9:	83 03 75             	addl   $0x75,(%ebx)
 abc:	c5 c3 0c             	(bad)
 abf:	04 04                	add    $0x4,%al
 ac1:	00 00                	add    %al,(%eax)
 ac3:	00 20                	add    %ah,(%eax)
 ac5:	00 00                	add    %al,(%eax)
 ac7:	00 fc                	add    %bh,%ah
 ac9:	09 00                	or     %eax,(%eax)
 acb:	00 b6 22 00 00 40    	add    %dh,0x40000022(%esi)
 ad1:	00 00                	add    %al,(%eax)
 ad3:	00 41 0e             	add    %al,0xe(%ecx)
 ad6:	08 85 02 42 0d 05    	or     %al,0x50d4202(%ebp)
 adc:	44                   	inc    %esp
 add:	83 03 78             	addl   $0x78,(%ebx)
 ae0:	c5 c3 0c             	(bad)
 ae3:	04 04                	add    $0x4,%al
 ae5:	00 00                	add    %al,(%eax)
 ae7:	00 20                	add    %ah,(%eax)
 ae9:	00 00                	add    %al,(%eax)
 aeb:	00 fc                	add    %bh,%ah
 aed:	09 00                	or     %eax,(%eax)
 aef:	00 f6                	add    %dh,%dh
 af1:	22 00                	and    (%eax),%al
 af3:	00 54 00 00          	add    %dl,0x0(%eax,%eax,1)
 af7:	00 41 0e             	add    %al,0xe(%ecx)
 afa:	08 85 02 42 0d 05    	or     %al,0x50d4202(%ebp)
 b00:	44                   	inc    %esp
 b01:	83 03 02             	addl   $0x2,(%ebx)
 b04:	4c                   	dec    %esp
 b05:	c5 c3 0c             	(bad)
 b08:	04 04                	add    $0x4,%al
 b0a:	00 00                	add    %al,(%eax)
 b0c:	20 00                	and    %al,(%eax)
 b0e:	00 00                	add    %al,(%eax)
 b10:	fc                   	cld
 b11:	09 00                	or     %eax,(%eax)
 b13:	00 4a 23             	add    %cl,0x23(%edx)
 b16:	00 00                	add    %al,(%eax)
 b18:	3d 00 00 00 41       	cmp    $0x41000000,%eax
 b1d:	0e                   	push   %cs
 b1e:	08 85 02 42 0d 05    	or     %al,0x50d4202(%ebp)
 b24:	44                   	inc    %esp
 b25:	83 03 75             	addl   $0x75,(%ebx)
 b28:	c5 c3 0c             	(bad)
 b2b:	04 04                	add    $0x4,%al
 b2d:	00 00                	add    %al,(%eax)
 b2f:	00 0c 00             	add    %cl,(%eax,%eax,1)
 b32:	00 00                	add    %al,(%eax)
 b34:	fc                   	cld
 b35:	09 00                	or     %eax,(%eax)
 b37:	00 df                	add    %bl,%bh
 b39:	0e                   	push   %cs
 b3a:	00 00                	add    %al,(%eax)
 b3c:	04 00                	add    $0x0,%al
 b3e:	00 00                	add    %al,(%eax)
 b40:	10 00                	adc    %al,(%eax)
 b42:	00 00                	add    %al,(%eax)
 b44:	ff                   	(bad)
 b45:	ff                   	(bad)
 b46:	ff                   	(bad)
 b47:	ff 01                	incl   (%ecx)
 b49:	00 01                	add    %al,(%ecx)
 b4b:	7c 08                	jl     b55 <fseek+0x3b>
 b4d:	0c 04                	or     $0x4,%al
 b4f:	04 88                	add    $0x88,%al
 b51:	01 00                	add    %eax,(%eax)
 b53:	00 1c 00             	add    %bl,(%eax,%eax,1)
 b56:	00 00                	add    %al,(%eax)
 b58:	40                   	inc    %eax
 b59:	0b 00                	or     (%eax),%eax
 b5b:	00 87 23 00 00 27    	add    %al,0x27000023(%edi)
 b61:	00 00                	add    %al,(%eax)
 b63:	00 41 0e             	add    %al,0xe(%ecx)
 b66:	08 85 02 42 0d 05    	or     %al,0x50d4202(%ebp)
 b6c:	63 c5                	arpl   %eax,%ebp
 b6e:	0c 04                	or     $0x4,%al
 b70:	04 00                	add    $0x0,%al
 b72:	00 00                	add    %al,(%eax)
 b74:	1c 00                	sbb    $0x0,%al
 b76:	00 00                	add    %al,(%eax)
 b78:	40                   	inc    %eax
 b79:	0b 00                	or     (%eax),%eax
 b7b:	00 ae 23 00 00 33    	add    %ch,0x33000023(%esi)
 b81:	00 00                	add    %al,(%eax)
 b83:	00 41 0e             	add    %al,0xe(%ecx)
 b86:	08 85 02 42 0d 05    	or     %al,0x50d4202(%ebp)
 b8c:	6f                   	outsl  %ds:(%esi),(%dx)
 b8d:	c5 0c 04             	lds    (%esp,%eax,1),%ecx
 b90:	04 00                	add    $0x0,%al
 b92:	00 00                	add    %al,(%eax)
 b94:	1c 00                	sbb    $0x0,%al
 b96:	00 00                	add    %al,(%eax)
 b98:	40                   	inc    %eax
 b99:	0b 00                	or     (%eax),%eax
 b9b:	00 e1                	add    %ah,%cl
 b9d:	23 00                	and    (%eax),%eax
 b9f:	00 27                	add    %ah,(%edi)
 ba1:	00 00                	add    %al,(%eax)
 ba3:	00 41 0e             	add    %al,0xe(%ecx)
 ba6:	08 85 02 42 0d 05    	or     %al,0x50d4202(%ebp)
 bac:	63 c5                	arpl   %eax,%ebp
 bae:	0c 04                	or     $0x4,%al
 bb0:	04 00                	add    $0x0,%al
 bb2:	00 00                	add    %al,(%eax)
 bb4:	1c 00                	sbb    $0x0,%al
 bb6:	00 00                	add    %al,(%eax)
 bb8:	40                   	inc    %eax
 bb9:	0b 00                	or     (%eax),%eax
 bbb:	00 08                	add    %cl,(%eax)
 bbd:	24 00                	and    $0x0,%al
 bbf:	00 26                	add    %ah,(%esi)
 bc1:	00 00                	add    %al,(%eax)
 bc3:	00 41 0e             	add    %al,0xe(%ecx)
 bc6:	08 85 02 42 0d 05    	or     %al,0x50d4202(%ebp)
 bcc:	62 c5 0c 04 04       	(bad)
 bd1:	00 00                	add    %al,(%eax)
 bd3:	00 1c 00             	add    %bl,(%eax,%eax,1)
 bd6:	00 00                	add    %al,(%eax)
 bd8:	40                   	inc    %eax
 bd9:	0b 00                	or     (%eax),%eax
 bdb:	00 2e                	add    %ch,(%esi)
 bdd:	24 00                	and    $0x0,%al
 bdf:	00 26                	add    %ah,(%esi)
 be1:	00 00                	add    %al,(%eax)
 be3:	00 41 0e             	add    %al,0xe(%ecx)
 be6:	08 85 02 42 0d 05    	or     %al,0x50d4202(%ebp)
 bec:	62 c5 0c 04 04       	(bad)
 bf1:	00 00                	add    %al,(%eax)
 bf3:	00 0c 00             	add    %cl,(%eax,%eax,1)
 bf6:	00 00                	add    %al,(%eax)
 bf8:	40                   	inc    %eax
 bf9:	0b 00                	or     (%eax),%eax
 bfb:	00 db                	add    %bl,%bl
 bfd:	0e                   	push   %cs
 bfe:	00 00                	add    %al,(%eax)
 c00:	04 00                	add    $0x0,%al
	...

Disassembly of section .debug_str:

00000000 <.debug_str>:
   0:	73 74                	jae    76 <_init+0x2>
   2:	72 65                	jb     69 <_init-0xb>
   4:	61                   	popa
   5:	6d                   	insl   (%dx),%es:(%edi)
   6:	00 73 69             	add    %dh,0x69(%ebx)
   9:	7a 65                	jp     70 <_init-0x4>
   b:	5f                   	pop    %edi
   c:	74 00                	je     e <_init-0x66>
   e:	5f                   	pop    %edi
   f:	5f                   	pop    %edi
  10:	62 75 69             	bound  %esi,0x69(%ebp)
  13:	6c                   	insb   (%dx),%es:(%edi)
  14:	74 69                	je     7f <_init+0xb>
  16:	6e                   	outsb  %ds:(%esi),(%dx)
  17:	5f                   	pop    %edi
  18:	76 61                	jbe    7b <_init+0x7>
  1a:	5f                   	pop    %edi
  1b:	6c                   	insb   (%dx),%es:(%edi)
  1c:	69 73 74 00 6e 5f 77 	imul   $0x775f6e00,0x74(%ebx),%esi
  23:	72 6f                	jb     94 <_start+0x10>
  25:	74 65                	je     8c <_start+0x8>
  27:	00 77 62             	add    %dh,0x62(%edi)
  2a:	75 66                	jne    92 <_start+0xe>
  2c:	00 6c 73 65          	add    %ch,0x65(%ebx,%esi,2)
  30:	65 6b 00 73          	imul   $0x73,%gs:(%eax),%eax
  34:	6e                   	outsb  %ds:(%esi),(%dx)
  35:	70 72                	jo     a9 <_start+0x25>
  37:	69 6e 74 66 00 66 70 	imul   $0x70660066,0x74(%esi),%ebp
  3e:	75 74                	jne    b4 <_start+0x30>
  40:	73 00                	jae    42 <_init-0x32>
  42:	66 74 65             	data16 je aa <_start+0x26>
  45:	6c                   	insb   (%dx),%es:(%edi)
  46:	6c                   	insb   (%dx),%es:(%edi)
  47:	00 46 49             	add    %al,0x49(%esi)
  4a:	4c                   	dec    %esp
  4b:	45                   	inc    %ebp
  4c:	5f                   	pop    %edi
  4d:	66 64 00 46 49       	data16 add %al,%fs:0x49(%esi)
  52:	4c                   	dec    %esp
  53:	45                   	inc    %ebp
  54:	00 73 74             	add    %dh,0x74(%ebx)
  57:	72 6c                	jb     c5 <deregister_tm_clones+0xd>
  59:	65 6e                	outsb  %gs:(%esi),(%dx)
  5b:	00 66 73             	add    %ah,0x73(%esi)
  5e:	65 65 6b 00 6f       	gs imul $0x6f,%gs:(%eax),%eax
  63:	70 65                	jo     ca <deregister_tm_clones+0x12>
  65:	6e                   	outsb  %ds:(%esi),(%dx)
  66:	46                   	inc    %esi
  67:	69 6c 65 73 00 6f 66 	imul   $0x66666f00,0x73(%ebp,%eiz,2),%ebp
  6e:	66 
  6f:	73 65                	jae    d6 <deregister_tm_clones+0x1e>
  71:	74 00                	je     73 <_init-0x1>
  73:	69 74 6f 61 00 73 68 	imul   $0x6f687300,0x61(%edi,%ebp,2),%esi
  7a:	6f 
  7b:	72 74                	jb     f1 <register_tm_clones+0xd>
  7d:	20 75 6e             	and    %dh,0x6e(%ebp)
  80:	73 69                	jae    eb <register_tm_clones+0x7>
  82:	67 6e                	outsb  %ds:(%si),(%dx)
  84:	65 64 20 69 6e       	gs and %ch,%fs:0x6e(%ecx)
  89:	74 00                	je     8b <_start+0x7>
  8b:	66 77 72             	data16 ja 100 <register_tm_clones+0x1c>
  8e:	69 74 65 00 6c 69 73 	imul   $0x7473696c,0x0(%ebp,%eiz,2),%esi
  95:	74 
  96:	70 64                	jo     fc <register_tm_clones+0x18>
  98:	00 70 75             	add    %dh,0x75(%eax)
  9b:	74 63                	je     100 <register_tm_clones+0x1c>
  9d:	68 61 72 00 73       	push   $0x73007261
  a2:	5f                   	pop    %edi
  a3:	61                   	popa
  a4:	72 67                	jb     10d <register_tm_clones+0x29>
  a6:	00 6e 74             	add    %ch,0x74(%esi)
  a9:	6f                   	outsl  %ds:(%esi),(%dx)
  aa:	6b 00 6d             	imul   $0x6d,(%eax),%eax
  ad:	65 6d                	gs insl (%dx),%es:(%edi)
  af:	73 65                	jae    116 <register_tm_clones+0x32>
  b1:	74 00                	je     b3 <_start+0x2f>
  b3:	64 6f                	outsl  %fs:(%esi),(%dx)
  b5:	75 62                	jne    119 <register_tm_clones+0x35>
  b7:	6c                   	insb   (%dx),%es:(%edi)
  b8:	65 00 66 6f          	add    %ah,%gs:0x6f(%esi)
  bc:	70 65                	jo     123 <__do_global_dtors_aux+0x7>
  be:	6e                   	outsb  %ds:(%esi),(%dx)
  bf:	00 69 6e             	add    %ch,0x6e(%ecx)
  c2:	69 74 5f 73 74 64 69 	imul   $0x6f696474,0x73(%edi,%ebx,2),%esi
  c9:	6f 
  ca:	00 66 65             	add    %ah,0x65(%esi)
  cd:	6f                   	outsl  %ds:(%esi),(%dx)
  ce:	66 00 6e 73          	data16 add %ch,0x73(%esi)
  d2:	74 65                	je     139 <__do_global_dtors_aux+0x1d>
  d4:	70 00                	jo     d6 <deregister_tm_clones+0x1e>
  d6:	66 6f                	outsw  %ds:(%esi),(%dx)
  d8:	72 6d                	jb     147 <__do_global_dtors_aux+0x2b>
  da:	61                   	popa
  db:	74 00                	je     dd <deregister_tm_clones+0x25>
  dd:	6e                   	outsb  %ds:(%esi),(%dx)
  de:	5f                   	pop    %edi
  df:	72 65                	jb     146 <__do_global_dtors_aux+0x2a>
  e1:	61                   	popa
  e2:	64 00 6d 61          	add    %ch,%fs:0x61(%ebp)
  e6:	74 63                	je     14b <__do_global_dtors_aux+0x2f>
  e8:	68 69 6e 67 5f       	push   $0x5f676e69
  ed:	69 64 78 00 66 72 65 	imul   $0x6f657266,0x0(%eax,%edi,2),%esp
  f4:	6f 
  f5:	70 65                	jo     15c <__do_global_dtors_aux+0x40>
  f7:	6e                   	outsb  %ds:(%esi),(%dx)
  f8:	00 66 69             	add    %ah,0x69(%esi)
  fb:	6c                   	insb   (%dx),%es:(%edi)
  fc:	65 5f                	gs pop %edi
  fe:	74 79                	je     179 <__do_global_dtors_aux+0x5d>
 100:	70 65                	jo     167 <__do_global_dtors_aux+0x4b>
 102:	00 6d 6f             	add    %ch,0x6f(%ebp)
 105:	64 65 00 77 68       	fs add %dh,%gs:0x68(%edi)
 10a:	65 6e                	outsb  %gs:(%esi),(%dx)
 10c:	63 65 00             	arpl   %esp,0x0(%ebp)
 10f:	70 61                	jo     172 <__do_global_dtors_aux+0x56>
 111:	74 68                	je     17b <__do_global_dtors_aux+0x5f>
 113:	6e                   	outsb  %ds:(%esi),(%dx)
 114:	61                   	popa
 115:	6d                   	insl   (%dx),%es:(%edi)
 116:	65 00 66 69          	add    %ah,%gs:0x69(%esi)
 11a:	6c                   	insb   (%dx),%es:(%edi)
 11b:	65 4c                	gs dec %esp
 11d:	69 73 74 69 6e 67 00 	imul   $0x676e69,0x74(%ebx),%esi
 124:	66 63 6c 6f 73       	arpl   %bp,0x73(%edi,%ebp,2)
 129:	65 00 66 70          	add    %ah,%gs:0x70(%esi)
 12d:	75 74                	jne    1a3 <frame_dummy+0x17>
 12f:	63 00                	arpl   %eax,(%eax)
 131:	76 66                	jbe    199 <frame_dummy+0xd>
 133:	70 72                	jo     1a7 <frame_dummy+0x1b>
 135:	69 6e 74 66 00 47 4e 	imul   $0x4e470066,0x74(%esi),%ebp
 13c:	55                   	push   %ebp
 13d:	20 43 31             	and    %al,0x31(%ebx)
 140:	37                   	aaa
 141:	20 31                	and    %dh,(%ecx)
 143:	34 2e                	xor    $0x2e,%al
 145:	32 2e                	xor    (%esi),%ch
 147:	30 20                	xor    %ah,(%eax)
 149:	2d 6d 33 32 20       	sub    $0x2032336d,%eax
 14e:	2d 6d 61 73 6d       	sub    $0x6d73616d,%eax
 153:	3d 69 6e 74 65       	cmp    $0x65746e69,%eax
 158:	6c                   	insb   (%dx),%es:(%edi)
 159:	20 2d 6d 74 75 6e    	and    %ch,0x6e75746d
 15f:	65 3d 69 33 38 36    	gs cmp $0x36383369,%eax
 165:	20 2d 6d 61 72 63    	and    %ch,0x6372616d
 16b:	68 3d 69 33 38       	push   $0x3833693d
 170:	36 20 2d 67 20 2d 4f 	and    %ch,%ss:0x4f2d2067
 177:	30 20                	xor    %ah,(%eax)
 179:	2d 66 63 66 2d       	sub    $0x2d666366,%eax
 17e:	70 72                	jo     1f2 <fib+0x39>
 180:	6f                   	outsl  %ds:(%esi),(%dx)
 181:	74 65                	je     1e8 <fib+0x2f>
 183:	63 74 69 6f          	arpl   %esi,0x6f(%ecx,%ebp,2)
 187:	6e                   	outsb  %ds:(%esi),(%dx)
 188:	3d 6e 6f 6e 65       	cmp    $0x656e6f6e,%eax
 18d:	20 2d 66 6e 6f 2d    	and    %ch,0x2d6f6e66
 193:	62 75 69             	bound  %esi,0x69(%ebp)
 196:	6c                   	insb   (%dx),%es:(%edi)
 197:	74 69                	je     202 <fib+0x49>
 199:	6e                   	outsb  %ds:(%esi),(%dx)
 19a:	20 2d 66 6e 6f 2d    	and    %ch,0x2d6f6e66
 1a0:	73 74                	jae    216 <fib+0x5d>
 1a2:	61                   	popa
 1a3:	63 6b 2d             	arpl   %ebp,0x2d(%ebx)
 1a6:	70 72                	jo     21a <fib+0x61>
 1a8:	6f                   	outsl  %ds:(%esi),(%dx)
 1a9:	74 65                	je     210 <fib+0x57>
 1ab:	63 74 6f 72          	arpl   %esi,0x72(%edi,%ebp,2)
 1af:	20 2d 66 50 49 43    	and    %ch,0x43495066
 1b5:	00 66 6c             	add    %ah,0x6c(%esi)
 1b8:	6f                   	outsl  %ds:(%esi),(%dx)
 1b9:	61                   	popa
 1ba:	74 00                	je     1bc <fib+0x3>
 1bc:	69 6e 74 65 72 6e 61 	imul   $0x616e7265,0x74(%esi),%ebp
 1c3:	6c                   	insb   (%dx),%es:(%edi)
 1c4:	5f                   	pop    %edi
 1c5:	63 72 65             	arpl   %esi,0x65(%edx)
 1c8:	61                   	popa
 1c9:	74 65                	je     230 <fib+0x77>
 1cb:	46                   	inc    %esi
 1cc:	69 6c 65 46 44 00 66 	imul   $0x72660044,0x46(%ebp,%eiz,2),%ebp
 1d3:	72 
 1d4:	65 61                	gs popa
 1d6:	64 00 6d 61          	add    %ch,%fs:0x61(%ebp)
 1da:	6c                   	insb   (%dx),%es:(%edi)
 1db:	6c                   	insb   (%dx),%es:(%edi)
 1dc:	6f                   	outsl  %ds:(%esi),(%dx)
 1dd:	63 00                	arpl   %eax,(%eax)
 1df:	65 6e                	outsb  %gs:(%esi),(%dx)
 1e1:	64 70 74             	fs jo  258 <read_notification+0xd>
 1e4:	72 00                	jb     1e6 <fib+0x2d>
 1e6:	69 73 75 70 70 65 72 	imul   $0x72657070,0x75(%ebx),%esi
 1ed:	00 6e 65             	add    %ch,0x65(%esi)
 1f0:	77 5f                	ja     251 <read_notification+0x6>
 1f2:	61                   	popa
 1f3:	6c                   	insb   (%dx),%es:(%edi)
 1f4:	6c                   	insb   (%dx),%es:(%edi)
 1f5:	6f                   	outsl  %ds:(%esi),(%dx)
 1f6:	63 00                	arpl   %eax,(%eax)
 1f8:	61                   	popa
 1f9:	64 64 72 00          	fs fs jb 1fd <fib+0x44>
 1fd:	6e                   	outsb  %ds:(%esi),(%dx)
 1fe:	6d                   	insl   (%dx),%es:(%edi)
 1ff:	65 6d                	gs insl (%dx),%es:(%edi)
 201:	62 00                	bound  %eax,(%eax)
 203:	72 61                	jb     266 <read_notification+0x1b>
 205:	64 69 78 00 73 63 61 	imul   $0x6c616373,%fs:0x0(%eax),%edi
 20c:	6c 
 20d:	65 00 65 78          	add    %ah,%gs:0x78(%ebp)
 211:	69 74 00 63 75 74 6c 	imul   $0x696c7475,0x63(%eax,%eax,1),%esi
 218:	69 
 219:	6d                   	insl   (%dx),%es:(%edi)
 21a:	00 48 65             	add    %cl,0x65(%eax)
 21d:	61                   	popa
 21e:	70 00                	jo     220 <fib+0x67>
 220:	53                   	push   %ebx
 221:	54                   	push   %esp
 222:	44                   	inc    %esp
 223:	4c                   	dec    %esp
 224:	49                   	dec    %ecx
 225:	42                   	inc    %edx
 226:	5f                   	pop    %edi
 227:	4d                   	dec    %ebp
 228:	65 6d                	gs insl (%dx),%es:(%edi)
 22a:	6f                   	outsl  %ds:(%esi),(%dx)
 22b:	72 79                	jb     2a6 <read_notification+0x5b>
 22d:	00 69 73             	add    %ch,0x73(%ecx)
 230:	64 69 67 69 74 00 61 	imul   $0x66610074,%fs:0x69(%edi),%esp
 237:	66 
 238:	74 65                	je     29f <read_notification+0x54>
 23a:	72 64                	jb     2a0 <read_notification+0x55>
 23c:	6f                   	outsl  %ds:(%esi),(%dx)
 23d:	74 00                	je     23f <fib+0x86>
 23f:	69 73 61 6c 70 68 61 	imul   $0x6168706c,0x61(%ebx),%esi
 246:	00 73 72             	add    %dh,0x72(%ebx)
 249:	61                   	popa
 24a:	6e                   	outsb  %ds:(%esi),(%dx)
 24b:	64 00 72 65          	add    %dh,%fs:0x65(%edx)
 24f:	61                   	popa
 250:	6c                   	insb   (%dx),%es:(%edi)
 251:	6c                   	insb   (%dx),%es:(%edi)
 252:	6f                   	outsl  %ds:(%esi),(%dx)
 253:	63 00                	arpl   %eax,(%eax)
 255:	63 6f 64             	arpl   %ebp,0x64(%edi)
 258:	65 00 6d 65          	add    %ch,%gs:0x65(%ebp)
 25c:	6d                   	insl   (%dx),%es:(%edi)
 25d:	6f                   	outsl  %ds:(%esi),(%dx)
 25e:	72 79                	jb     2d9 <main+0x2c>
 260:	5f                   	pop    %edi
 261:	72 65                	jb     2c8 <main+0x1b>
 263:	74 75                	je     2da <main+0x2d>
 265:	72 6e                	jb     2d5 <main+0x28>
 267:	52                   	push   %edx
 268:	65 67 69 6f 6e 00 68 	imul   $0x61656800,%gs:0x6e(%bx),%ebp
 26f:	65 61 
 271:	70 00                	jo     273 <read_notification+0x28>
 273:	61                   	popa
 274:	74 6f                	je     2e5 <main+0x38>
 276:	66 00 61 74          	data16 add %ah,0x74(%ecx)
 27a:	6f                   	outsl  %ds:(%esi),(%dx)
 27b:	69 00 6d 65 6d 6f    	imul   $0x6f6d656d,(%eax),%eax
 281:	72 79                	jb     2fc <main+0x4f>
 283:	5f                   	pop    %edi
 284:	72 65                	jb     2eb <main+0x3e>
 286:	71 75                	jno    2fd <main+0x50>
 288:	65 73 74             	gs jae 2ff <main+0x52>
 28b:	52                   	push   %edx
 28c:	65 67 69 6f 6e 00 63 	imul   $0x74756300,%gs:0x6e(%bx),%ebp
 293:	75 74 
 295:	6f                   	outsl  %ds:(%esi),(%dx)
 296:	66 66 00 66 72       	data16 data16 add %ah,0x72(%esi)
 29b:	65 65 00 6e 70       	gs add %ch,%gs:0x70(%esi)
 2a0:	74 72                	je     314 <main+0x67>
 2a2:	00 6d 65             	add    %ch,0x65(%ebp)
 2a5:	6d                   	insl   (%dx),%es:(%edi)
 2a6:	63 70 79             	arpl   %esi,0x79(%eax)
 2a9:	00 63 6c             	add    %ah,0x6c(%ebx)
 2ac:	65 61                	gs popa
 2ae:	6e                   	outsb  %ds:(%esi),(%dx)
 2af:	5f                   	pop    %edi
 2b0:	73 74                	jae    326 <main+0x79>
 2b2:	64 6c                	fs insb (%dx),%es:(%edi)
 2b4:	69 62 00 72 65 67 69 	imul   $0x69676572,0x0(%edx),%esp
 2bb:	6f                   	outsl  %ds:(%esi),(%dx)
 2bc:	6e                   	outsb  %ds:(%esi),(%dx)
 2bd:	5f                   	pop    %edi
 2be:	62 61 73             	bound  %esp,0x73(%ecx)
 2c1:	65 00 73 68          	add    %dh,%gs:0x68(%ebx)
 2c5:	6f                   	outsl  %ds:(%esi),(%dx)
 2c6:	72 74                	jb     33c <main+0x8f>
 2c8:	20 69 6e             	and    %ch,0x6e(%ecx)
 2cb:	74 00                	je     2cd <main+0x20>
 2cd:	69 6e 69 74 5f 73 74 	imul   $0x74735f74,0x69(%esi),%ebp
 2d4:	64 6c                	fs insb (%dx),%es:(%edi)
 2d6:	69 62 00 73 65 65 64 	imul   $0x64656573,0x0(%edx),%esp
 2dd:	00 72 65             	add    %dh,0x65(%edx)
 2e0:	67 69 6f 6e 5f 73 69 	imul   $0x7a69735f,0x6e(%bx),%ebp
 2e7:	7a 
 2e8:	65 00 63 61          	add    %ah,%gs:0x61(%ebx)
 2ec:	6c                   	insb   (%dx),%es:(%edi)
 2ed:	6c                   	insb   (%dx),%es:(%edi)
 2ee:	6f                   	outsl  %ds:(%esi),(%dx)
 2ef:	63 00                	arpl   %eax,(%eax)
 2f1:	72 65                	jb     358 <main+0xab>
 2f3:	67 69 6f 6e 5f 68 65 	imul   $0x6165685f,0x6e(%bx),%ebp
 2fa:	61 
 2fb:	64 00 73 74          	add    %dh,%fs:0x74(%ebx)
 2ff:	72 74                	jb     375 <main+0xc8>
 301:	6f                   	outsl  %ds:(%esi),(%dx)
 302:	6c                   	insb   (%dx),%es:(%edi)
 303:	00 6d 65             	add    %ch,0x65(%ebp)
 306:	6d                   	insl   (%dx),%es:(%edi)
 307:	6f                   	outsl  %ds:(%esi),(%dx)
 308:	72 79                	jb     383 <main+0xd6>
 30a:	00 70 74             	add    %dh,0x74(%eax)
 30d:	72 5f                	jb     36e <main+0xc1>
 30f:	74 00                	je     311 <main+0x64>
 311:	63 68 61             	arpl   %ebp,0x61(%eax)
 314:	72 5f                	jb     375 <main+0xc8>
 316:	70 74                	jo     38c <main+0xdf>
 318:	72 00                	jb     31a <main+0x6d>
 31a:	63 68 61             	arpl   %ebp,0x61(%eax)
 31d:	72 6d                	jb     38c <main+0xdf>
 31f:	61                   	popa
 320:	73 6b                	jae    38d <main+0xe0>
 322:	00 6c 6f 6e          	add    %ch,0x6e(%edi,%ebp,2)
 326:	67 77 6f             	addr16 ja 398 <main+0xeb>
 329:	72 64                	jb     38f <main+0xe2>
 32b:	5f                   	pop    %edi
 32c:	70 74                	jo     3a2 <main+0xf5>
 32e:	72 00                	jb     330 <main+0x83>
 330:	72 65                	jb     397 <main+0xea>
 332:	6a 65                	push   $0x65
 334:	63 74 00 73          	arpl   %esi,0x73(%eax,%eax,1)
 338:	74 72                	je     3ac <main+0xff>
 33a:	6e                   	outsb  %ds:(%esi),(%dx)
 33b:	63 6d 70             	arpl   %ebp,0x70(%ebp)
 33e:	00 6c 6f 6e          	add    %ch,0x6e(%edi,%ebp,2)
 342:	67 77 6f             	addr16 ja 3b4 <main+0x107>
 345:	72 64                	jb     3ab <main+0xfe>
 347:	00 73 74             	add    %dh,0x74(%ebx)
 34a:	72 74                	jb     3c0 <main+0x113>
 34c:	6f                   	outsl  %ds:(%esi),(%dx)
 34d:	6b 5f 72 00          	imul   $0x0,0x72(%edi),%ebx
 351:	5f                   	pop    %edi
 352:	5f                   	pop    %edi
 353:	73 74                	jae    3c9 <main+0x11c>
 355:	72 63                	jb     3ba <main+0x10d>
 357:	68 72 6e 75 6c       	push   $0x6c756e72
 35c:	00 64 65 6c          	add    %ah,0x6c(%ebp,%eiz,2)
 360:	69 6d 00 74 61 62 6c 	imul   $0x6c626174,0x0(%ebp),%ebp
 367:	65 00 73 74          	add    %dh,%gs:0x74(%ebx)
 36b:	72 63                	jb     3d0 <main+0x123>
 36d:	73 70                	jae    3df <main+0x132>
 36f:	6e                   	outsb  %ds:(%esi),(%dx)
 370:	00 73 74             	add    %dh,0x74(%ebx)
 373:	72 63                	jb     3d8 <main+0x12b>
 375:	70 79                	jo     3f0 <main+0x143>
 377:	00 6d 65             	add    %ch,0x65(%ebp)
 37a:	6d                   	insl   (%dx),%es:(%edi)
 37b:	63 6d 70             	arpl   %ebp,0x70(%ebp)
 37e:	00 6c 6f 6e          	add    %ch,0x6e(%edi,%ebp,2)
 382:	67 20 6c 6f          	and    %ch,0x6f(%si)
 386:	6e                   	outsb  %ds:(%esi),(%dx)
 387:	67 20 69 6e          	and    %ch,0x6e(%bx,%di)
 38b:	74 00                	je     38d <main+0xe0>
 38d:	72 65                	jb     3f4 <main+0x147>
 38f:	73 75                	jae    406 <main+0x159>
 391:	6c                   	insb   (%dx),%es:(%edi)
 392:	74 00                	je     394 <main+0xe7>
 394:	6c                   	insb   (%dx),%es:(%edi)
 395:	65 6e                	outsb  %gs:(%esi),(%dx)
 397:	67 74 68             	addr16 je 402 <main+0x155>
 39a:	00 6d 65             	add    %ch,0x65(%ebp)
 39d:	6d                   	insl   (%dx),%es:(%edi)
 39e:	6d                   	insl   (%dx),%es:(%edi)
 39f:	6f                   	outsl  %ds:(%esi),(%dx)
 3a0:	76 65                	jbe    407 <main+0x15a>
 3a2:	00 75 6e             	add    %dh,0x6e(%ebp)
 3a5:	73 69                	jae    410 <main+0x163>
 3a7:	67 6e                	outsb  %ds:(%si),(%dx)
 3a9:	65 64 20 63 68       	gs and %ah,%fs:0x68(%ebx)
 3ae:	61                   	popa
 3af:	72 00                	jb     3b1 <main+0x104>
 3b1:	73 74                	jae    427 <main+0x17a>
 3b3:	72 63                	jb     418 <main+0x16b>
 3b5:	68 72 00 73 61       	push   $0x61730072
 3ba:	76 65                	jbe    421 <main+0x174>
 3bc:	5f                   	pop    %edi
 3bd:	70 74                	jo     433 <main+0x186>
 3bf:	72 00                	jb     3c1 <main+0x114>
 3c1:	6c                   	insb   (%dx),%es:(%edi)
 3c2:	6f                   	outsl  %ds:(%esi),(%dx)
 3c3:	6e                   	outsb  %ds:(%esi),(%dx)
 3c4:	67 20 6c 6f          	and    %ch,0x6f(%si)
 3c8:	6e                   	outsb  %ds:(%esi),(%dx)
 3c9:	67 20 75 6e          	and    %dh,0x6e(%di)
 3cd:	73 69                	jae    438 <main+0x18b>
 3cf:	67 6e                	outsb  %ds:(%si),(%dx)
 3d1:	65 64 20 69 6e       	gs and %ch,%fs:0x6e(%ecx)
 3d6:	74 00                	je     3d8 <main+0x12b>
 3d8:	73 74                	jae    44e <internal_createFileFD+0x1>
 3da:	72 6e                	jb     44a <main+0x19d>
 3dc:	63 70 79             	arpl   %esi,0x79(%eax)
 3df:	00 73 74             	add    %dh,0x74(%ebx)
 3e2:	72 63                	jb     447 <main+0x19a>
 3e4:	61                   	popa
 3e5:	74 00                	je     3e7 <main+0x13a>
 3e7:	73 74                	jae    45d <internal_createFileFD+0x10>
 3e9:	72 63                	jb     44e <internal_createFileFD+0x1>
 3eb:	6f                   	outsl  %ds:(%esi),(%dx)
 3ec:	6c                   	insb   (%dx),%es:(%edi)
 3ed:	6c                   	insb   (%dx),%es:(%edi)
 3ee:	00 6d 61             	add    %ch,0x61(%ebp)
 3f1:	67 69 63 5f 62 69 74 	imul   $0x73746962,0x5f(%bp,%di),%esp
 3f8:	73 
 3f9:	00 61 63             	add    %ah,0x63(%ecx)
 3fc:	63 65 70             	arpl   %esp,0x70(%ebp)
 3ff:	74 00                	je     401 <main+0x154>
 401:	73 74                	jae    477 <internal_createFileFD+0x2a>
 403:	72 73                	jb     478 <internal_createFileFD+0x2b>
 405:	70 6e                	jo     475 <internal_createFileFD+0x28>
 407:	00 63 5f             	add    %ah,0x5f(%ebx)
 40a:	69 6e 00 63 6f 75 6e 	imul   $0x6e756f63,0x0(%esi),%ebp
 411:	74 00                	je     413 <main+0x166>
 413:	73 74                	jae    489 <internal_createFileFD+0x3c>
 415:	72 63                	jb     47a <internal_createFileFD+0x2d>
 417:	6d                   	insl   (%dx),%es:(%edi)
 418:	70 00                	jo     41a <main+0x16d>
 41a:	73 74                	jae    490 <init_stdio+0x6>
 41c:	72 64                	jb     482 <internal_createFileFD+0x35>
 41e:	75 70                	jne    490 <init_stdio+0x6>
 420:	00 6d 65             	add    %ch,0x65(%ebp)
 423:	6d                   	insl   (%dx),%es:(%edi)
 424:	63 68 72             	arpl   %ebp,0x72(%eax)
 427:	00 70 61             	add    %dh,0x61(%eax)
 42a:	74 68                	je     494 <init_stdio+0xa>
 42c:	00 63 72             	add    %ah,0x72(%ebx)
 42f:	65 61                	gs popa
 431:	74 00                	je     433 <main+0x186>
 433:	66 6c                	data16 insb (%dx),%es:(%edi)
 435:	61                   	popa
 436:	67 73 00             	addr16 jae 439 <main+0x18c>
 439:	6e                   	outsb  %ds:(%esi),(%dx)
 43a:	62 79 74             	bound  %edi,0x74(%ecx)
 43d:	65 73 00             	gs jae 440 <main+0x193>
 440:	66 74 72             	data16 je 4b5 <init_stdio+0x2b>
 443:	75 6e                	jne    4b3 <init_stdio+0x29>
 445:	63 61 74             	arpl   %esp,0x74(%ecx)
 448:	65 00 75 69          	add    %dh,%gs:0x69(%ebp)
 44c:	6e                   	outsb  %ds:(%esi),(%dx)
 44d:	74 33                	je     482 <internal_createFileFD+0x35>
 44f:	32 5f 74             	xor    0x74(%edi),%bl
 452:	00 72 65             	add    %dh,0x65(%edx)
 455:	67 69 6f 6e 00 46 45 	imul   $0x41454600,0x6e(%bx),%ebp
 45c:	41 
 45d:	54                   	push   %esp
 45e:	5f                   	pop    %edi
 45f:	54                   	push   %esp
 460:	41                   	inc    %ecx
 461:	53                   	push   %ebx
 462:	4b                   	dec    %ebx
 463:	54                   	push   %esp
 464:	41                   	inc    %ecx
 465:	42                   	inc    %edx
 466:	4c                   	dec    %esp
 467:	45                   	inc    %ebp
 468:	00 4b 45             	add    %cl,0x45(%ebx)
 46b:	52                   	push   %edx
 46c:	4e                   	dec    %esi
 46d:	45                   	inc    %ebp
 46e:	4c                   	dec    %esp
 46f:	5f                   	pop    %edi
 470:	46                   	inc    %esi
 471:	45                   	inc    %ebp
 472:	41                   	inc    %ecx
 473:	54                   	push   %esp
 474:	55                   	push   %ebp
 475:	52                   	push   %edx
 476:	45                   	inc    %ebp
 477:	00 46 45             	add    %al,0x45(%esi)
 47a:	41                   	inc    %ecx
 47b:	54                   	push   %esp
 47c:	5f                   	pop    %edi
 47d:	46                   	inc    %esi
 47e:	52                   	push   %edx
 47f:	41                   	inc    %ecx
 480:	4d                   	dec    %ebp
 481:	45                   	inc    %ebp
 482:	42                   	inc    %edx
 483:	55                   	push   %ebp
 484:	46                   	inc    %esi
 485:	46                   	inc    %esi
 486:	45                   	inc    %ebp
 487:	52                   	push   %edx
 488:	00 46 45             	add    %al,0x45(%esi)
 48b:	41                   	inc    %ecx
 48c:	54                   	push   %esp
 48d:	5f                   	pop    %edi
 48e:	50                   	push   %eax
 48f:	52                   	push   %edx
 490:	4f                   	dec    %edi
 491:	47                   	inc    %edi
 492:	52                   	push   %edx
 493:	41                   	inc    %ecx
 494:	4d                   	dec    %ebp
 495:	42                   	inc    %edx
 496:	41                   	inc    %ecx
 497:	53                   	push   %ebx
 498:	45                   	inc    %ebp
 499:	00 46 45             	add    %al,0x45(%esi)
 49c:	41                   	inc    %ecx
 49d:	54                   	push   %esp
 49e:	5f                   	pop    %edi
 49f:	54                   	push   %esp
 4a0:	49                   	dec    %ecx
 4a1:	4d                   	dec    %ebp
 4a2:	45                   	inc    %ebp
 4a3:	52                   	push   %edx
 4a4:	00 69 6e             	add    %ch,0x6e(%ecx)
 4a7:	66 6f                	outsw  %ds:(%esi),(%dx)
 4a9:	00 46 45             	add    %al,0x45(%esi)
 4ac:	41                   	inc    %ecx
 4ad:	54                   	push   %esp
 4ae:	5f                   	pop    %edi
 4af:	46                   	inc    %esi
 4b0:	4f                   	dec    %edi
 4b1:	4e                   	dec    %esi
 4b2:	54                   	push   %esp
 4b3:	00 46 45             	add    %al,0x45(%esi)
 4b6:	41                   	inc    %ecx
 4b7:	54                   	push   %esp
 4b8:	5f                   	pop    %edi
 4b9:	50                   	push   %eax
 4ba:	41                   	inc    %ecx
 4bb:	47                   	inc    %edi
 4bc:	45                   	inc    %ebp
 4bd:	54                   	push   %esp
 4be:	41                   	inc    %ecx
 4bf:	42                   	inc    %edx
 4c0:	4c                   	dec    %esp
 4c1:	45                   	inc    %ebp
 4c2:	00 67 65             	add    %ah,0x65(%edi)
 4c5:	74 4b                	je     512 <init_stdio+0x88>
 4c7:	65 72 6e             	gs jb  538 <vfprintf+0xa>
 4ca:	65 6c                	gs insb (%dx),%es:(%edi)
 4cc:	46                   	inc    %esi
 4cd:	65 61                	gs popa
 4cf:	74 75                	je     546 <vfprintf+0x18>
 4d1:	72 65                	jb     538 <vfprintf+0xa>
 4d3:	00 46 45             	add    %al,0x45(%esi)
 4d6:	41                   	inc    %ecx
 4d7:	54                   	push   %esp
 4d8:	55                   	push   %ebp
 4d9:	52                   	push   %edx
 4da:	45                   	inc    %ebp
 4db:	5f                   	pop    %edi
 4dc:	49                   	dec    %ecx
 4dd:	4e                   	dec    %esi
 4de:	46                   	inc    %esi
 4df:	4f                   	dec    %edi
 4e0:	00 46 45             	add    %al,0x45(%esi)
 4e3:	41                   	inc    %ecx
 4e4:	54                   	push   %esp
 4e5:	5f                   	pop    %edi
 4e6:	4b                   	dec    %ebx
 4e7:	45                   	inc    %ebp
 4e8:	59                   	pop    %ecx
 4e9:	50                   	push   %eax
 4ea:	52                   	push   %edx
 4eb:	45                   	inc    %ebp
 4ec:	53                   	push   %ebx
 4ed:	53                   	push   %ebx
 4ee:	4d                   	dec    %ebp
 4ef:	41                   	inc    %ecx
 4f0:	50                   	push   %eax
 4f1:	00 66 65             	add    %ah,0x65(%esi)
 4f4:	61                   	popa
 4f5:	74 75                	je     56c <vfprintf+0x3e>
 4f7:	72 65                	jb     55e <vfprintf+0x30>
 4f9:	00 46 45             	add    %al,0x45(%esi)
 4fc:	41                   	inc    %ecx
 4fd:	54                   	push   %esp
 4fe:	5f                   	pop    %edi
 4ff:	4b                   	dec    %ebx
 500:	45                   	inc    %ebp
 501:	59                   	pop    %ecx
 502:	42                   	inc    %edx
 503:	4f                   	dec    %edi
 504:	41                   	inc    %ecx
 505:	52                   	push   %edx
 506:	44                   	inc    %esp
 507:	00 66 69             	add    %ah,0x69(%esi)
 50a:	6c                   	insb   (%dx),%es:(%edi)
 50b:	65 6e                	outsb  %gs:(%esi),(%dx)
 50d:	61                   	popa
 50e:	6d                   	insl   (%dx),%es:(%edi)
 50f:	65 00 73 74          	add    %dh,%gs:0x74(%ebx)
 513:	61                   	popa
 514:	74 65                	je     57b <vfprintf+0x4d>
 516:	00 4e 45             	add    %cl,0x45(%esi)
 519:	56                   	push   %esi
 51a:	45                   	inc    %ebp
 51b:	52                   	push   %edx
 51c:	00 4f 4e             	add    %cl,0x4e(%edi)
 51f:	46                   	inc    %esi
 520:	4f                   	dec    %edi
 521:	43                   	inc    %ebx
 522:	55                   	push   %ebp
 523:	53                   	push   %ebx
 524:	00 6d 61             	add    %ch,0x61(%ebp)
 527:	6e                   	outsb  %ds:(%esi),(%dx)
 528:	75 61                	jne    58b <vfprintf+0x5d>
 52a:	6c                   	insb   (%dx),%es:(%edi)
 52b:	5f                   	pop    %edi
 52c:	74 61                	je     58f <vfprintf+0x61>
 52e:	73 6b                	jae    59b <vfprintf+0x6d>
 530:	00 74 61 73          	add    %dh,0x73(%ecx,%eiz,2)
 534:	6b 5f 6c 6f          	imul   $0x6f,0x6c(%edi),%ebx
 538:	63 6b 00             	arpl   %ebp,0x0(%ebx)
 53b:	79 69                	jns    5a6 <vfprintf+0x78>
 53d:	65 6c                	gs insb (%dx),%es:(%edi)
 53f:	64 00 65 78          	add    %ah,%fs:0x78(%ebp)
 543:	65 63 00             	arpl   %eax,%gs:(%eax)
 546:	61                   	popa
 547:	64 64 72 65          	fs fs jb 5b0 <vfprintf+0x82>
 54b:	73 73                	jae    5c0 <vfprintf+0x92>
 54d:	00 61 72             	add    %ah,0x72(%ecx)
 550:	67 63 00             	arpl   %eax,(%bx,%si)
 553:	4e                   	dec    %esi
 554:	4f                   	dec    %edi
 555:	43                   	inc    %ebx
 556:	48                   	dec    %eax
 557:	49                   	dec    %ecx
 558:	4c                   	dec    %esp
 559:	44                   	inc    %esp
 55a:	00 73 65             	add    %dh,0x65(%ebx)
 55d:	74 5f                	je     5be <vfprintf+0x90>
 55f:	73 63                	jae    5c4 <vfprintf+0x96>
 561:	68 65 64 75 6c       	push   $0x6c756465
 566:	65 00 61 72          	add    %ah,%gs:0x72(%ecx)
 56a:	67 76 00             	addr16 jbe 56d <vfprintf+0x3f>
 56d:	41                   	inc    %ecx
 56e:	4c                   	dec    %esp
 56f:	57                   	push   %edi
 570:	41                   	inc    %ecx
 571:	59                   	pop    %ecx
 572:	53                   	push   %ebx
 573:	00 53 63             	add    %dl,0x63(%ebx)
 576:	68 65 64 75 6c       	push   $0x6c756465
 57b:	65 54                	gs push %esp
 57d:	79 70                	jns    5ef <vfprintf+0xc1>
 57f:	65 00 63 6c          	add    %ah,%gs:0x6c(%ebx)
 583:	69 63 6b 5f 65 76 65 	imul   $0x6576655f,0x6b(%ebx),%esp
 58a:	6e                   	outsb  %ds:(%esi),(%dx)
 58b:	74 73                	je     600 <vfprintf+0xd2>
 58d:	5f                   	pop    %edi
 58e:	65 6e                	outsb  %gs:(%esi),(%dx)
 590:	61                   	popa
 591:	62 6c 65 64          	bound  %ebp,0x64(%ebp,%eiz,2)
 595:	00 62 75             	add    %ah,0x75(%edx)
 598:	66 5f                	pop    %di
 59a:	73 69                	jae    605 <vfprintf+0xd7>
 59c:	7a 65                	jp     603 <vfprintf+0xd5>
 59e:	00 6f 6c             	add    %ch,0x6c(%edi)
 5a1:	64 4c                	fs dec %esp
 5a3:	6f                   	outsl  %ds:(%esi),(%dx)
 5a4:	63 00                	arpl   %eax,(%eax)
 5a6:	76 70                	jbe    618 <vfprintf+0xea>
 5a8:	5f                   	pop    %edi
 5a9:	66 69 6c 65 00 76 70 	imul   $0x7076,0x0(%ebp,%eiz,2),%bp
 5b0:	5f                   	pop    %edi
 5b1:	64 72 61             	fs jb  615 <vfprintf+0xe7>
 5b4:	77 43                	ja     5f9 <vfprintf+0xcb>
 5b6:	68 61 72 00 56       	push   $0x56007261
 5bb:	49                   	dec    %ecx
 5bc:	45                   	inc    %ebp
 5bd:	57                   	push   %edi
 5be:	50                   	push   %eax
 5bf:	4f                   	dec    %edi
 5c0:	52                   	push   %edx
 5c1:	54                   	push   %esp
 5c2:	5f                   	pop    %edi
 5c3:	45                   	inc    %ebp
 5c4:	56                   	push   %esi
 5c5:	45                   	inc    %ebp
 5c6:	4e                   	dec    %esi
 5c7:	54                   	push   %esp
 5c8:	5f                   	pop    %edi
 5c9:	54                   	push   %esp
 5ca:	59                   	pop    %ecx
 5cb:	50                   	push   %eax
 5cc:	45                   	inc    %ebp
 5cd:	00 73 79             	add    %dh,0x79(%ebx)
 5d0:	73 5f                	jae    631 <vfprintf+0x103>
 5d2:	76 70                	jbe    644 <vfprintf+0x116>
 5d4:	5f                   	pop    %edi
 5d5:	69 6e 69 74 69 61 6c 	imul   $0x6c616974,0x69(%esi),%ebp
 5dc:	69 7a 65 64 00 61 73 	imul   $0x73610064,0x65(%edx),%edi
 5e3:	63 69 69             	arpl   %ebp,0x69(%ecx)
 5e6:	00 75 69             	add    %dh,0x69(%ebp)
 5e9:	6e                   	outsb  %ds:(%esi),(%dx)
 5ea:	74 38                	je     624 <vfprintf+0xf6>
 5ec:	5f                   	pop    %edi
 5ed:	74 00                	je     5ef <vfprintf+0xc1>
 5ef:	74 69                	je     65a <vfprintf+0x12c>
 5f1:	74 6c                	je     65f <vfprintf+0x131>
 5f3:	65 00 66 72          	add    %ah,%gs:0x72(%esi)
 5f7:	6f                   	outsl  %ds:(%esi),(%dx)
 5f8:	6e                   	outsb  %ds:(%esi),(%dx)
 5f9:	74 62                	je     65d <vfprintf+0x12f>
 5fb:	75 66                	jne    663 <vfprintf+0x135>
 5fd:	00 6f 77             	add    %ch,0x77(%edi)
 600:	6e                   	outsb  %ds:(%esi),(%dx)
 601:	65 72 5f             	gs jb  663 <vfprintf+0x135>
 604:	74 61                	je     667 <vfprintf+0x139>
 606:	73 6b                	jae    673 <vfprintf+0x145>
 608:	5f                   	pop    %edi
 609:	69 64 00 56 50 5f 4d 	imul   $0x494d5f50,0x56(%eax,%eax,1),%esp
 610:	49 
 611:	4e                   	dec    %esi
 612:	49                   	dec    %ecx
 613:	4d                   	dec    %ebp
 614:	49                   	dec    %ecx
 615:	5a                   	pop    %edx
 616:	45                   	inc    %ebp
 617:	00 74 72 61          	add    %dh,0x61(%edx,%esi,2)
 61b:	6e                   	outsb  %ds:(%esi),(%dx)
 61c:	73 70                	jae    68e <vfprintf+0x160>
 61e:	61                   	popa
 61f:	72 65                	jb     686 <vfprintf+0x158>
 621:	6e                   	outsb  %ds:(%esi),(%dx)
 622:	74 00                	je     624 <vfprintf+0xf6>
 624:	76 70                	jbe    696 <vfprintf+0x168>
 626:	5f                   	pop    %edi
 627:	61                   	popa
 628:	64 64 5f             	fs fs pop %edi
 62b:	65 76 65             	gs jbe 693 <vfprintf+0x165>
 62e:	6e                   	outsb  %ds:(%esi),(%dx)
 62f:	74 5f                	je     690 <vfprintf+0x162>
 631:	68 61 6e 64 6c       	push   $0x6c646e61
 636:	65 72 00             	gs jb  639 <vfprintf+0x10b>
 639:	6d                   	insl   (%dx),%es:(%edi)
 63a:	69 6e 69 6d 69 7a 65 	imul   $0x657a696d,0x69(%esi),%ebp
 641:	64 5f                	fs pop %edi
 643:	68 00 56 50 5f       	push   $0x5f505600
 648:	43                   	inc    %ebx
 649:	4c                   	dec    %esp
 64a:	49                   	dec    %ecx
 64b:	43                   	inc    %ebx
 64c:	4b                   	dec    %ebx
 64d:	00 56 50             	add    %dl,0x50(%esi)
 650:	5f                   	pop    %edi
 651:	4d                   	dec    %ebp
 652:	41                   	inc    %ecx
 653:	58                   	pop    %eax
 654:	49                   	dec    %ecx
 655:	4d                   	dec    %ebp
 656:	49                   	dec    %ecx
 657:	5a                   	pop    %edx
 658:	45                   	inc    %ebp
 659:	00 6d 69             	add    %ch,0x69(%ebp)
 65c:	6e                   	outsb  %ds:(%esi),(%dx)
 65d:	69 6d 69 7a 65 64 5f 	imul   $0x5f64657a,0x69(%ebp),%ebp
 664:	77 00                	ja     666 <vfprintf+0x138>
 666:	56                   	push   %esi
 667:	50                   	push   %eax
 668:	5f                   	pop    %edi
 669:	4b                   	dec    %ebx
 66a:	45                   	inc    %ebp
 66b:	59                   	pop    %ecx
 66c:	00 56 50             	add    %dl,0x50(%esi)
 66f:	5f                   	pop    %edi
 670:	55                   	push   %ebp
 671:	4e                   	dec    %esi
 672:	46                   	inc    %esi
 673:	4f                   	dec    %edi
 674:	43                   	inc    %ebx
 675:	55                   	push   %ebp
 676:	53                   	push   %ebx
 677:	45                   	inc    %ebp
 678:	44                   	inc    %esp
 679:	00 76 70             	add    %dh,0x70(%esi)
 67c:	5f                   	pop    %edi
 67d:	69 6e 69 74 00 56 69 	imul   $0x69560074,0x69(%esi),%ebp
 684:	65 77 70             	gs ja  6f7 <fprintf+0x14>
 687:	6f                   	outsl  %ds:(%esi),(%dx)
 688:	72 74                	jb     6fe <fprintf+0x1b>
 68a:	46                   	inc    %esi
 68b:	75 6e                	jne    6fb <fprintf+0x18>
 68d:	63 74 69 6f          	arpl   %esi,0x6f(%ecx,%ebp,2)
 691:	6e                   	outsb  %ds:(%esi),(%dx)
 692:	73 00                	jae    694 <vfprintf+0x166>
 694:	6f                   	outsl  %ds:(%esi),(%dx)
 695:	77 6e                	ja     705 <fprintf+0x22>
 697:	65 72 5f             	gs jb  6f9 <fprintf+0x16>
 69a:	70 72                	jo     70e <fprintf+0x2b>
 69c:	6f                   	outsl  %ds:(%esi),(%dx)
 69d:	67 72 61             	addr16 jb 701 <fprintf+0x1e>
 6a0:	6d                   	insl   (%dx),%es:(%edi)
 6a1:	5f                   	pop    %edi
 6a2:	73 6c                	jae    710 <fprintf+0x2d>
 6a4:	6f                   	outsl  %ds:(%esi),(%dx)
 6a5:	74 00                	je     6a7 <vfprintf+0x179>
 6a7:	62 61 63             	bound  %esp,0x63(%ecx)
 6aa:	6b 62 75 66          	imul   $0x66,0x75(%edx),%esp
 6ae:	00 6d 69             	add    %ch,0x69(%ebp)
 6b1:	6e                   	outsb  %ds:(%esi),(%dx)
 6b2:	69 6d 69 7a 65 64 00 	imul   $0x64657a,0x69(%ebp),%ebp
 6b9:	76 70                	jbe    72b <printf+0x15>
 6bb:	5f                   	pop    %edi
 6bc:	63 6f 70             	arpl   %ebp,0x70(%edi)
 6bf:	79 00                	jns    6c1 <vfprintf+0x193>
 6c1:	76 70                	jbe    733 <printf+0x1d>
 6c3:	5f                   	pop    %edi
 6c4:	6f                   	outsl  %ds:(%esi),(%dx)
 6c5:	70 65                	jo     72c <printf+0x16>
 6c7:	6e                   	outsb  %ds:(%esi),(%dx)
 6c8:	00 76 70             	add    %dh,0x70(%esi)
 6cb:	5f                   	pop    %edi
 6cc:	63 6c 6f 73          	arpl   %ebp,0x73(%edi,%ebp,2)
 6d0:	65 00 56 69          	add    %dl,%gs:0x69(%esi)
 6d4:	65 77 70             	gs ja  747 <printf+0x31>
 6d7:	6f                   	outsl  %ds:(%esi),(%dx)
 6d8:	72 74                	jb     74e <printf+0x38>
 6da:	00 4c 6f 63          	add    %cl,0x63(%edi,%ebp,2)
 6de:	61                   	popa
 6df:	74 69                	je     74a <printf+0x34>
 6e1:	6f                   	outsl  %ds:(%esi),(%dx)
 6e2:	6e                   	outsb  %ds:(%esi),(%dx)
 6e3:	00 56 50             	add    %dl,0x50(%esi)
 6e6:	5f                   	pop    %edi
 6e7:	46                   	inc    %esi
 6e8:	4f                   	dec    %edi
 6e9:	43                   	inc    %ebx
 6ea:	55                   	push   %ebp
 6eb:	53                   	push   %ebx
 6ec:	45                   	inc    %ebp
 6ed:	44                   	inc    %esp
 6ee:	00 76 70             	add    %dh,0x70(%esi)
 6f1:	5f                   	pop    %edi
 6f2:	73 65                	jae    759 <printf+0x43>
 6f4:	74 5f                	je     755 <printf+0x3f>
 6f6:	62 75 66             	bound  %esi,0x66(%ebp)
 6f9:	66 65 72 00          	data16 gs jb 6fd <fprintf+0x1a>
 6fd:	76 70                	jbe    76f <fputs+0x3>
 6ff:	5f                   	pop    %edi
 700:	66 75 6e             	data16 jne 771 <fputs+0x5>
 703:	63 74 69 6f          	arpl   %esi,0x6f(%ecx,%ebp,2)
 707:	6e                   	outsb  %ds:(%esi),(%dx)
 708:	73 00                	jae    70a <fprintf+0x27>
 70a:	76 70                	jbe    77c <fputs+0x10>
 70c:	5f                   	pop    %edi
 70d:	67 65 74 63          	addr16 gs je 774 <fputs+0x8>
 711:	00 72 65             	add    %dh,0x65(%edx)
 714:	73 69                	jae    77f <fputs+0x13>
 716:	7a 65                	jp     77d <fputs+0x11>
 718:	61                   	popa
 719:	62 6c 65 00          	bound  %ebp,0x0(%ebp,%eiz,2)
 71d:	56                   	push   %esi
 71e:	50                   	push   %eax
 71f:	5f                   	pop    %edi
 720:	45                   	inc    %ebp
 721:	58                   	pop    %eax
 722:	49                   	dec    %ecx
 723:	54                   	push   %esp
 724:	00 74 6f 75          	add    %dh,0x75(%edi,%ebp,2)
 728:	70 70                	jo     79a <fputs+0x2e>
 72a:	65 72 00             	gs jb  72d <printf+0x17>
 72d:	74 6f                	je     79e <fputs+0x32>
 72f:	6c                   	insb   (%dx),%es:(%edi)
 730:	6f                   	outsl  %ds:(%esi),(%dx)
 731:	77 65                	ja     798 <fputs+0x2c>
 733:	72 00                	jb     735 <printf+0x1f>

Disassembly of section .debug_line_str:

00000000 <.debug_line_str>:
   0:	6c                   	insb   (%dx),%es:(%edi)
   1:	69 62 63 5f 73 72 63 	imul   $0x6372735f,0x63(%edx),%esp
   8:	2f                   	das
   9:	73 74                	jae    7f <_init+0xb>
   b:	64 69 6f 2e 63 00 2f 	imul   $0x682f0063,%fs:0x2e(%edi),%ebp
  12:	68 
  13:	6f                   	outsl  %ds:(%esi),(%dx)
  14:	6d                   	insl   (%dx),%es:(%edi)
  15:	65 2f                	gs das
  17:	61                   	popa
  18:	69 64 61 6e 62 2f 47 	imul   $0x72472f62,0x6e(%ecx,%eiz,2),%esp
  1f:	72 
  20:	65 65 6e             	gs outsb %gs:(%esi),(%dx)
  23:	77 6f                	ja     94 <_start+0x10>
  25:	6f                   	outsl  %ds:(%esi),(%dx)
  26:	64 2d 4f 53 2f 66    	fs sub $0x662f534f,%eax
  2c:	69 6c 65 73 79 73 74 	imul   $0x65747379,0x73(%ebp,%eiz,2),%ebp
  33:	65 
  34:	6d                   	insl   (%dx),%es:(%edi)
  35:	2f                   	das
  36:	75 73                	jne    ab <_start+0x27>
  38:	72 00                	jb     3a <_init-0x3a>
  3a:	6c                   	insb   (%dx),%es:(%edi)
  3b:	69 62 63 5f 73 72 63 	imul   $0x6372735f,0x63(%edx),%esp
  42:	00 2e                	add    %ch,(%esi)
  44:	2f                   	das
  45:	69 6e 63 6c 75 64 65 	imul   $0x6564756c,0x63(%esi),%ebp
  4c:	00 2e                	add    %ch,(%esi)
  4e:	2f                   	das
  4f:	69 6e 63 6c 75 64 65 	imul   $0x6564756c,0x63(%esi),%ebp
  56:	2f                   	das
  57:	73 79                	jae    d2 <deregister_tm_clones+0x1a>
  59:	73 00                	jae    5b <_init-0x19>
  5b:	2e 2f                	cs das
  5d:	69 6e 63 6c 75 64 65 	imul   $0x6564756c,0x63(%esi),%ebp
  64:	2f                   	das
  65:	69 6e 74 65 72 6e 61 	imul   $0x616e7265,0x74(%esi),%ebp
  6c:	6c                   	insb   (%dx),%es:(%edi)
  6d:	00 73 74             	add    %dh,0x74(%ebx)
  70:	64 69 6f 2e 68 00 73 	imul   $0x74730068,%fs:0x2e(%edi),%ebp
  77:	74 
  78:	64 61                	fs popa
  7a:	72 67                	jb     e3 <deregister_tm_clones+0x2b>
  7c:	2e 68 00 73 74 72    	cs push $0x72747300
  82:	69 6e 67 2e 68 00 73 	imul   $0x7300682e,0x67(%esi),%ebp
  89:	74 64                	je     ef <register_tm_clones+0xb>
  8b:	6c                   	insb   (%dx),%es:(%edi)
  8c:	69 62 2e 68 00 6c 69 	imul   $0x696c0068,0x2e(%edx),%esp
  93:	62 63 5f             	bound  %esp,0x5f(%ebx)
  96:	73 72                	jae    10a <register_tm_clones+0x26>
  98:	63 2f                	arpl   %ebp,(%edi)
  9a:	73 74                	jae    110 <register_tm_clones+0x2c>
  9c:	64 6c                	fs insb (%dx),%es:(%edi)
  9e:	69 62 2e 63 00 63 74 	imul   $0x74630063,0x2e(%edx),%esp
  a5:	79 70                	jns    117 <register_tm_clones+0x33>
  a7:	65 2e 68 00 6d 65 6d 	gs cs push $0x6d656d00
  ae:	6f                   	outsl  %ds:(%esi),(%dx)
  af:	72 79                	jb     12a <__do_global_dtors_aux+0xe>
  b1:	2e 68 00 6c 69 62    	cs push $0x62696c00
  b7:	63 5f 73             	arpl   %ebx,0x73(%edi)
  ba:	72 63                	jb     11f <__do_global_dtors_aux+0x3>
  bc:	2f                   	das
  bd:	73 74                	jae    133 <__do_global_dtors_aux+0x17>
  bf:	72 69                	jb     12a <__do_global_dtors_aux+0xe>
  c1:	6e                   	outsb  %ds:(%esi),(%dx)
  c2:	67 2e 63 00          	arpl   %eax,%cs:(%bx,%si)
  c6:	73 74                	jae    13c <__do_global_dtors_aux+0x20>
  c8:	64 69 6e 74 2e 68 00 	imul   $0x6c00682e,%fs:0x74(%esi),%ebp
  cf:	6c 
  d0:	69 62 63 5f 73 72 63 	imul   $0x6372735f,0x63(%edx),%esp
  d7:	2f                   	das
  d8:	73 79                	jae    153 <__do_global_dtors_aux+0x37>
  da:	73 2f                	jae    10b <register_tm_clones+0x27>
  dc:	69 6f 2e 63 00 6c 69 	imul   $0x696c0063,0x2e(%edi),%ebp
  e3:	62 63 5f             	bound  %esp,0x5f(%ebx)
  e6:	73 72                	jae    15a <__do_global_dtors_aux+0x3e>
  e8:	63 2f                	arpl   %ebp,(%edi)
  ea:	73 79                	jae    165 <__do_global_dtors_aux+0x49>
  ec:	73 00                	jae    ee <register_tm_clones+0xa>
  ee:	6c                   	insb   (%dx),%es:(%edi)
  ef:	69 62 63 5f 73 72 63 	imul   $0x6372735f,0x63(%edx),%esp
  f6:	2f                   	das
  f7:	73 79                	jae    172 <__do_global_dtors_aux+0x56>
  f9:	73 2f                	jae    12a <__do_global_dtors_aux+0xe>
  fb:	6d                   	insl   (%dx),%es:(%edi)
  fc:	65 6d                	gs insl (%dx),%es:(%edi)
  fe:	6f                   	outsl  %ds:(%esi),(%dx)
  ff:	72 79                	jb     17a <__do_global_dtors_aux+0x5e>
 101:	2e 63 00             	arpl   %eax,%cs:(%eax)
 104:	6c                   	insb   (%dx),%es:(%edi)
 105:	69 62 63 5f 73 72 63 	imul   $0x6372735f,0x63(%edx),%esp
 10c:	2f                   	das
 10d:	73 79                	jae    188 <__do_global_dtors_aux+0x6c>
 10f:	73 2f                	jae    140 <__do_global_dtors_aux+0x24>
 111:	74 61                	je     174 <__do_global_dtors_aux+0x58>
 113:	73 6b                	jae    180 <__do_global_dtors_aux+0x64>
 115:	2e 63 00             	arpl   %eax,%cs:(%eax)
 118:	74 61                	je     17b <__do_global_dtors_aux+0x5f>
 11a:	73 6b                	jae    187 <__do_global_dtors_aux+0x6b>
 11c:	2e 68 00 6c 69 62    	cs push $0x62696c00
 122:	63 5f 73             	arpl   %ebx,0x73(%edi)
 125:	72 63                	jb     18a <__do_global_dtors_aux+0x6e>
 127:	2f                   	das
 128:	73 79                	jae    1a3 <frame_dummy+0x17>
 12a:	73 2f                	jae    15b <__do_global_dtors_aux+0x3f>
 12c:	76 70                	jbe    19e <frame_dummy+0x12>
 12e:	2e 63 00             	arpl   %eax,%cs:(%eax)
 131:	76 70                	jbe    1a3 <frame_dummy+0x17>
 133:	2e 68 00 6c 69 62    	cs push $0x62696c00
 139:	63 5f 73             	arpl   %ebx,0x73(%edi)
 13c:	72 63                	jb     1a1 <frame_dummy+0x15>
 13e:	2f                   	das
 13f:	63 74 79 70          	arpl   %esi,0x70(%ecx,%edi,2)
 143:	65 2e 63 00          	gs arpl %eax,%cs:(%eax)

Disassembly of section .debug_rnglists:

00000000 <.debug_rnglists>:
   0:	29 00                	sub    %eax,(%eax)
   2:	00 00                	add    %al,(%eax)
   4:	05 00 04 00 00       	add    $0x400,%eax
   9:	00 00                	add    %al,(%eax)
   b:	00 04 91             	add    %al,(%ecx,%edx,4)
   e:	12 f5                	adc    %ch,%dh
  10:	12 04 e7             	adc    (%edi,%eiz,8),%al
  13:	14 ea                	adc    $0xea,%al
  15:	14 00                	adc    $0x0,%al
  17:	04 f5                	add    $0xf5,%al
  19:	12 f0                	adc    %al,%dh
  1b:	13 04 ea             	adc    (%edx,%ebp,8),%eax
  1e:	14 ed                	adc    $0xed,%al
  20:	14 00                	adc    $0x0,%al
  22:	04 f0                	add    $0xf0,%al
  24:	13 e7                	adc    %edi,%esp
  26:	14 04                	adc    $0x4,%al
  28:	ed                   	in     (%dx),%eax
  29:	14 ee                	adc    $0xee,%al
  2b:	14 00                	adc    $0x0,%al
