
service.elf:     file format elf32-i386


Disassembly of section .init:

00000074 <_init>:
  74:	e8 13 01 00 00       	call   18c <frame_dummy>
  79:	e8 d6 23 00 00       	call   2454 <__do_global_ctors_aux>
  7e:	c2 00 00             	ret    $0x0

Disassembly of section .text:

00000084 <_start>:
      84:	55                   	push   %ebp
      85:	89 e5                	mov    %esp,%ebp
      87:	83 ec 08             	sub    $0x8,%esp
      8a:	c7 05 14 36 00 00 00 	movl   $0x0,0x3614
      91:	00 00 00 
      94:	e8 4a 0e 00 00       	call   ee3 <init_stdlib>
      99:	e8 ec 03 00 00       	call   48a <init_stdio>
      9e:	83 ec 08             	sub    $0x8,%esp
      a1:	ff 75 0c             	push   0xc(%ebp)
      a4:	ff 75 08             	push   0x8(%ebp)
      a7:	e8 01 02 00 00       	call   2ad <main>
      ac:	83 c4 10             	add    $0x10,%esp
      af:	e8 93 0e 00 00       	call   f47 <clean_stdlib>
      b4:	90                   	nop
      b5:	c9                   	leave
      b6:	c3                   	ret
      b7:	90                   	nop

000000b8 <deregister_tm_clones>:
      b8:	b8 b4 35 00 00       	mov    $0x35b4,%eax
      bd:	3d b4 35 00 00       	cmp    $0x35b4,%eax
      c2:	74 1c                	je     e0 <deregister_tm_clones+0x28>
      c4:	b8 00 00 00 00       	mov    $0x0,%eax
      c9:	85 c0                	test   %eax,%eax
      cb:	74 13                	je     e0 <deregister_tm_clones+0x28>
      cd:	55                   	push   %ebp
      ce:	89 e5                	mov    %esp,%ebp
      d0:	83 ec 14             	sub    $0x14,%esp
      d3:	68 b4 35 00 00       	push   $0x35b4
      d8:	ff d0                	call   *%eax
      da:	83 c4 10             	add    $0x10,%esp
      dd:	c9                   	leave
      de:	c3                   	ret
      df:	90                   	nop
      e0:	c3                   	ret
      e1:	8d 76 00             	lea    0x0(%esi),%esi

000000e4 <register_tm_clones>:
      e4:	b8 b4 35 00 00       	mov    $0x35b4,%eax
      e9:	2d b4 35 00 00       	sub    $0x35b4,%eax
      ee:	89 c2                	mov    %eax,%edx
      f0:	c1 fa 02             	sar    $0x2,%edx
      f3:	c1 e8 1f             	shr    $0x1f,%eax
      f6:	01 d0                	add    %edx,%eax
      f8:	d1 f8                	sar    $1,%eax
      fa:	74 1c                	je     118 <register_tm_clones+0x34>
      fc:	ba 00 00 00 00       	mov    $0x0,%edx
     101:	85 d2                	test   %edx,%edx
     103:	74 13                	je     118 <register_tm_clones+0x34>
     105:	55                   	push   %ebp
     106:	89 e5                	mov    %esp,%ebp
     108:	83 ec 10             	sub    $0x10,%esp
     10b:	50                   	push   %eax
     10c:	68 b4 35 00 00       	push   $0x35b4
     111:	ff d2                	call   *%edx
     113:	83 c4 10             	add    $0x10,%esp
     116:	c9                   	leave
     117:	c3                   	ret
     118:	c3                   	ret
     119:	8d 76 00             	lea    0x0(%esi),%esi

0000011c <__do_global_dtors_aux>:
     11c:	80 3d b4 35 00 00 00 	cmpb   $0x0,0x35b4
     123:	75 63                	jne    188 <__do_global_dtors_aux+0x6c>
     125:	55                   	push   %ebp
     126:	89 e5                	mov    %esp,%ebp
     128:	56                   	push   %esi
     129:	53                   	push   %ebx
     12a:	be 9c 35 00 00       	mov    $0x359c,%esi
     12f:	a1 b8 35 00 00       	mov    0x35b8,%eax
     134:	bb a0 35 00 00       	mov    $0x35a0,%ebx
     139:	81 eb 9c 35 00 00    	sub    $0x359c,%ebx
     13f:	c1 fb 02             	sar    $0x2,%ebx
     142:	4b                   	dec    %ebx
     143:	39 d8                	cmp    %ebx,%eax
     145:	73 13                	jae    15a <__do_global_dtors_aux+0x3e>
     147:	90                   	nop
     148:	40                   	inc    %eax
     149:	a3 b8 35 00 00       	mov    %eax,0x35b8
     14e:	ff 14 86             	call   *(%esi,%eax,4)
     151:	a1 b8 35 00 00       	mov    0x35b8,%eax
     156:	39 d8                	cmp    %ebx,%eax
     158:	72 ee                	jb     148 <__do_global_dtors_aux+0x2c>
     15a:	e8 59 ff ff ff       	call   b8 <deregister_tm_clones>
     15f:	b8 00 00 00 00       	mov    $0x0,%eax
     164:	85 c0                	test   %eax,%eax
     166:	74 10                	je     178 <__do_global_dtors_aux+0x5c>
     168:	83 ec 0c             	sub    $0xc,%esp
     16b:	68 90 25 00 00       	push   $0x2590
     170:	e8 8b fe ff ff       	call   0 <_init-0x74>
     175:	83 c4 10             	add    $0x10,%esp
     178:	c6 05 b4 35 00 00 01 	movb   $0x1,0x35b4
     17f:	8d 65 f8             	lea    -0x8(%ebp),%esp
     182:	5b                   	pop    %ebx
     183:	5e                   	pop    %esi
     184:	5d                   	pop    %ebp
     185:	c3                   	ret
     186:	66 90                	xchg   %ax,%ax
     188:	c3                   	ret
     189:	8d 76 00             	lea    0x0(%esi),%esi

0000018c <frame_dummy>:
     18c:	b8 00 00 00 00       	mov    $0x0,%eax
     191:	85 c0                	test   %eax,%eax
     193:	74 1f                	je     1b4 <frame_dummy+0x28>
     195:	55                   	push   %ebp
     196:	89 e5                	mov    %esp,%ebp
     198:	83 ec 10             	sub    $0x10,%esp
     19b:	68 bc 35 00 00       	push   $0x35bc
     1a0:	68 90 25 00 00       	push   $0x2590
     1a5:	e8 56 fe ff ff       	call   0 <_init-0x74>
     1aa:	83 c4 10             	add    $0x10,%esp
     1ad:	c9                   	leave
     1ae:	e9 31 ff ff ff       	jmp    e4 <register_tm_clones>
     1b3:	90                   	nop
     1b4:	e9 2b ff ff ff       	jmp    e4 <register_tm_clones>

000001b9 <fib>:
     1b9:	55                   	push   %ebp
     1ba:	89 e5                	mov    %esp,%ebp
     1bc:	83 ec 18             	sub    $0x18,%esp
     1bf:	c7 45 e8 00 00 00 00 	movl   $0x0,-0x18(%ebp)
     1c6:	c7 45 f0 01 00 00 00 	movl   $0x1,-0x10(%ebp)
     1cd:	8b 55 e8             	mov    -0x18(%ebp),%edx
     1d0:	8b 45 f0             	mov    -0x10(%ebp),%eax
     1d3:	01 d0                	add    %edx,%eax
     1d5:	89 45 ec             	mov    %eax,-0x14(%ebp)
     1d8:	a1 d4 35 00 00       	mov    0x35d4,%eax
     1dd:	ff 75 f0             	push   -0x10(%ebp)
     1e0:	ff 75 e8             	push   -0x18(%ebp)
     1e3:	68 88 24 00 00       	push   $0x2488
     1e8:	50                   	push   %eax
     1e9:	e8 f5 04 00 00       	call   6e3 <fprintf>
     1ee:	83 c4 10             	add    $0x10,%esp
     1f1:	c7 45 f4 03 00 00 00 	movl   $0x3,-0xc(%ebp)
     1f8:	eb 33                	jmp    22d <fib+0x74>
     1fa:	a1 d4 35 00 00       	mov    0x35d4,%eax
     1ff:	83 ec 04             	sub    $0x4,%esp
     202:	ff 75 ec             	push   -0x14(%ebp)
     205:	68 a3 24 00 00       	push   $0x24a3
     20a:	50                   	push   %eax
     20b:	e8 d3 04 00 00       	call   6e3 <fprintf>
     210:	83 c4 10             	add    $0x10,%esp
     213:	8b 45 f0             	mov    -0x10(%ebp),%eax
     216:	89 45 e8             	mov    %eax,-0x18(%ebp)
     219:	8b 45 ec             	mov    -0x14(%ebp),%eax
     21c:	89 45 f0             	mov    %eax,-0x10(%ebp)
     21f:	8b 55 e8             	mov    -0x18(%ebp),%edx
     222:	8b 45 f0             	mov    -0x10(%ebp),%eax
     225:	01 d0                	add    %edx,%eax
     227:	89 45 ec             	mov    %eax,-0x14(%ebp)
     22a:	ff 45 f4             	incl   -0xc(%ebp)
     22d:	8b 45 f4             	mov    -0xc(%ebp),%eax
     230:	3b 45 08             	cmp    0x8(%ebp),%eax
     233:	7e c5                	jle    1fa <fib+0x41>
     235:	a1 d4 35 00 00       	mov    0x35d4,%eax
     23a:	83 ec 08             	sub    $0x8,%esp
     23d:	50                   	push   %eax
     23e:	6a 0a                	push   $0xa
     240:	e8 e8 09 00 00       	call   c2d <fputc>
     245:	83 c4 10             	add    $0x10,%esp
     248:	90                   	nop
     249:	c9                   	leave
     24a:	c3                   	ret

0000024b <read_notification>:
     24b:	55                   	push   %ebp
     24c:	89 e5                	mov    %esp,%ebp
     24e:	83 ec 08             	sub    $0x8,%esp
     251:	a1 d4 35 00 00       	mov    0x35d4,%eax
     256:	50                   	push   %eax
     257:	6a 20                	push   $0x20
     259:	6a 01                	push   $0x1
     25b:	68 a8 24 00 00       	push   $0x24a8
     260:	e8 f2 06 00 00       	call   957 <fwrite>
     265:	83 c4 10             	add    $0x10,%esp
     268:	a1 d8 35 00 00       	mov    0x35d8,%eax
     26d:	83 ec 04             	sub    $0x4,%esp
     270:	68 e8 03 00 00       	push   $0x3e8
     275:	6a 00                	push   $0x0
     277:	50                   	push   %eax
     278:	e8 d1 13 00 00       	call   164e <memset>
     27d:	83 c4 10             	add    $0x10,%esp
     280:	a1 dc 35 00 00       	mov    0x35dc,%eax
     285:	40                   	inc    %eax
     286:	a3 dc 35 00 00       	mov    %eax,0x35dc
     28b:	8b 15 dc 35 00 00    	mov    0x35dc,%edx
     291:	a1 d8 35 00 00       	mov    0x35d8,%eax
     296:	52                   	push   %edx
     297:	68 c9 24 00 00       	push   $0x24c9
     29c:	68 e8 03 00 00       	push   $0x3e8
     2a1:	50                   	push   %eax
     2a2:	e8 14 0a 00 00       	call   cbb <snprintf>
     2a7:	83 c4 10             	add    $0x10,%esp
     2aa:	90                   	nop
     2ab:	c9                   	leave
     2ac:	c3                   	ret

000002ad <main>:
     2ad:	8d 4c 24 04          	lea    0x4(%esp),%ecx
     2b1:	83 e4 f0             	and    $0xfffffff0,%esp
     2b4:	ff 71 fc             	push   -0x4(%ecx)
     2b7:	55                   	push   %ebp
     2b8:	89 e5                	mov    %esp,%ebp
     2ba:	51                   	push   %ecx
     2bb:	83 ec 34             	sub    $0x34,%esp
     2be:	83 ec 08             	sub    $0x8,%esp
     2c1:	68 b9 01 00 00       	push   $0x1b9
     2c6:	68 d8 24 00 00       	push   $0x24d8
     2cb:	e8 46 04 00 00       	call   716 <printf>
     2d0:	83 c4 10             	add    $0x10,%esp
     2d3:	83 ec 08             	sub    $0x8,%esp
     2d6:	68 fc 24 00 00       	push   $0x24fc
     2db:	68 fe 24 00 00       	push   $0x24fe
     2e0:	e8 25 05 00 00       	call   80a <fopen>
     2e5:	83 c4 10             	add    $0x10,%esp
     2e8:	a3 d4 35 00 00       	mov    %eax,0x35d4
     2ed:	83 ec 0c             	sub    $0xc,%esp
     2f0:	6a 0a                	push   $0xa
     2f2:	e8 c2 fe ff ff       	call   1b9 <fib>
     2f7:	83 c4 10             	add    $0x10,%esp
     2fa:	83 ec 08             	sub    $0x8,%esp
     2fd:	68 0c 25 00 00       	push   $0x250c
     302:	68 0e 25 00 00       	push   $0x250e
     307:	e8 fe 04 00 00       	call   80a <fopen>
     30c:	83 c4 10             	add    $0x10,%esp
     30f:	89 45 f4             	mov    %eax,-0xc(%ebp)
     312:	83 7d f4 00          	cmpl   $0x0,-0xc(%ebp)
     316:	75 1a                	jne    332 <main+0x85>
     318:	83 ec 0c             	sub    $0xc,%esp
     31b:	68 18 25 00 00       	push   $0x2518
     320:	e8 8a 04 00 00       	call   7af <puts>
     325:	83 c4 10             	add    $0x10,%esp
     328:	b8 01 00 00 00       	mov    $0x1,%eax
     32d:	e9 13 01 00 00       	jmp    445 <main+0x198>
     332:	ff 75 f4             	push   -0xc(%ebp)
     335:	6a 01                	push   $0x1
     337:	6a 18                	push   $0x18
     339:	8d 45 cc             	lea    -0x34(%ebp),%eax
     33c:	50                   	push   %eax
     33d:	e8 88 06 00 00       	call   9ca <fread>
     342:	83 c4 10             	add    $0x10,%esp
     345:	83 ec 0c             	sub    $0xc,%esp
     348:	ff 75 f4             	push   -0xc(%ebp)
     34b:	e8 71 05 00 00       	call   8c1 <fclose>
     350:	83 c4 10             	add    $0x10,%esp
     353:	8b 45 cc             	mov    -0x34(%ebp),%eax
     356:	83 ec 0c             	sub    $0xc,%esp
     359:	68 2a 25 00 00       	push   $0x252a
     35e:	ff d0                	call   *%eax
     360:	83 c4 10             	add    $0x10,%esp
     363:	89 45 f0             	mov    %eax,-0x10(%ebp)
     366:	8b 45 d8             	mov    -0x28(%ebp),%eax
     369:	8b 55 e0             	mov    -0x20(%ebp),%edx
     36c:	83 ec 08             	sub    $0x8,%esp
     36f:	ff 75 f0             	push   -0x10(%ebp)
     372:	52                   	push   %edx
     373:	ff d0                	call   *%eax
     375:	83 c4 10             	add    $0x10,%esp
     378:	83 ec 0c             	sub    $0xc,%esp
     37b:	68 e8 03 00 00       	push   $0x3e8
     380:	e8 fb 0b 00 00       	call   f80 <malloc>
     385:	83 c4 10             	add    $0x10,%esp
     388:	a3 d8 35 00 00       	mov    %eax,0x35d8
     38d:	c7 05 dc 35 00 00 00 	movl   $0x0,0x35dc
     394:	00 00 00 
     397:	a1 d8 35 00 00       	mov    0x35d8,%eax
     39c:	83 ec 04             	sub    $0x4,%esp
     39f:	68 e8 03 00 00       	push   $0x3e8
     3a4:	6a 00                	push   $0x0
     3a6:	50                   	push   %eax
     3a7:	e8 a2 12 00 00       	call   164e <memset>
     3ac:	83 c4 10             	add    $0x10,%esp
     3af:	8b 15 dc 35 00 00    	mov    0x35dc,%edx
     3b5:	a1 d8 35 00 00       	mov    0x35d8,%eax
     3ba:	52                   	push   %edx
     3bb:	68 c9 24 00 00       	push   $0x24c9
     3c0:	68 e8 03 00 00       	push   $0x3e8
     3c5:	50                   	push   %eax
     3c6:	e8 f0 08 00 00       	call   cbb <snprintf>
     3cb:	83 c4 10             	add    $0x10,%esp
     3ce:	8b 45 d4             	mov    -0x2c(%ebp),%eax
     3d1:	8b 15 d8 35 00 00    	mov    0x35d8,%edx
     3d7:	83 ec 04             	sub    $0x4,%esp
     3da:	6a 02                	push   $0x2
     3dc:	68 e8 03 00 00       	push   $0x3e8
     3e1:	52                   	push   %edx
     3e2:	ff d0                	call   *%eax
     3e4:	83 c4 10             	add    $0x10,%esp
     3e7:	89 45 ec             	mov    %eax,-0x14(%ebp)
     3ea:	c7 45 e8 4b 02 00 00 	movl   $0x24b,-0x18(%ebp)
     3f1:	8b 45 dc             	mov    -0x24(%ebp),%eax
     3f4:	8b 55 e8             	mov    -0x18(%ebp),%edx
     3f7:	81 c2 00 00 80 22    	add    $0x22800000,%edx
     3fd:	83 ec 0c             	sub    $0xc,%esp
     400:	6a 00                	push   $0x0
     402:	6a 00                	push   $0x0
     404:	52                   	push   %edx
     405:	6a 00                	push   $0x0
     407:	ff 75 ec             	push   -0x14(%ebp)
     40a:	ff d0                	call   *%eax
     40c:	83 c4 20             	add    $0x20,%esp
     40f:	8b 45 d0             	mov    -0x30(%ebp),%eax
     412:	83 ec 08             	sub    $0x8,%esp
     415:	ff 75 ec             	push   -0x14(%ebp)
     418:	68 2f 25 00 00       	push   $0x252f
     41d:	ff d0                	call   *%eax
     41f:	83 c4 10             	add    $0x10,%esp
     422:	89 45 e4             	mov    %eax,-0x1c(%ebp)
     425:	8b 45 d8             	mov    -0x28(%ebp),%eax
     428:	83 ec 08             	sub    $0x8,%esp
     42b:	ff 75 e4             	push   -0x1c(%ebp)
     42e:	ff 75 f0             	push   -0x10(%ebp)
     431:	ff d0                	call   *%eax
     433:	83 c4 10             	add    $0x10,%esp
     436:	83 ec 0c             	sub    $0xc,%esp
     439:	6a 04                	push   $0x4
     43b:	e8 98 1c 00 00       	call   20d8 <set_schedule>
     440:	83 c4 10             	add    $0x10,%esp
     443:	eb fe                	jmp    443 <main+0x196>
     445:	8b 4d fc             	mov    -0x4(%ebp),%ecx
     448:	c9                   	leave
     449:	8d 61 fc             	lea    -0x4(%ecx),%esp
     44c:	c3                   	ret

0000044d <internal_createFileFD>:
     44d:	55                   	push   %ebp
     44e:	89 e5                	mov    %esp,%ebp
     450:	53                   	push   %ebx
     451:	83 ec 14             	sub    $0x14,%esp
     454:	e8 82 0a 00 00       	call   edb <__x86.get_pc_thunk.ax>
     459:	05 4b 31 00 00       	add    $0x314b,%eax
     45e:	83 ec 0c             	sub    $0xc,%esp
     461:	6a 08                	push   $0x8
     463:	89 c3                	mov    %eax,%ebx
     465:	e8 16 0b 00 00       	call   f80 <malloc>
     46a:	83 c4 10             	add    $0x10,%esp
     46d:	89 45 f4             	mov    %eax,-0xc(%ebp)
     470:	8b 45 f4             	mov    -0xc(%ebp),%eax
     473:	c7 00 00 00 00 00    	movl   $0x0,(%eax)
     479:	8b 45 f4             	mov    -0xc(%ebp),%eax
     47c:	8b 55 08             	mov    0x8(%ebp),%edx
     47f:	89 50 04             	mov    %edx,0x4(%eax)
     482:	8b 45 f4             	mov    -0xc(%ebp),%eax
     485:	8b 5d fc             	mov    -0x4(%ebp),%ebx
     488:	c9                   	leave
     489:	c3                   	ret

0000048a <init_stdio>:
     48a:	55                   	push   %ebp
     48b:	89 e5                	mov    %esp,%ebp
     48d:	56                   	push   %esi
     48e:	53                   	push   %ebx
     48f:	e8 4b 0a 00 00       	call   edf <__x86.get_pc_thunk.bx>
     494:	81 c3 10 31 00 00    	add    $0x3110,%ebx
     49a:	83 ec 0c             	sub    $0xc,%esp
     49d:	6a 28                	push   $0x28
     49f:	e8 dc 0a 00 00       	call   f80 <malloc>
     4a4:	83 c4 10             	add    $0x10,%esp
     4a7:	c7 c2 e0 35 00 00    	mov    $0x35e0,%edx
     4ad:	89 02                	mov    %eax,(%edx)
     4af:	c7 c0 e0 35 00 00    	mov    $0x35e0,%eax
     4b5:	8b 00                	mov    (%eax),%eax
     4b7:	83 ec 04             	sub    $0x4,%esp
     4ba:	6a 04                	push   $0x4
     4bc:	6a 00                	push   $0x0
     4be:	50                   	push   %eax
     4bf:	e8 8a 11 00 00       	call   164e <memset>
     4c4:	83 c4 10             	add    $0x10,%esp
     4c7:	c7 c0 e0 35 00 00    	mov    $0x35e0,%eax
     4cd:	8b 00                	mov    (%eax),%eax
     4cf:	c7 00 00 00 00 00    	movl   $0x0,(%eax)
     4d5:	83 ec 08             	sub    $0x8,%esp
     4d8:	6a 02                	push   $0x2
     4da:	8d 83 90 ef ff ff    	lea    -0x1070(%ebx),%eax
     4e0:	50                   	push   %eax
     4e1:	e8 43 1a 00 00       	call   1f29 <open>
     4e6:	83 c4 10             	add    $0x10,%esp
     4e9:	c7 c2 e0 35 00 00    	mov    $0x35e0,%edx
     4ef:	8b 12                	mov    (%edx),%edx
     4f1:	8d 72 04             	lea    0x4(%edx),%esi
     4f4:	83 ec 0c             	sub    $0xc,%esp
     4f7:	50                   	push   %eax
     4f8:	e8 50 ff ff ff       	call   44d <internal_createFileFD>
     4fd:	83 c4 10             	add    $0x10,%esp
     500:	89 06                	mov    %eax,(%esi)
     502:	c7 c0 e0 35 00 00    	mov    $0x35e0,%eax
     508:	8b 00                	mov    (%eax),%eax
     50a:	c7 c2 e0 35 00 00    	mov    $0x35e0,%edx
     510:	8b 12                	mov    (%edx),%edx
     512:	83 c2 08             	add    $0x8,%edx
     515:	8b 40 04             	mov    0x4(%eax),%eax
     518:	89 02                	mov    %eax,(%edx)
     51a:	c7 c0 e4 35 00 00    	mov    $0x35e4,%eax
     520:	c7 00 03 00 00 00    	movl   $0x3,(%eax)
     526:	90                   	nop
     527:	8d 65 f8             	lea    -0x8(%ebp),%esp
     52a:	5b                   	pop    %ebx
     52b:	5e                   	pop    %esi
     52c:	5d                   	pop    %ebp
     52d:	c3                   	ret

0000052e <vfprintf>:
     52e:	55                   	push   %ebp
     52f:	89 e5                	mov    %esp,%ebp
     531:	53                   	push   %ebx
     532:	83 ec 44             	sub    $0x44,%esp
     535:	e8 a5 09 00 00       	call   edf <__x86.get_pc_thunk.bx>
     53a:	81 c3 6a 30 00 00    	add    $0x306a,%ebx
     540:	c7 45 f4 00 00 00 00 	movl   $0x0,-0xc(%ebp)
     547:	83 7d 08 00          	cmpl   $0x0,0x8(%ebp)
     54b:	0f 85 7d 01 00 00    	jne    6ce <vfprintf+0x1a0>
     551:	b8 00 00 00 00       	mov    $0x0,%eax
     556:	e9 83 01 00 00       	jmp    6de <vfprintf+0x1b0>
     55b:	8b 45 0c             	mov    0xc(%ebp),%eax
     55e:	8a 00                	mov    (%eax),%al
     560:	3c 25                	cmp    $0x25,%al
     562:	74 22                	je     586 <vfprintf+0x58>
     564:	ff 75 08             	push   0x8(%ebp)
     567:	6a 01                	push   $0x1
     569:	6a 01                	push   $0x1
     56b:	ff 75 0c             	push   0xc(%ebp)
     56e:	e8 e4 03 00 00       	call   957 <fwrite>
     573:	83 c4 10             	add    $0x10,%esp
     576:	8b 55 f4             	mov    -0xc(%ebp),%edx
     579:	01 d0                	add    %edx,%eax
     57b:	89 45 f4             	mov    %eax,-0xc(%ebp)
     57e:	ff 45 0c             	incl   0xc(%ebp)
     581:	e9 48 01 00 00       	jmp    6ce <vfprintf+0x1a0>
     586:	ff 45 0c             	incl   0xc(%ebp)
     589:	8b 45 0c             	mov    0xc(%ebp),%eax
     58c:	8a 00                	mov    (%eax),%al
     58e:	0f be c0             	movsbl %al,%eax
     591:	83 f8 78             	cmp    $0x78,%eax
     594:	0f 84 e3 00 00 00    	je     67d <vfprintf+0x14f>
     59a:	83 f8 78             	cmp    $0x78,%eax
     59d:	0f 8f 28 01 00 00    	jg     6cb <vfprintf+0x19d>
     5a3:	83 f8 73             	cmp    $0x73,%eax
     5a6:	0f 84 99 00 00 00    	je     645 <vfprintf+0x117>
     5ac:	83 f8 73             	cmp    $0x73,%eax
     5af:	0f 8f 16 01 00 00    	jg     6cb <vfprintf+0x19d>
     5b5:	83 f8 64             	cmp    $0x64,%eax
     5b8:	74 39                	je     5f3 <vfprintf+0xc5>
     5ba:	83 f8 64             	cmp    $0x64,%eax
     5bd:	0f 8f 08 01 00 00    	jg     6cb <vfprintf+0x19d>
     5c3:	83 f8 25             	cmp    $0x25,%eax
     5c6:	74 08                	je     5d0 <vfprintf+0xa2>
     5c8:	83 f8 46             	cmp    $0x46,%eax
     5cb:	e9 fb 00 00 00       	jmp    6cb <vfprintf+0x19d>
     5d0:	ff 75 08             	push   0x8(%ebp)
     5d3:	6a 01                	push   $0x1
     5d5:	6a 01                	push   $0x1
     5d7:	8d 83 9f ef ff ff    	lea    -0x1061(%ebx),%eax
     5dd:	50                   	push   %eax
     5de:	e8 74 03 00 00       	call   957 <fwrite>
     5e3:	83 c4 10             	add    $0x10,%esp
     5e6:	8b 55 f4             	mov    -0xc(%ebp),%edx
     5e9:	01 d0                	add    %edx,%eax
     5eb:	89 45 f4             	mov    %eax,-0xc(%ebp)
     5ee:	e9 d8 00 00 00       	jmp    6cb <vfprintf+0x19d>
     5f3:	8b 45 10             	mov    0x10(%ebp),%eax
     5f6:	8d 50 04             	lea    0x4(%eax),%edx
     5f9:	89 55 10             	mov    %edx,0x10(%ebp)
     5fc:	8b 00                	mov    (%eax),%eax
     5fe:	89 45 f0             	mov    %eax,-0x10(%ebp)
     601:	83 ec 04             	sub    $0x4,%esp
     604:	6a 0a                	push   $0xa
     606:	8d 45 c0             	lea    -0x40(%ebp),%eax
     609:	50                   	push   %eax
     60a:	ff 75 f0             	push   -0x10(%ebp)
     60d:	e8 be 0b 00 00       	call   11d0 <itoa>
     612:	83 c4 10             	add    $0x10,%esp
     615:	89 45 ec             	mov    %eax,-0x14(%ebp)
     618:	83 ec 0c             	sub    $0xc,%esp
     61b:	ff 75 ec             	push   -0x14(%ebp)
     61e:	e8 b5 11 00 00       	call   17d8 <strlen>
     623:	83 c4 10             	add    $0x10,%esp
     626:	40                   	inc    %eax
     627:	ff 75 08             	push   0x8(%ebp)
     62a:	6a 01                	push   $0x1
     62c:	50                   	push   %eax
     62d:	ff 75 ec             	push   -0x14(%ebp)
     630:	e8 22 03 00 00       	call   957 <fwrite>
     635:	83 c4 10             	add    $0x10,%esp
     638:	8b 55 f4             	mov    -0xc(%ebp),%edx
     63b:	01 d0                	add    %edx,%eax
     63d:	89 45 f4             	mov    %eax,-0xc(%ebp)
     640:	e9 86 00 00 00       	jmp    6cb <vfprintf+0x19d>
     645:	8b 45 10             	mov    0x10(%ebp),%eax
     648:	8d 50 04             	lea    0x4(%eax),%edx
     64b:	89 55 10             	mov    %edx,0x10(%ebp)
     64e:	8b 00                	mov    (%eax),%eax
     650:	89 45 e8             	mov    %eax,-0x18(%ebp)
     653:	83 ec 0c             	sub    $0xc,%esp
     656:	ff 75 e8             	push   -0x18(%ebp)
     659:	e8 7a 11 00 00       	call   17d8 <strlen>
     65e:	83 c4 10             	add    $0x10,%esp
     661:	40                   	inc    %eax
     662:	ff 75 08             	push   0x8(%ebp)
     665:	6a 01                	push   $0x1
     667:	50                   	push   %eax
     668:	ff 75 e8             	push   -0x18(%ebp)
     66b:	e8 e7 02 00 00       	call   957 <fwrite>
     670:	83 c4 10             	add    $0x10,%esp
     673:	8b 55 f4             	mov    -0xc(%ebp),%edx
     676:	01 d0                	add    %edx,%eax
     678:	89 45 f4             	mov    %eax,-0xc(%ebp)
     67b:	eb 4e                	jmp    6cb <vfprintf+0x19d>
     67d:	8b 45 10             	mov    0x10(%ebp),%eax
     680:	8d 50 04             	lea    0x4(%eax),%edx
     683:	89 55 10             	mov    %edx,0x10(%ebp)
     686:	8b 00                	mov    (%eax),%eax
     688:	89 45 f0             	mov    %eax,-0x10(%ebp)
     68b:	83 ec 04             	sub    $0x4,%esp
     68e:	6a 10                	push   $0x10
     690:	8d 45 c0             	lea    -0x40(%ebp),%eax
     693:	50                   	push   %eax
     694:	ff 75 f0             	push   -0x10(%ebp)
     697:	e8 34 0b 00 00       	call   11d0 <itoa>
     69c:	83 c4 10             	add    $0x10,%esp
     69f:	89 45 ec             	mov    %eax,-0x14(%ebp)
     6a2:	83 ec 0c             	sub    $0xc,%esp
     6a5:	ff 75 ec             	push   -0x14(%ebp)
     6a8:	e8 2b 11 00 00       	call   17d8 <strlen>
     6ad:	83 c4 10             	add    $0x10,%esp
     6b0:	40                   	inc    %eax
     6b1:	ff 75 08             	push   0x8(%ebp)
     6b4:	6a 01                	push   $0x1
     6b6:	50                   	push   %eax
     6b7:	ff 75 ec             	push   -0x14(%ebp)
     6ba:	e8 98 02 00 00       	call   957 <fwrite>
     6bf:	83 c4 10             	add    $0x10,%esp
     6c2:	8b 55 f4             	mov    -0xc(%ebp),%edx
     6c5:	01 d0                	add    %edx,%eax
     6c7:	89 45 f4             	mov    %eax,-0xc(%ebp)
     6ca:	90                   	nop
     6cb:	ff 45 0c             	incl   0xc(%ebp)
     6ce:	8b 45 0c             	mov    0xc(%ebp),%eax
     6d1:	8a 00                	mov    (%eax),%al
     6d3:	84 c0                	test   %al,%al
     6d5:	0f 85 80 fe ff ff    	jne    55b <vfprintf+0x2d>
     6db:	8b 45 f4             	mov    -0xc(%ebp),%eax
     6de:	8b 5d fc             	mov    -0x4(%ebp),%ebx
     6e1:	c9                   	leave
     6e2:	c3                   	ret

000006e3 <fprintf>:
     6e3:	55                   	push   %ebp
     6e4:	89 e5                	mov    %esp,%ebp
     6e6:	53                   	push   %ebx
     6e7:	83 ec 14             	sub    $0x14,%esp
     6ea:	e8 ec 07 00 00       	call   edb <__x86.get_pc_thunk.ax>
     6ef:	05 b5 2e 00 00       	add    $0x2eb5,%eax
     6f4:	8d 55 10             	lea    0x10(%ebp),%edx
     6f7:	89 55 f4             	mov    %edx,-0xc(%ebp)
     6fa:	8b 55 f4             	mov    -0xc(%ebp),%edx
     6fd:	83 ec 04             	sub    $0x4,%esp
     700:	52                   	push   %edx
     701:	ff 75 0c             	push   0xc(%ebp)
     704:	ff 75 08             	push   0x8(%ebp)
     707:	89 c3                	mov    %eax,%ebx
     709:	e8 20 fe ff ff       	call   52e <vfprintf>
     70e:	83 c4 10             	add    $0x10,%esp
     711:	8b 5d fc             	mov    -0x4(%ebp),%ebx
     714:	c9                   	leave
     715:	c3                   	ret

00000716 <printf>:
     716:	55                   	push   %ebp
     717:	89 e5                	mov    %esp,%ebp
     719:	53                   	push   %ebx
     71a:	83 ec 14             	sub    $0x14,%esp
     71d:	e8 b9 07 00 00       	call   edb <__x86.get_pc_thunk.ax>
     722:	05 82 2e 00 00       	add    $0x2e82,%eax
     727:	8d 55 0c             	lea    0xc(%ebp),%edx
     72a:	89 55 f4             	mov    %edx,-0xc(%ebp)
     72d:	c7 c2 e0 35 00 00    	mov    $0x35e0,%edx
     733:	8b 12                	mov    (%edx),%edx
     735:	83 c2 04             	add    $0x4,%edx
     738:	8b 12                	mov    (%edx),%edx
     73a:	85 d2                	test   %edx,%edx
     73c:	75 07                	jne    745 <printf+0x2f>
     73e:	b8 00 00 00 00       	mov    $0x0,%eax
     743:	eb 22                	jmp    767 <printf+0x51>
     745:	8b 4d f4             	mov    -0xc(%ebp),%ecx
     748:	c7 c2 e0 35 00 00    	mov    $0x35e0,%edx
     74e:	8b 12                	mov    (%edx),%edx
     750:	83 c2 04             	add    $0x4,%edx
     753:	8b 12                	mov    (%edx),%edx
     755:	83 ec 04             	sub    $0x4,%esp
     758:	51                   	push   %ecx
     759:	ff 75 08             	push   0x8(%ebp)
     75c:	52                   	push   %edx
     75d:	89 c3                	mov    %eax,%ebx
     75f:	e8 ca fd ff ff       	call   52e <vfprintf>
     764:	83 c4 10             	add    $0x10,%esp
     767:	8b 5d fc             	mov    -0x4(%ebp),%ebx
     76a:	c9                   	leave
     76b:	c3                   	ret

0000076c <fputs>:
     76c:	55                   	push   %ebp
     76d:	89 e5                	mov    %esp,%ebp
     76f:	53                   	push   %ebx
     770:	83 ec 04             	sub    $0x4,%esp
     773:	e8 67 07 00 00       	call   edf <__x86.get_pc_thunk.bx>
     778:	81 c3 2c 2e 00 00    	add    $0x2e2c,%ebx
     77e:	83 7d 0c 00          	cmpl   $0x0,0xc(%ebp)
     782:	75 07                	jne    78b <fputs+0x1f>
     784:	b8 00 00 00 00       	mov    $0x0,%eax
     789:	eb 1f                	jmp    7aa <fputs+0x3e>
     78b:	83 ec 0c             	sub    $0xc,%esp
     78e:	ff 75 08             	push   0x8(%ebp)
     791:	e8 42 10 00 00       	call   17d8 <strlen>
     796:	83 c4 10             	add    $0x10,%esp
     799:	ff 75 0c             	push   0xc(%ebp)
     79c:	6a 01                	push   $0x1
     79e:	50                   	push   %eax
     79f:	ff 75 08             	push   0x8(%ebp)
     7a2:	e8 b0 01 00 00       	call   957 <fwrite>
     7a7:	83 c4 10             	add    $0x10,%esp
     7aa:	8b 5d fc             	mov    -0x4(%ebp),%ebx
     7ad:	c9                   	leave
     7ae:	c3                   	ret

000007af <puts>:
     7af:	55                   	push   %ebp
     7b0:	89 e5                	mov    %esp,%ebp
     7b2:	53                   	push   %ebx
     7b3:	83 ec 14             	sub    $0x14,%esp
     7b6:	e8 24 07 00 00       	call   edf <__x86.get_pc_thunk.bx>
     7bb:	81 c3 e9 2d 00 00    	add    $0x2de9,%ebx
     7c1:	c7 c0 e0 35 00 00    	mov    $0x35e0,%eax
     7c7:	8b 00                	mov    (%eax),%eax
     7c9:	83 c0 04             	add    $0x4,%eax
     7cc:	8b 00                	mov    (%eax),%eax
     7ce:	83 ec 08             	sub    $0x8,%esp
     7d1:	50                   	push   %eax
     7d2:	ff 75 08             	push   0x8(%ebp)
     7d5:	e8 92 ff ff ff       	call   76c <fputs>
     7da:	83 c4 10             	add    $0x10,%esp
     7dd:	89 45 f4             	mov    %eax,-0xc(%ebp)
     7e0:	c7 c0 e0 35 00 00    	mov    $0x35e0,%eax
     7e6:	8b 00                	mov    (%eax),%eax
     7e8:	83 c0 04             	add    $0x4,%eax
     7eb:	8b 00                	mov    (%eax),%eax
     7ed:	50                   	push   %eax
     7ee:	6a 01                	push   $0x1
     7f0:	6a 01                	push   $0x1
     7f2:	8d 83 a1 ef ff ff    	lea    -0x105f(%ebx),%eax
     7f8:	50                   	push   %eax
     7f9:	e8 59 01 00 00       	call   957 <fwrite>
     7fe:	83 c4 10             	add    $0x10,%esp
     801:	8b 45 f4             	mov    -0xc(%ebp),%eax
     804:	40                   	inc    %eax
     805:	8b 5d fc             	mov    -0x4(%ebp),%ebx
     808:	c9                   	leave
     809:	c3                   	ret

0000080a <fopen>:
     80a:	55                   	push   %ebp
     80b:	89 e5                	mov    %esp,%ebp
     80d:	56                   	push   %esi
     80e:	53                   	push   %ebx
     80f:	83 ec 10             	sub    $0x10,%esp
     812:	e8 c8 06 00 00       	call   edf <__x86.get_pc_thunk.bx>
     817:	81 c3 8d 2d 00 00    	add    $0x2d8d,%ebx
     81d:	c7 45 f4 00 00 00 00 	movl   $0x0,-0xc(%ebp)
     824:	eb 19                	jmp    83f <fopen+0x35>
     826:	c7 c0 e0 35 00 00    	mov    $0x35e0,%eax
     82c:	8b 00                	mov    (%eax),%eax
     82e:	8b 55 f4             	mov    -0xc(%ebp),%edx
     831:	c1 e2 02             	shl    $0x2,%edx
     834:	01 d0                	add    %edx,%eax
     836:	8b 00                	mov    (%eax),%eax
     838:	85 c0                	test   %eax,%eax
     83a:	74 0b                	je     847 <fopen+0x3d>
     83c:	ff 45 f4             	incl   -0xc(%ebp)
     83f:	83 7d f4 09          	cmpl   $0x9,-0xc(%ebp)
     843:	7e e1                	jle    826 <fopen+0x1c>
     845:	eb 01                	jmp    848 <fopen+0x3e>
     847:	90                   	nop
     848:	83 7d f4 0a          	cmpl   $0xa,-0xc(%ebp)
     84c:	75 07                	jne    855 <fopen+0x4b>
     84e:	b8 00 00 00 00       	mov    $0x0,%eax
     853:	eb 65                	jmp    8ba <fopen+0xb0>
     855:	83 ec 08             	sub    $0x8,%esp
     858:	6a 03                	push   $0x3
     85a:	ff 75 08             	push   0x8(%ebp)
     85d:	e8 c7 16 00 00       	call   1f29 <open>
     862:	83 c4 10             	add    $0x10,%esp
     865:	89 45 f0             	mov    %eax,-0x10(%ebp)
     868:	83 7d f0 ff          	cmpl   $0xffffffff,-0x10(%ebp)
     86c:	75 19                	jne    887 <fopen+0x7d>
     86e:	83 ec 0c             	sub    $0xc,%esp
     871:	8d 83 a3 ef ff ff    	lea    -0x105d(%ebx),%eax
     877:	50                   	push   %eax
     878:	e8 99 fe ff ff       	call   716 <printf>
     87d:	83 c4 10             	add    $0x10,%esp
     880:	b8 00 00 00 00       	mov    $0x0,%eax
     885:	eb 33                	jmp    8ba <fopen+0xb0>
     887:	c7 c0 e0 35 00 00    	mov    $0x35e0,%eax
     88d:	8b 00                	mov    (%eax),%eax
     88f:	8b 55 f4             	mov    -0xc(%ebp),%edx
     892:	c1 e2 02             	shl    $0x2,%edx
     895:	8d 34 10             	lea    (%eax,%edx,1),%esi
     898:	83 ec 0c             	sub    $0xc,%esp
     89b:	ff 75 f0             	push   -0x10(%ebp)
     89e:	e8 aa fb ff ff       	call   44d <internal_createFileFD>
     8a3:	83 c4 10             	add    $0x10,%esp
     8a6:	89 06                	mov    %eax,(%esi)
     8a8:	c7 c0 e0 35 00 00    	mov    $0x35e0,%eax
     8ae:	8b 00                	mov    (%eax),%eax
     8b0:	8b 55 f4             	mov    -0xc(%ebp),%edx
     8b3:	c1 e2 02             	shl    $0x2,%edx
     8b6:	01 d0                	add    %edx,%eax
     8b8:	8b 00                	mov    (%eax),%eax
     8ba:	8d 65 f8             	lea    -0x8(%ebp),%esp
     8bd:	5b                   	pop    %ebx
     8be:	5e                   	pop    %esi
     8bf:	5d                   	pop    %ebp
     8c0:	c3                   	ret

000008c1 <fclose>:
     8c1:	55                   	push   %ebp
     8c2:	89 e5                	mov    %esp,%ebp
     8c4:	53                   	push   %ebx
     8c5:	83 ec 14             	sub    $0x14,%esp
     8c8:	e8 12 06 00 00       	call   edf <__x86.get_pc_thunk.bx>
     8cd:	81 c3 d7 2c 00 00    	add    $0x2cd7,%ebx
     8d3:	c7 45 f4 00 00 00 00 	movl   $0x0,-0xc(%ebp)
     8da:	eb 6b                	jmp    947 <fclose+0x86>
     8dc:	c7 c0 e0 35 00 00    	mov    $0x35e0,%eax
     8e2:	8b 00                	mov    (%eax),%eax
     8e4:	8b 55 f4             	mov    -0xc(%ebp),%edx
     8e7:	c1 e2 02             	shl    $0x2,%edx
     8ea:	01 d0                	add    %edx,%eax
     8ec:	8b 00                	mov    (%eax),%eax
     8ee:	39 45 08             	cmp    %eax,0x8(%ebp)
     8f1:	75 51                	jne    944 <fclose+0x83>
     8f3:	c7 c0 e0 35 00 00    	mov    $0x35e0,%eax
     8f9:	8b 00                	mov    (%eax),%eax
     8fb:	8b 55 f4             	mov    -0xc(%ebp),%edx
     8fe:	c1 e2 02             	shl    $0x2,%edx
     901:	01 d0                	add    %edx,%eax
     903:	8b 00                	mov    (%eax),%eax
     905:	8b 00                	mov    (%eax),%eax
     907:	85 c0                	test   %eax,%eax
     909:	75 21                	jne    92c <fclose+0x6b>
     90b:	c7 c0 e0 35 00 00    	mov    $0x35e0,%eax
     911:	8b 00                	mov    (%eax),%eax
     913:	8b 55 f4             	mov    -0xc(%ebp),%edx
     916:	c1 e2 02             	shl    $0x2,%edx
     919:	01 d0                	add    %edx,%eax
     91b:	8b 00                	mov    (%eax),%eax
     91d:	8b 40 04             	mov    0x4(%eax),%eax
     920:	83 ec 0c             	sub    $0xc,%esp
     923:	50                   	push   %eax
     924:	e8 24 16 00 00       	call   1f4d <close>
     929:	83 c4 10             	add    $0x10,%esp
     92c:	c7 c0 e0 35 00 00    	mov    $0x35e0,%eax
     932:	8b 00                	mov    (%eax),%eax
     934:	8b 55 f4             	mov    -0xc(%ebp),%edx
     937:	c1 e2 02             	shl    $0x2,%edx
     93a:	01 d0                	add    %edx,%eax
     93c:	c7 00 00 00 00 00    	movl   $0x0,(%eax)
     942:	eb 09                	jmp    94d <fclose+0x8c>
     944:	ff 45 f4             	incl   -0xc(%ebp)
     947:	83 7d f4 09          	cmpl   $0x9,-0xc(%ebp)
     94b:	7e 8f                	jle    8dc <fclose+0x1b>
     94d:	b8 00 00 00 00       	mov    $0x0,%eax
     952:	8b 5d fc             	mov    -0x4(%ebp),%ebx
     955:	c9                   	leave
     956:	c3                   	ret

00000957 <fwrite>:
     957:	55                   	push   %ebp
     958:	89 e5                	mov    %esp,%ebp
     95a:	53                   	push   %ebx
     95b:	83 ec 14             	sub    $0x14,%esp
     95e:	e8 7c 05 00 00       	call   edf <__x86.get_pc_thunk.bx>
     963:	81 c3 41 2c 00 00    	add    $0x2c41,%ebx
     969:	83 7d 14 00          	cmpl   $0x0,0x14(%ebp)
     96d:	74 06                	je     975 <fwrite+0x1e>
     96f:	83 7d 08 00          	cmpl   $0x0,0x8(%ebp)
     973:	75 07                	jne    97c <fwrite+0x25>
     975:	b8 00 00 00 00       	mov    $0x0,%eax
     97a:	eb 49                	jmp    9c5 <fwrite+0x6e>
     97c:	c7 45 f4 00 00 00 00 	movl   $0x0,-0xc(%ebp)
     983:	c7 45 f0 00 00 00 00 	movl   $0x0,-0x10(%ebp)
     98a:	eb 2e                	jmp    9ba <fwrite+0x63>
     98c:	8b 45 14             	mov    0x14(%ebp),%eax
     98f:	8b 00                	mov    (%eax),%eax
     991:	85 c0                	test   %eax,%eax
     993:	75 22                	jne    9b7 <fwrite+0x60>
     995:	8b 55 0c             	mov    0xc(%ebp),%edx
     998:	8b 45 14             	mov    0x14(%ebp),%eax
     99b:	8b 40 04             	mov    0x4(%eax),%eax
     99e:	83 ec 04             	sub    $0x4,%esp
     9a1:	52                   	push   %edx
     9a2:	ff 75 08             	push   0x8(%ebp)
     9a5:	50                   	push   %eax
     9a6:	e8 eb 15 00 00       	call   1f96 <write>
     9ab:	83 c4 10             	add    $0x10,%esp
     9ae:	89 45 ec             	mov    %eax,-0x14(%ebp)
     9b1:	8b 45 ec             	mov    -0x14(%ebp),%eax
     9b4:	01 45 f4             	add    %eax,-0xc(%ebp)
     9b7:	ff 45 f0             	incl   -0x10(%ebp)
     9ba:	8b 45 f0             	mov    -0x10(%ebp),%eax
     9bd:	3b 45 10             	cmp    0x10(%ebp),%eax
     9c0:	72 ca                	jb     98c <fwrite+0x35>
     9c2:	8b 45 f4             	mov    -0xc(%ebp),%eax
     9c5:	8b 5d fc             	mov    -0x4(%ebp),%ebx
     9c8:	c9                   	leave
     9c9:	c3                   	ret

000009ca <fread>:
     9ca:	55                   	push   %ebp
     9cb:	89 e5                	mov    %esp,%ebp
     9cd:	53                   	push   %ebx
     9ce:	83 ec 14             	sub    $0x14,%esp
     9d1:	e8 09 05 00 00       	call   edf <__x86.get_pc_thunk.bx>
     9d6:	81 c3 ce 2b 00 00    	add    $0x2bce,%ebx
     9dc:	83 7d 14 00          	cmpl   $0x0,0x14(%ebp)
     9e0:	74 06                	je     9e8 <fread+0x1e>
     9e2:	83 7d 08 00          	cmpl   $0x0,0x8(%ebp)
     9e6:	75 07                	jne    9ef <fread+0x25>
     9e8:	b8 00 00 00 00       	mov    $0x0,%eax
     9ed:	eb 4f                	jmp    a3e <fread+0x74>
     9ef:	c7 45 f4 00 00 00 00 	movl   $0x0,-0xc(%ebp)
     9f6:	c7 45 f0 00 00 00 00 	movl   $0x0,-0x10(%ebp)
     9fd:	eb 34                	jmp    a33 <fread+0x69>
     9ff:	8b 45 14             	mov    0x14(%ebp),%eax
     a02:	8b 00                	mov    (%eax),%eax
     a04:	85 c0                	test   %eax,%eax
     a06:	75 28                	jne    a30 <fread+0x66>
     a08:	8b 55 0c             	mov    0xc(%ebp),%edx
     a0b:	8b 45 f4             	mov    -0xc(%ebp),%eax
     a0e:	0f af 45 0c          	imul   0xc(%ebp),%eax
     a12:	89 c1                	mov    %eax,%ecx
     a14:	8b 45 08             	mov    0x8(%ebp),%eax
     a17:	01 c1                	add    %eax,%ecx
     a19:	8b 45 14             	mov    0x14(%ebp),%eax
     a1c:	8b 40 04             	mov    0x4(%eax),%eax
     a1f:	83 ec 04             	sub    $0x4,%esp
     a22:	52                   	push   %edx
     a23:	51                   	push   %ecx
     a24:	50                   	push   %eax
     a25:	e8 43 15 00 00       	call   1f6d <read>
     a2a:	83 c4 10             	add    $0x10,%esp
     a2d:	ff 45 f4             	incl   -0xc(%ebp)
     a30:	ff 45 f0             	incl   -0x10(%ebp)
     a33:	8b 45 f0             	mov    -0x10(%ebp),%eax
     a36:	3b 45 10             	cmp    0x10(%ebp),%eax
     a39:	72 c4                	jb     9ff <fread+0x35>
     a3b:	8b 45 f4             	mov    -0xc(%ebp),%eax
     a3e:	8b 5d fc             	mov    -0x4(%ebp),%ebx
     a41:	c9                   	leave
     a42:	c3                   	ret

00000a43 <feof>:
     a43:	55                   	push   %ebp
     a44:	89 e5                	mov    %esp,%ebp
     a46:	53                   	push   %ebx
     a47:	83 ec 14             	sub    $0x14,%esp
     a4a:	e8 90 04 00 00       	call   edf <__x86.get_pc_thunk.bx>
     a4f:	81 c3 55 2b 00 00    	add    $0x2b55,%ebx
     a55:	83 7d 08 00          	cmpl   $0x0,0x8(%ebp)
     a59:	75 07                	jne    a62 <feof+0x1f>
     a5b:	b8 01 00 00 00       	mov    $0x1,%eax
     a60:	eb 68                	jmp    aca <feof+0x87>
     a62:	8b 45 08             	mov    0x8(%ebp),%eax
     a65:	8b 00                	mov    (%eax),%eax
     a67:	85 c0                	test   %eax,%eax
     a69:	75 5f                	jne    aca <feof+0x87>
     a6b:	8b 45 08             	mov    0x8(%ebp),%eax
     a6e:	8b 40 04             	mov    0x4(%eax),%eax
     a71:	83 ec 04             	sub    $0x4,%esp
     a74:	6a 01                	push   $0x1
     a76:	6a 00                	push   $0x0
     a78:	50                   	push   %eax
     a79:	e8 41 15 00 00       	call   1fbf <lseek>
     a7e:	83 c4 10             	add    $0x10,%esp
     a81:	89 45 f4             	mov    %eax,-0xc(%ebp)
     a84:	8b 45 08             	mov    0x8(%ebp),%eax
     a87:	8b 40 04             	mov    0x4(%eax),%eax
     a8a:	83 ec 04             	sub    $0x4,%esp
     a8d:	6a 02                	push   $0x2
     a8f:	6a 00                	push   $0x0
     a91:	50                   	push   %eax
     a92:	e8 28 15 00 00       	call   1fbf <lseek>
     a97:	83 c4 10             	add    $0x10,%esp
     a9a:	89 45 f0             	mov    %eax,-0x10(%ebp)
     a9d:	8b 45 08             	mov    0x8(%ebp),%eax
     aa0:	8b 40 04             	mov    0x4(%eax),%eax
     aa3:	83 ec 04             	sub    $0x4,%esp
     aa6:	6a 00                	push   $0x0
     aa8:	ff 75 f4             	push   -0xc(%ebp)
     aab:	50                   	push   %eax
     aac:	e8 0e 15 00 00       	call   1fbf <lseek>
     ab1:	83 c4 10             	add    $0x10,%esp
     ab4:	8b 45 f4             	mov    -0xc(%ebp),%eax
     ab7:	3b 45 f0             	cmp    -0x10(%ebp),%eax
     aba:	7c 07                	jl     ac3 <feof+0x80>
     abc:	b8 01 00 00 00       	mov    $0x1,%eax
     ac1:	eb 07                	jmp    aca <feof+0x87>
     ac3:	b8 00 00 00 00       	mov    $0x0,%eax
     ac8:	eb 00                	jmp    aca <feof+0x87>
     aca:	8b 5d fc             	mov    -0x4(%ebp),%ebx
     acd:	c9                   	leave
     ace:	c3                   	ret

00000acf <ftell>:
     acf:	55                   	push   %ebp
     ad0:	89 e5                	mov    %esp,%ebp
     ad2:	53                   	push   %ebx
     ad3:	83 ec 04             	sub    $0x4,%esp
     ad6:	e8 00 04 00 00       	call   edb <__x86.get_pc_thunk.ax>
     adb:	05 c9 2a 00 00       	add    $0x2ac9,%eax
     ae0:	83 7d 08 00          	cmpl   $0x0,0x8(%ebp)
     ae4:	75 07                	jne    aed <ftell+0x1e>
     ae6:	b8 00 00 00 00       	mov    $0x0,%eax
     aeb:	eb 28                	jmp    b15 <ftell+0x46>
     aed:	8b 55 08             	mov    0x8(%ebp),%edx
     af0:	8b 12                	mov    (%edx),%edx
     af2:	85 d2                	test   %edx,%edx
     af4:	75 1a                	jne    b10 <ftell+0x41>
     af6:	8b 55 08             	mov    0x8(%ebp),%edx
     af9:	8b 52 04             	mov    0x4(%edx),%edx
     afc:	83 ec 04             	sub    $0x4,%esp
     aff:	6a 01                	push   $0x1
     b01:	6a 00                	push   $0x0
     b03:	52                   	push   %edx
     b04:	89 c3                	mov    %eax,%ebx
     b06:	e8 b4 14 00 00       	call   1fbf <lseek>
     b0b:	83 c4 10             	add    $0x10,%esp
     b0e:	eb 05                	jmp    b15 <ftell+0x46>
     b10:	b8 00 00 00 00       	mov    $0x0,%eax
     b15:	8b 5d fc             	mov    -0x4(%ebp),%ebx
     b18:	c9                   	leave
     b19:	c3                   	ret

00000b1a <fseek>:
     b1a:	55                   	push   %ebp
     b1b:	89 e5                	mov    %esp,%ebp
     b1d:	53                   	push   %ebx
     b1e:	83 ec 04             	sub    $0x4,%esp
     b21:	e8 b5 03 00 00       	call   edb <__x86.get_pc_thunk.ax>
     b26:	05 7e 2a 00 00       	add    $0x2a7e,%eax
     b2b:	83 7d 08 00          	cmpl   $0x0,0x8(%ebp)
     b2f:	75 07                	jne    b38 <fseek+0x1e>
     b31:	b8 ff ff ff ff       	mov    $0xffffffff,%eax
     b36:	eb 2f                	jmp    b67 <fseek+0x4d>
     b38:	8b 55 08             	mov    0x8(%ebp),%edx
     b3b:	8b 12                	mov    (%edx),%edx
     b3d:	85 d2                	test   %edx,%edx
     b3f:	75 21                	jne    b62 <fseek+0x48>
     b41:	8b 55 08             	mov    0x8(%ebp),%edx
     b44:	8b 52 04             	mov    0x4(%edx),%edx
     b47:	83 ec 04             	sub    $0x4,%esp
     b4a:	ff 75 10             	push   0x10(%ebp)
     b4d:	ff 75 0c             	push   0xc(%ebp)
     b50:	52                   	push   %edx
     b51:	89 c3                	mov    %eax,%ebx
     b53:	e8 67 14 00 00       	call   1fbf <lseek>
     b58:	83 c4 10             	add    $0x10,%esp
     b5b:	b8 00 00 00 00       	mov    $0x0,%eax
     b60:	eb 05                	jmp    b67 <fseek+0x4d>
     b62:	b8 ff ff ff ff       	mov    $0xffffffff,%eax
     b67:	8b 5d fc             	mov    -0x4(%ebp),%ebx
     b6a:	c9                   	leave
     b6b:	c3                   	ret

00000b6c <freopen>:
     b6c:	55                   	push   %ebp
     b6d:	89 e5                	mov    %esp,%ebp
     b6f:	56                   	push   %esi
     b70:	53                   	push   %ebx
     b71:	83 ec 10             	sub    $0x10,%esp
     b74:	e8 66 03 00 00       	call   edf <__x86.get_pc_thunk.bx>
     b79:	81 c3 2b 2a 00 00    	add    $0x2a2b,%ebx
     b7f:	c7 45 f4 ff ff ff ff 	movl   $0xffffffff,-0xc(%ebp)
     b86:	c7 45 f0 00 00 00 00 	movl   $0x0,-0x10(%ebp)
     b8d:	eb 22                	jmp    bb1 <freopen+0x45>
     b8f:	c7 c0 e0 35 00 00    	mov    $0x35e0,%eax
     b95:	8b 00                	mov    (%eax),%eax
     b97:	8b 55 f0             	mov    -0x10(%ebp),%edx
     b9a:	c1 e2 02             	shl    $0x2,%edx
     b9d:	01 d0                	add    %edx,%eax
     b9f:	8b 00                	mov    (%eax),%eax
     ba1:	39 45 10             	cmp    %eax,0x10(%ebp)
     ba4:	75 08                	jne    bae <freopen+0x42>
     ba6:	8b 45 f0             	mov    -0x10(%ebp),%eax
     ba9:	89 45 f4             	mov    %eax,-0xc(%ebp)
     bac:	eb 10                	jmp    bbe <freopen+0x52>
     bae:	ff 45 f0             	incl   -0x10(%ebp)
     bb1:	c7 c0 e4 35 00 00    	mov    $0x35e4,%eax
     bb7:	8b 00                	mov    (%eax),%eax
     bb9:	39 45 f0             	cmp    %eax,-0x10(%ebp)
     bbc:	7c d1                	jl     b8f <freopen+0x23>
     bbe:	83 7d f4 ff          	cmpl   $0xffffffff,-0xc(%ebp)
     bc2:	74 51                	je     c15 <freopen+0xa9>
     bc4:	83 ec 0c             	sub    $0xc,%esp
     bc7:	ff 75 10             	push   0x10(%ebp)
     bca:	e8 f2 fc ff ff       	call   8c1 <fclose>
     bcf:	83 c4 10             	add    $0x10,%esp
     bd2:	83 ec 08             	sub    $0x8,%esp
     bd5:	6a 03                	push   $0x3
     bd7:	ff 75 08             	push   0x8(%ebp)
     bda:	e8 4a 13 00 00       	call   1f29 <open>
     bdf:	83 c4 10             	add    $0x10,%esp
     be2:	c7 c2 e0 35 00 00    	mov    $0x35e0,%edx
     be8:	8b 12                	mov    (%edx),%edx
     bea:	8b 4d f4             	mov    -0xc(%ebp),%ecx
     bed:	c1 e1 02             	shl    $0x2,%ecx
     bf0:	8d 34 0a             	lea    (%edx,%ecx,1),%esi
     bf3:	83 ec 0c             	sub    $0xc,%esp
     bf6:	50                   	push   %eax
     bf7:	e8 51 f8 ff ff       	call   44d <internal_createFileFD>
     bfc:	83 c4 10             	add    $0x10,%esp
     bff:	89 06                	mov    %eax,(%esi)
     c01:	c7 c0 e0 35 00 00    	mov    $0x35e0,%eax
     c07:	8b 00                	mov    (%eax),%eax
     c09:	8b 55 f4             	mov    -0xc(%ebp),%edx
     c0c:	c1 e2 02             	shl    $0x2,%edx
     c0f:	01 d0                	add    %edx,%eax
     c11:	8b 00                	mov    (%eax),%eax
     c13:	eb 11                	jmp    c26 <freopen+0xba>
     c15:	83 ec 08             	sub    $0x8,%esp
     c18:	ff 75 0c             	push   0xc(%ebp)
     c1b:	ff 75 08             	push   0x8(%ebp)
     c1e:	e8 e7 fb ff ff       	call   80a <fopen>
     c23:	83 c4 10             	add    $0x10,%esp
     c26:	8d 65 f8             	lea    -0x8(%ebp),%esp
     c29:	5b                   	pop    %ebx
     c2a:	5e                   	pop    %esi
     c2b:	5d                   	pop    %ebp
     c2c:	c3                   	ret

00000c2d <fputc>:
     c2d:	55                   	push   %ebp
     c2e:	89 e5                	mov    %esp,%ebp
     c30:	53                   	push   %ebx
     c31:	83 ec 14             	sub    $0x14,%esp
     c34:	e8 a2 02 00 00       	call   edb <__x86.get_pc_thunk.ax>
     c39:	05 6b 29 00 00       	add    $0x296b,%eax
     c3e:	8b 55 08             	mov    0x8(%ebp),%edx
     c41:	88 55 f7             	mov    %dl,-0x9(%ebp)
     c44:	ff 75 0c             	push   0xc(%ebp)
     c47:	6a 01                	push   $0x1
     c49:	6a 01                	push   $0x1
     c4b:	8d 55 f7             	lea    -0x9(%ebp),%edx
     c4e:	52                   	push   %edx
     c4f:	89 c3                	mov    %eax,%ebx
     c51:	e8 01 fd ff ff       	call   957 <fwrite>
     c56:	83 c4 10             	add    $0x10,%esp
     c59:	8b 5d fc             	mov    -0x4(%ebp),%ebx
     c5c:	c9                   	leave
     c5d:	c3                   	ret

00000c5e <putc>:
     c5e:	55                   	push   %ebp
     c5f:	89 e5                	mov    %esp,%ebp
     c61:	53                   	push   %ebx
     c62:	83 ec 04             	sub    $0x4,%esp
     c65:	e8 71 02 00 00       	call   edb <__x86.get_pc_thunk.ax>
     c6a:	05 3a 29 00 00       	add    $0x293a,%eax
     c6f:	83 ec 08             	sub    $0x8,%esp
     c72:	ff 75 0c             	push   0xc(%ebp)
     c75:	ff 75 08             	push   0x8(%ebp)
     c78:	89 c3                	mov    %eax,%ebx
     c7a:	e8 ae ff ff ff       	call   c2d <fputc>
     c7f:	83 c4 10             	add    $0x10,%esp
     c82:	8b 5d fc             	mov    -0x4(%ebp),%ebx
     c85:	c9                   	leave
     c86:	c3                   	ret

00000c87 <putchar>:
     c87:	55                   	push   %ebp
     c88:	89 e5                	mov    %esp,%ebp
     c8a:	53                   	push   %ebx
     c8b:	83 ec 04             	sub    $0x4,%esp
     c8e:	e8 48 02 00 00       	call   edb <__x86.get_pc_thunk.ax>
     c93:	05 11 29 00 00       	add    $0x2911,%eax
     c98:	c7 c2 e0 35 00 00    	mov    $0x35e0,%edx
     c9e:	8b 12                	mov    (%edx),%edx
     ca0:	83 c2 04             	add    $0x4,%edx
     ca3:	8b 12                	mov    (%edx),%edx
     ca5:	83 ec 08             	sub    $0x8,%esp
     ca8:	52                   	push   %edx
     ca9:	ff 75 08             	push   0x8(%ebp)
     cac:	89 c3                	mov    %eax,%ebx
     cae:	e8 ab ff ff ff       	call   c5e <putc>
     cb3:	83 c4 10             	add    $0x10,%esp
     cb6:	8b 5d fc             	mov    -0x4(%ebp),%ebx
     cb9:	c9                   	leave
     cba:	c3                   	ret

00000cbb <snprintf>:
     cbb:	55                   	push   %ebp
     cbc:	89 e5                	mov    %esp,%ebp
     cbe:	53                   	push   %ebx
     cbf:	81 ec a4 00 00 00    	sub    $0xa4,%esp
     cc5:	e8 15 02 00 00       	call   edf <__x86.get_pc_thunk.bx>
     cca:	81 c3 da 28 00 00    	add    $0x28da,%ebx
     cd0:	8d 45 14             	lea    0x14(%ebp),%eax
     cd3:	89 45 c8             	mov    %eax,-0x38(%ebp)
     cd6:	83 7d 08 00          	cmpl   $0x0,0x8(%ebp)
     cda:	74 0c                	je     ce8 <snprintf+0x2d>
     cdc:	83 7d 10 00          	cmpl   $0x0,0x10(%ebp)
     ce0:	74 06                	je     ce8 <snprintf+0x2d>
     ce2:	83 7d 0c 00          	cmpl   $0x0,0xc(%ebp)
     ce6:	75 0a                	jne    cf2 <snprintf+0x37>
     ce8:	b8 00 00 00 00       	mov    $0x0,%eax
     ced:	e9 e4 01 00 00       	jmp    ed6 <snprintf+0x21b>
     cf2:	c7 45 f4 00 00 00 00 	movl   $0x0,-0xc(%ebp)
     cf9:	c7 45 f0 00 00 00 00 	movl   $0x0,-0x10(%ebp)
     d00:	e9 b9 01 00 00       	jmp    ebe <snprintf+0x203>
     d05:	8b 45 10             	mov    0x10(%ebp),%eax
     d08:	8a 00                	mov    (%eax),%al
     d0a:	3c 25                	cmp    $0x25,%al
     d0c:	74 25                	je     d33 <snprintf+0x78>
     d0e:	8b 45 10             	mov    0x10(%ebp),%eax
     d11:	8d 50 01             	lea    0x1(%eax),%edx
     d14:	89 55 10             	mov    %edx,0x10(%ebp)
     d17:	8b 55 f4             	mov    -0xc(%ebp),%edx
     d1a:	8d 4a 01             	lea    0x1(%edx),%ecx
     d1d:	89 4d f4             	mov    %ecx,-0xc(%ebp)
     d20:	89 d1                	mov    %edx,%ecx
     d22:	8b 55 08             	mov    0x8(%ebp),%edx
     d25:	01 ca                	add    %ecx,%edx
     d27:	8a 00                	mov    (%eax),%al
     d29:	88 02                	mov    %al,(%edx)
     d2b:	ff 45 f0             	incl   -0x10(%ebp)
     d2e:	e9 8b 01 00 00       	jmp    ebe <snprintf+0x203>
     d33:	ff 45 10             	incl   0x10(%ebp)
     d36:	8b 45 10             	mov    0x10(%ebp),%eax
     d39:	8a 00                	mov    (%eax),%al
     d3b:	0f be c0             	movsbl %al,%eax
     d3e:	83 f8 78             	cmp    $0x78,%eax
     d41:	0f 84 f6 00 00 00    	je     e3d <snprintf+0x182>
     d47:	83 f8 78             	cmp    $0x78,%eax
     d4a:	0f 8f 6b 01 00 00    	jg     ebb <snprintf+0x200>
     d50:	83 f8 64             	cmp    $0x64,%eax
     d53:	74 6d                	je     dc2 <snprintf+0x107>
     d55:	83 f8 73             	cmp    $0x73,%eax
     d58:	0f 85 5d 01 00 00    	jne    ebb <snprintf+0x200>
     d5e:	8b 45 c8             	mov    -0x38(%ebp),%eax
     d61:	8d 50 04             	lea    0x4(%eax),%edx
     d64:	89 55 c8             	mov    %edx,-0x38(%ebp)
     d67:	8b 00                	mov    (%eax),%eax
     d69:	89 45 dc             	mov    %eax,-0x24(%ebp)
     d6c:	83 ec 0c             	sub    $0xc,%esp
     d6f:	ff 75 dc             	push   -0x24(%ebp)
     d72:	e8 61 0a 00 00       	call   17d8 <strlen>
     d77:	83 c4 10             	add    $0x10,%esp
     d7a:	89 45 d4             	mov    %eax,-0x2c(%ebp)
     d7d:	c7 45 ec 00 00 00 00 	movl   $0x0,-0x14(%ebp)
     d84:	eb 23                	jmp    da9 <snprintf+0xee>
     d86:	8b 55 ec             	mov    -0x14(%ebp),%edx
     d89:	8b 45 dc             	mov    -0x24(%ebp),%eax
     d8c:	8d 0c 02             	lea    (%edx,%eax,1),%ecx
     d8f:	8b 45 f4             	mov    -0xc(%ebp),%eax
     d92:	8d 50 01             	lea    0x1(%eax),%edx
     d95:	89 55 f4             	mov    %edx,-0xc(%ebp)
     d98:	89 c2                	mov    %eax,%edx
     d9a:	8b 45 08             	mov    0x8(%ebp),%eax
     d9d:	01 c2                	add    %eax,%edx
     d9f:	8a 01                	mov    (%ecx),%al
     da1:	88 02                	mov    %al,(%edx)
     da3:	ff 45 f0             	incl   -0x10(%ebp)
     da6:	ff 45 ec             	incl   -0x14(%ebp)
     da9:	8b 45 ec             	mov    -0x14(%ebp),%eax
     dac:	3b 45 d4             	cmp    -0x2c(%ebp),%eax
     daf:	0f 8d ff 00 00 00    	jge    eb4 <snprintf+0x1f9>
     db5:	8b 45 f0             	mov    -0x10(%ebp),%eax
     db8:	3b 45 0c             	cmp    0xc(%ebp),%eax
     dbb:	72 c9                	jb     d86 <snprintf+0xcb>
     dbd:	e9 f2 00 00 00       	jmp    eb4 <snprintf+0x1f9>
     dc2:	8b 45 c8             	mov    -0x38(%ebp),%eax
     dc5:	8d 50 04             	lea    0x4(%eax),%edx
     dc8:	89 55 c8             	mov    %edx,-0x38(%ebp)
     dcb:	8b 00                	mov    (%eax),%eax
     dcd:	89 45 d0             	mov    %eax,-0x30(%ebp)
     dd0:	83 ec 04             	sub    $0x4,%esp
     dd3:	6a 0a                	push   $0xa
     dd5:	8d 85 64 ff ff ff    	lea    -0x9c(%ebp),%eax
     ddb:	50                   	push   %eax
     ddc:	ff 75 d0             	push   -0x30(%ebp)
     ddf:	e8 ec 03 00 00       	call   11d0 <itoa>
     de4:	83 c4 10             	add    $0x10,%esp
     de7:	89 45 dc             	mov    %eax,-0x24(%ebp)
     dea:	83 ec 0c             	sub    $0xc,%esp
     ded:	ff 75 dc             	push   -0x24(%ebp)
     df0:	e8 e3 09 00 00       	call   17d8 <strlen>
     df5:	83 c4 10             	add    $0x10,%esp
     df8:	89 45 cc             	mov    %eax,-0x34(%ebp)
     dfb:	c7 45 e8 00 00 00 00 	movl   $0x0,-0x18(%ebp)
     e02:	eb 23                	jmp    e27 <snprintf+0x16c>
     e04:	8b 55 e8             	mov    -0x18(%ebp),%edx
     e07:	8b 45 dc             	mov    -0x24(%ebp),%eax
     e0a:	8d 0c 02             	lea    (%edx,%eax,1),%ecx
     e0d:	8b 45 f4             	mov    -0xc(%ebp),%eax
     e10:	8d 50 01             	lea    0x1(%eax),%edx
     e13:	89 55 f4             	mov    %edx,-0xc(%ebp)
     e16:	89 c2                	mov    %eax,%edx
     e18:	8b 45 08             	mov    0x8(%ebp),%eax
     e1b:	01 c2                	add    %eax,%edx
     e1d:	8a 01                	mov    (%ecx),%al
     e1f:	88 02                	mov    %al,(%edx)
     e21:	ff 45 f0             	incl   -0x10(%ebp)
     e24:	ff 45 e8             	incl   -0x18(%ebp)
     e27:	8b 45 e8             	mov    -0x18(%ebp),%eax
     e2a:	3b 45 cc             	cmp    -0x34(%ebp),%eax
     e2d:	0f 8d 84 00 00 00    	jge    eb7 <snprintf+0x1fc>
     e33:	8b 45 f0             	mov    -0x10(%ebp),%eax
     e36:	3b 45 0c             	cmp    0xc(%ebp),%eax
     e39:	72 c9                	jb     e04 <snprintf+0x149>
     e3b:	eb 7a                	jmp    eb7 <snprintf+0x1fc>
     e3d:	8b 45 c8             	mov    -0x38(%ebp),%eax
     e40:	8d 50 04             	lea    0x4(%eax),%edx
     e43:	89 55 c8             	mov    %edx,-0x38(%ebp)
     e46:	8b 00                	mov    (%eax),%eax
     e48:	89 45 e0             	mov    %eax,-0x20(%ebp)
     e4b:	83 ec 04             	sub    $0x4,%esp
     e4e:	6a 10                	push   $0x10
     e50:	8d 85 64 ff ff ff    	lea    -0x9c(%ebp),%eax
     e56:	50                   	push   %eax
     e57:	ff 75 e0             	push   -0x20(%ebp)
     e5a:	e8 71 03 00 00       	call   11d0 <itoa>
     e5f:	83 c4 10             	add    $0x10,%esp
     e62:	89 45 dc             	mov    %eax,-0x24(%ebp)
     e65:	83 ec 0c             	sub    $0xc,%esp
     e68:	ff 75 dc             	push   -0x24(%ebp)
     e6b:	e8 68 09 00 00       	call   17d8 <strlen>
     e70:	83 c4 10             	add    $0x10,%esp
     e73:	89 45 d8             	mov    %eax,-0x28(%ebp)
     e76:	c7 45 e4 00 00 00 00 	movl   $0x0,-0x1c(%ebp)
     e7d:	eb 23                	jmp    ea2 <snprintf+0x1e7>
     e7f:	8b 55 e4             	mov    -0x1c(%ebp),%edx
     e82:	8b 45 dc             	mov    -0x24(%ebp),%eax
     e85:	8d 0c 02             	lea    (%edx,%eax,1),%ecx
     e88:	8b 45 f4             	mov    -0xc(%ebp),%eax
     e8b:	8d 50 01             	lea    0x1(%eax),%edx
     e8e:	89 55 f4             	mov    %edx,-0xc(%ebp)
     e91:	89 c2                	mov    %eax,%edx
     e93:	8b 45 08             	mov    0x8(%ebp),%eax
     e96:	01 c2                	add    %eax,%edx
     e98:	8a 01                	mov    (%ecx),%al
     e9a:	88 02                	mov    %al,(%edx)
     e9c:	ff 45 f0             	incl   -0x10(%ebp)
     e9f:	ff 45 e4             	incl   -0x1c(%ebp)
     ea2:	8b 45 e4             	mov    -0x1c(%ebp),%eax
     ea5:	3b 45 d8             	cmp    -0x28(%ebp),%eax
     ea8:	7d 10                	jge    eba <snprintf+0x1ff>
     eaa:	8b 45 f0             	mov    -0x10(%ebp),%eax
     ead:	3b 45 0c             	cmp    0xc(%ebp),%eax
     eb0:	72 cd                	jb     e7f <snprintf+0x1c4>
     eb2:	eb 06                	jmp    eba <snprintf+0x1ff>
     eb4:	90                   	nop
     eb5:	eb 04                	jmp    ebb <snprintf+0x200>
     eb7:	90                   	nop
     eb8:	eb 01                	jmp    ebb <snprintf+0x200>
     eba:	90                   	nop
     ebb:	ff 45 10             	incl   0x10(%ebp)
     ebe:	8b 45 10             	mov    0x10(%ebp),%eax
     ec1:	8a 00                	mov    (%eax),%al
     ec3:	84 c0                	test   %al,%al
     ec5:	74 0c                	je     ed3 <snprintf+0x218>
     ec7:	8b 45 f0             	mov    -0x10(%ebp),%eax
     eca:	3b 45 0c             	cmp    0xc(%ebp),%eax
     ecd:	0f 82 32 fe ff ff    	jb     d05 <snprintf+0x4a>
     ed3:	8b 45 f0             	mov    -0x10(%ebp),%eax
     ed6:	8b 5d fc             	mov    -0x4(%ebp),%ebx
     ed9:	c9                   	leave
     eda:	c3                   	ret

00000edb <__x86.get_pc_thunk.ax>:
     edb:	8b 04 24             	mov    (%esp),%eax
     ede:	c3                   	ret

00000edf <__x86.get_pc_thunk.bx>:
     edf:	8b 1c 24             	mov    (%esp),%ebx
     ee2:	c3                   	ret

00000ee3 <init_stdlib>:
     ee3:	55                   	push   %ebp
     ee4:	89 e5                	mov    %esp,%ebp
     ee6:	53                   	push   %ebx
     ee7:	83 ec 04             	sub    $0x4,%esp
     eea:	e8 f0 ff ff ff       	call   edf <__x86.get_pc_thunk.bx>
     eef:	81 c3 b5 26 00 00    	add    $0x26b5,%ebx
     ef5:	c7 c0 e8 35 00 00    	mov    $0x35e8,%eax
     efb:	c7 40 04 00 00 00 01 	movl   $0x1000000,0x4(%eax)
     f02:	c7 c0 e8 35 00 00    	mov    $0x35e8,%eax
     f08:	8b 40 04             	mov    0x4(%eax),%eax
     f0b:	83 ec 0c             	sub    $0xc,%esp
     f0e:	50                   	push   %eax
     f0f:	e8 15 11 00 00       	call   2029 <memory_requestRegion>
     f14:	83 c4 10             	add    $0x10,%esp
     f17:	c7 c2 e8 35 00 00    	mov    $0x35e8,%edx
     f1d:	89 02                	mov    %eax,(%edx)
     f1f:	c7 c0 e8 35 00 00    	mov    $0x35e8,%eax
     f25:	8b 10                	mov    (%eax),%edx
     f27:	c7 c0 e8 35 00 00    	mov    $0x35e8,%eax
     f2d:	89 50 08             	mov    %edx,0x8(%eax)
     f30:	c7 c0 e8 35 00 00    	mov    $0x35e8,%eax
     f36:	8b 50 08             	mov    0x8(%eax),%edx
     f39:	c7 c0 f4 35 00 00    	mov    $0x35f4,%eax
     f3f:	89 10                	mov    %edx,(%eax)
     f41:	90                   	nop
     f42:	8b 5d fc             	mov    -0x4(%ebp),%ebx
     f45:	c9                   	leave
     f46:	c3                   	ret

00000f47 <clean_stdlib>:
     f47:	55                   	push   %ebp
     f48:	89 e5                	mov    %esp,%ebp
     f4a:	53                   	push   %ebx
     f4b:	83 ec 04             	sub    $0x4,%esp
     f4e:	e8 88 ff ff ff       	call   edb <__x86.get_pc_thunk.ax>
     f53:	05 51 26 00 00       	add    $0x2651,%eax
     f58:	c7 c2 e8 35 00 00    	mov    $0x35e8,%edx
     f5e:	8b 52 04             	mov    0x4(%edx),%edx
     f61:	89 d1                	mov    %edx,%ecx
     f63:	c7 c2 e8 35 00 00    	mov    $0x35e8,%edx
     f69:	8b 12                	mov    (%edx),%edx
     f6b:	83 ec 08             	sub    $0x8,%esp
     f6e:	51                   	push   %ecx
     f6f:	52                   	push   %edx
     f70:	89 c3                	mov    %eax,%ebx
     f72:	e8 cf 10 00 00       	call   2046 <memory_returnRegion>
     f77:	83 c4 10             	add    $0x10,%esp
     f7a:	90                   	nop
     f7b:	8b 5d fc             	mov    -0x4(%ebp),%ebx
     f7e:	c9                   	leave
     f7f:	c3                   	ret

00000f80 <malloc>:
     f80:	55                   	push   %ebp
     f81:	89 e5                	mov    %esp,%ebp
     f83:	53                   	push   %ebx
     f84:	83 ec 14             	sub    $0x14,%esp
     f87:	e8 4f ff ff ff       	call   edb <__x86.get_pc_thunk.ax>
     f8c:	05 18 26 00 00       	add    $0x2618,%eax
     f91:	c7 c2 f4 35 00 00    	mov    $0x35f4,%edx
     f97:	8b 12                	mov    (%edx),%edx
     f99:	89 55 f4             	mov    %edx,-0xc(%ebp)
     f9c:	c7 c2 f4 35 00 00    	mov    $0x35f4,%edx
     fa2:	8b 12                	mov    (%edx),%edx
     fa4:	8b 4d 08             	mov    0x8(%ebp),%ecx
     fa7:	83 c1 10             	add    $0x10,%ecx
     faa:	01 d1                	add    %edx,%ecx
     fac:	c7 c2 f4 35 00 00    	mov    $0x35f4,%edx
     fb2:	89 0a                	mov    %ecx,(%edx)
     fb4:	c7 c2 f4 35 00 00    	mov    $0x35f4,%edx
     fba:	8b 0a                	mov    (%edx),%ecx
     fbc:	c7 c2 e8 35 00 00    	mov    $0x35e8,%edx
     fc2:	8b 1a                	mov    (%edx),%ebx
     fc4:	c7 c2 e8 35 00 00    	mov    $0x35e8,%edx
     fca:	8b 52 04             	mov    0x4(%edx),%edx
     fcd:	01 da                	add    %ebx,%edx
     fcf:	39 d1                	cmp    %edx,%ecx
     fd1:	72 16                	jb     fe9 <malloc+0x69>
     fd3:	83 ec 0c             	sub    $0xc,%esp
     fd6:	8d 90 b4 ef ff ff    	lea    -0x104c(%eax),%edx
     fdc:	52                   	push   %edx
     fdd:	89 c3                	mov    %eax,%ebx
     fdf:	e8 32 f7 ff ff       	call   716 <printf>
     fe4:	83 c4 10             	add    $0x10,%esp
     fe7:	eb fe                	jmp    fe7 <malloc+0x67>
     fe9:	8b 45 f4             	mov    -0xc(%ebp),%eax
     fec:	8b 5d fc             	mov    -0x4(%ebp),%ebx
     fef:	c9                   	leave
     ff0:	c3                   	ret

00000ff1 <calloc>:
     ff1:	55                   	push   %ebp
     ff2:	89 e5                	mov    %esp,%ebp
     ff4:	53                   	push   %ebx
     ff5:	83 ec 04             	sub    $0x4,%esp
     ff8:	e8 de fe ff ff       	call   edb <__x86.get_pc_thunk.ax>
     ffd:	05 a7 25 00 00       	add    $0x25a7,%eax
    1002:	8b 55 08             	mov    0x8(%ebp),%edx
    1005:	0f af 55 0c          	imul   0xc(%ebp),%edx
    1009:	83 ec 0c             	sub    $0xc,%esp
    100c:	52                   	push   %edx
    100d:	89 c3                	mov    %eax,%ebx
    100f:	e8 6c ff ff ff       	call   f80 <malloc>
    1014:	83 c4 10             	add    $0x10,%esp
    1017:	8b 5d fc             	mov    -0x4(%ebp),%ebx
    101a:	c9                   	leave
    101b:	c3                   	ret

0000101c <free>:
    101c:	55                   	push   %ebp
    101d:	89 e5                	mov    %esp,%ebp
    101f:	e8 b7 fe ff ff       	call   edb <__x86.get_pc_thunk.ax>
    1024:	05 80 25 00 00       	add    $0x2580,%eax
    1029:	90                   	nop
    102a:	5d                   	pop    %ebp
    102b:	c3                   	ret

0000102c <realloc>:
    102c:	55                   	push   %ebp
    102d:	89 e5                	mov    %esp,%ebp
    102f:	53                   	push   %ebx
    1030:	83 ec 14             	sub    $0x14,%esp
    1033:	e8 a7 fe ff ff       	call   edf <__x86.get_pc_thunk.bx>
    1038:	81 c3 6c 25 00 00    	add    $0x256c,%ebx
    103e:	83 ec 0c             	sub    $0xc,%esp
    1041:	ff 75 0c             	push   0xc(%ebp)
    1044:	e8 37 ff ff ff       	call   f80 <malloc>
    1049:	83 c4 10             	add    $0x10,%esp
    104c:	89 45 f4             	mov    %eax,-0xc(%ebp)
    104f:	83 ec 04             	sub    $0x4,%esp
    1052:	ff 75 0c             	push   0xc(%ebp)
    1055:	ff 75 08             	push   0x8(%ebp)
    1058:	ff 75 f4             	push   -0xc(%ebp)
    105b:	e8 34 05 00 00       	call   1594 <memcpy>
    1060:	83 c4 10             	add    $0x10,%esp
    1063:	83 ec 0c             	sub    $0xc,%esp
    1066:	ff 75 08             	push   0x8(%ebp)
    1069:	e8 ae ff ff ff       	call   101c <free>
    106e:	83 c4 10             	add    $0x10,%esp
    1071:	8b 45 f4             	mov    -0xc(%ebp),%eax
    1074:	8b 5d fc             	mov    -0x4(%ebp),%ebx
    1077:	c9                   	leave
    1078:	c3                   	ret

00001079 <atoi>:
    1079:	55                   	push   %ebp
    107a:	89 e5                	mov    %esp,%ebp
    107c:	83 ec 10             	sub    $0x10,%esp
    107f:	e8 57 fe ff ff       	call   edb <__x86.get_pc_thunk.ax>
    1084:	05 20 25 00 00       	add    $0x2520,%eax
    1089:	c7 45 fc 00 00 00 00 	movl   $0x0,-0x4(%ebp)
    1090:	8b 45 08             	mov    0x8(%ebp),%eax
    1093:	8a 00                	mov    (%eax),%al
    1095:	3c 2d                	cmp    $0x2d,%al
    1097:	75 2a                	jne    10c3 <atoi+0x4a>
    1099:	ff 45 08             	incl   0x8(%ebp)
    109c:	c6 45 fb 01          	movb   $0x1,-0x5(%ebp)
    10a0:	eb 21                	jmp    10c3 <atoi+0x4a>
    10a2:	8b 55 fc             	mov    -0x4(%ebp),%edx
    10a5:	89 d0                	mov    %edx,%eax
    10a7:	c1 e0 02             	shl    $0x2,%eax
    10aa:	01 d0                	add    %edx,%eax
    10ac:	01 c0                	add    %eax,%eax
    10ae:	89 c2                	mov    %eax,%edx
    10b0:	8b 45 08             	mov    0x8(%ebp),%eax
    10b3:	8a 00                	mov    (%eax),%al
    10b5:	0f be c0             	movsbl %al,%eax
    10b8:	83 e8 30             	sub    $0x30,%eax
    10bb:	01 d0                	add    %edx,%eax
    10bd:	89 45 fc             	mov    %eax,-0x4(%ebp)
    10c0:	ff 45 08             	incl   0x8(%ebp)
    10c3:	8b 45 08             	mov    0x8(%ebp),%eax
    10c6:	8a 00                	mov    (%eax),%al
    10c8:	84 c0                	test   %al,%al
    10ca:	74 12                	je     10de <atoi+0x65>
    10cc:	8b 45 08             	mov    0x8(%ebp),%eax
    10cf:	8a 00                	mov    (%eax),%al
    10d1:	3c 20                	cmp    $0x20,%al
    10d3:	74 09                	je     10de <atoi+0x65>
    10d5:	8b 45 08             	mov    0x8(%ebp),%eax
    10d8:	8a 00                	mov    (%eax),%al
    10da:	3c 0a                	cmp    $0xa,%al
    10dc:	75 c4                	jne    10a2 <atoi+0x29>
    10de:	80 7d fb 00          	cmpb   $0x0,-0x5(%ebp)
    10e2:	74 07                	je     10eb <atoi+0x72>
    10e4:	8b 45 fc             	mov    -0x4(%ebp),%eax
    10e7:	f7 d8                	neg    %eax
    10e9:	eb 03                	jmp    10ee <atoi+0x75>
    10eb:	8b 45 fc             	mov    -0x4(%ebp),%eax
    10ee:	c9                   	leave
    10ef:	c3                   	ret

000010f0 <atof>:
    10f0:	55                   	push   %ebp
    10f1:	89 e5                	mov    %esp,%ebp
    10f3:	83 ec 18             	sub    $0x18,%esp
    10f6:	e8 e0 fd ff ff       	call   edb <__x86.get_pc_thunk.ax>
    10fb:	05 a9 24 00 00       	add    $0x24a9,%eax
    1100:	d9 ee                	fldz
    1102:	d9 5d fc             	fstps  -0x4(%ebp)
    1105:	c6 45 fb 00          	movb   $0x0,-0x5(%ebp)
    1109:	d9 e8                	fld1
    110b:	d9 5d f4             	fstps  -0xc(%ebp)
    110e:	c6 45 f3 00          	movb   $0x0,-0xd(%ebp)
    1112:	eb 03                	jmp    1117 <atof+0x27>
    1114:	ff 45 08             	incl   0x8(%ebp)
    1117:	8b 55 08             	mov    0x8(%ebp),%edx
    111a:	8a 12                	mov    (%edx),%dl
    111c:	80 fa 20             	cmp    $0x20,%dl
    111f:	74 f3                	je     1114 <atof+0x24>
    1121:	8b 55 08             	mov    0x8(%ebp),%edx
    1124:	8a 12                	mov    (%edx),%dl
    1126:	80 fa 2d             	cmp    $0x2d,%dl
    1129:	75 72                	jne    119d <atof+0xad>
    112b:	ff 45 08             	incl   0x8(%ebp)
    112e:	c6 45 f3 01          	movb   $0x1,-0xd(%ebp)
    1132:	eb 69                	jmp    119d <atof+0xad>
    1134:	80 7d fb 00          	cmpb   $0x0,-0x5(%ebp)
    1138:	74 2c                	je     1166 <atof+0x76>
    113a:	d9 45 f4             	flds   -0xc(%ebp)
    113d:	d9 80 d0 ef ff ff    	flds   -0x1030(%eax)
    1143:	de f9                	fdivrp %st,%st(1)
    1145:	d9 5d f4             	fstps  -0xc(%ebp)
    1148:	8b 55 08             	mov    0x8(%ebp),%edx
    114b:	8a 12                	mov    (%edx),%dl
    114d:	0f be d2             	movsbl %dl,%edx
    1150:	83 ea 30             	sub    $0x30,%edx
    1153:	89 55 ec             	mov    %edx,-0x14(%ebp)
    1156:	db 45 ec             	fildl  -0x14(%ebp)
    1159:	d8 4d f4             	fmuls  -0xc(%ebp)
    115c:	d9 45 fc             	flds   -0x4(%ebp)
    115f:	de c1                	faddp  %st,%st(1)
    1161:	d9 5d fc             	fstps  -0x4(%ebp)
    1164:	eb 34                	jmp    119a <atof+0xaa>
    1166:	8b 55 08             	mov    0x8(%ebp),%edx
    1169:	8a 12                	mov    (%edx),%dl
    116b:	80 fa 2e             	cmp    $0x2e,%dl
    116e:	75 09                	jne    1179 <atof+0x89>
    1170:	8a 55 fb             	mov    -0x5(%ebp),%dl
    1173:	42                   	inc    %edx
    1174:	88 55 fb             	mov    %dl,-0x5(%ebp)
    1177:	eb 21                	jmp    119a <atof+0xaa>
    1179:	d9 45 fc             	flds   -0x4(%ebp)
    117c:	dd 80 d4 ef ff ff    	fldl   -0x102c(%eax)
    1182:	de c9                	fmulp  %st,%st(1)
    1184:	8b 55 08             	mov    0x8(%ebp),%edx
    1187:	8a 12                	mov    (%edx),%dl
    1189:	0f be d2             	movsbl %dl,%edx
    118c:	83 ea 30             	sub    $0x30,%edx
    118f:	89 55 ec             	mov    %edx,-0x14(%ebp)
    1192:	db 45 ec             	fildl  -0x14(%ebp)
    1195:	de c1                	faddp  %st,%st(1)
    1197:	d9 5d fc             	fstps  -0x4(%ebp)
    119a:	ff 45 08             	incl   0x8(%ebp)
    119d:	8b 55 08             	mov    0x8(%ebp),%edx
    11a0:	8a 12                	mov    (%edx),%dl
    11a2:	84 d2                	test   %dl,%dl
    11a4:	74 18                	je     11be <atof+0xce>
    11a6:	8b 55 08             	mov    0x8(%ebp),%edx
    11a9:	8a 12                	mov    (%edx),%dl
    11ab:	80 fa 20             	cmp    $0x20,%dl
    11ae:	74 0e                	je     11be <atof+0xce>
    11b0:	8b 55 08             	mov    0x8(%ebp),%edx
    11b3:	8a 12                	mov    (%edx),%dl
    11b5:	80 fa 0a             	cmp    $0xa,%dl
    11b8:	0f 85 76 ff ff ff    	jne    1134 <atof+0x44>
    11be:	80 7d f3 00          	cmpb   $0x0,-0xd(%ebp)
    11c2:	74 07                	je     11cb <atof+0xdb>
    11c4:	d9 45 fc             	flds   -0x4(%ebp)
    11c7:	d9 e0                	fchs
    11c9:	eb 03                	jmp    11ce <atof+0xde>
    11cb:	d9 45 fc             	flds   -0x4(%ebp)
    11ce:	c9                   	leave
    11cf:	c3                   	ret

000011d0 <itoa>:
    11d0:	55                   	push   %ebp
    11d1:	89 e5                	mov    %esp,%ebp
    11d3:	83 ec 10             	sub    $0x10,%esp
    11d6:	e8 00 fd ff ff       	call   edb <__x86.get_pc_thunk.ax>
    11db:	05 c9 23 00 00       	add    $0x23c9,%eax
    11e0:	8b 45 08             	mov    0x8(%ebp),%eax
    11e3:	85 c0                	test   %eax,%eax
    11e5:	79 02                	jns    11e9 <itoa+0x19>
    11e7:	f7 d8                	neg    %eax
    11e9:	89 45 fc             	mov    %eax,-0x4(%ebp)
    11ec:	83 7d fc 00          	cmpl   $0x0,-0x4(%ebp)
    11f0:	75 15                	jne    1207 <itoa+0x37>
    11f2:	8b 45 0c             	mov    0xc(%ebp),%eax
    11f5:	c6 00 30             	movb   $0x30,(%eax)
    11f8:	8b 45 0c             	mov    0xc(%ebp),%eax
    11fb:	40                   	inc    %eax
    11fc:	c6 00 00             	movb   $0x0,(%eax)
    11ff:	8b 45 0c             	mov    0xc(%ebp),%eax
    1202:	e9 d7 00 00 00       	jmp    12de <itoa+0x10e>
    1207:	8b 45 08             	mov    0x8(%ebp),%eax
    120a:	c1 e8 1f             	shr    $0x1f,%eax
    120d:	89 45 f8             	mov    %eax,-0x8(%ebp)
    1210:	8b 45 fc             	mov    -0x4(%ebp),%eax
    1213:	89 45 f4             	mov    %eax,-0xc(%ebp)
    1216:	eb 0d                	jmp    1225 <itoa+0x55>
    1218:	8b 45 f4             	mov    -0xc(%ebp),%eax
    121b:	99                   	cltd
    121c:	f7 7d 10             	idivl  0x10(%ebp)
    121f:	89 45 f4             	mov    %eax,-0xc(%ebp)
    1222:	ff 45 f8             	incl   -0x8(%ebp)
    1225:	83 7d f4 00          	cmpl   $0x0,-0xc(%ebp)
    1229:	75 ed                	jne    1218 <itoa+0x48>
    122b:	8b 55 f8             	mov    -0x8(%ebp),%edx
    122e:	8b 45 0c             	mov    0xc(%ebp),%eax
    1231:	01 d0                	add    %edx,%eax
    1233:	c6 00 00             	movb   $0x0,(%eax)
    1236:	83 7d 10 0a          	cmpl   $0xa,0x10(%ebp)
    123a:	0f 85 89 00 00 00    	jne    12c9 <itoa+0xf9>
    1240:	eb 3a                	jmp    127c <itoa+0xac>
    1242:	8b 45 fc             	mov    -0x4(%ebp),%eax
    1245:	b9 0a 00 00 00       	mov    $0xa,%ecx
    124a:	99                   	cltd
    124b:	f7 f9                	idiv   %ecx
    124d:	89 d0                	mov    %edx,%eax
    124f:	8d 48 30             	lea    0x30(%eax),%ecx
    1252:	ff 4d f8             	decl   -0x8(%ebp)
    1255:	8b 55 f8             	mov    -0x8(%ebp),%edx
    1258:	8b 45 0c             	mov    0xc(%ebp),%eax
    125b:	01 d0                	add    %edx,%eax
    125d:	88 ca                	mov    %cl,%dl
    125f:	88 10                	mov    %dl,(%eax)
    1261:	8b 4d fc             	mov    -0x4(%ebp),%ecx
    1264:	ba 67 66 66 66       	mov    $0x66666667,%edx
    1269:	89 c8                	mov    %ecx,%eax
    126b:	f7 ea                	imul   %edx
    126d:	89 d0                	mov    %edx,%eax
    126f:	c1 f8 02             	sar    $0x2,%eax
    1272:	c1 f9 1f             	sar    $0x1f,%ecx
    1275:	89 ca                	mov    %ecx,%edx
    1277:	29 d0                	sub    %edx,%eax
    1279:	89 45 fc             	mov    %eax,-0x4(%ebp)
    127c:	83 7d fc 00          	cmpl   $0x0,-0x4(%ebp)
    1280:	75 c0                	jne    1242 <itoa+0x72>
    1282:	eb 4b                	jmp    12cf <itoa+0xff>
    1284:	8b 45 fc             	mov    -0x4(%ebp),%eax
    1287:	83 e0 0f             	and    $0xf,%eax
    128a:	89 45 f0             	mov    %eax,-0x10(%ebp)
    128d:	83 7d f0 09          	cmpl   $0x9,-0x10(%ebp)
    1291:	7e 1a                	jle    12ad <itoa+0xdd>
    1293:	8b 45 fc             	mov    -0x4(%ebp),%eax
    1296:	83 e0 0f             	and    $0xf,%eax
    1299:	8d 48 37             	lea    0x37(%eax),%ecx
    129c:	ff 4d f8             	decl   -0x8(%ebp)
    129f:	8b 55 f8             	mov    -0x8(%ebp),%edx
    12a2:	8b 45 0c             	mov    0xc(%ebp),%eax
    12a5:	01 d0                	add    %edx,%eax
    12a7:	88 ca                	mov    %cl,%dl
    12a9:	88 10                	mov    %dl,(%eax)
    12ab:	eb 18                	jmp    12c5 <itoa+0xf5>
    12ad:	8b 45 fc             	mov    -0x4(%ebp),%eax
    12b0:	83 e0 0f             	and    $0xf,%eax
    12b3:	8d 48 30             	lea    0x30(%eax),%ecx
    12b6:	ff 4d f8             	decl   -0x8(%ebp)
    12b9:	8b 55 f8             	mov    -0x8(%ebp),%edx
    12bc:	8b 45 0c             	mov    0xc(%ebp),%eax
    12bf:	01 d0                	add    %edx,%eax
    12c1:	88 ca                	mov    %cl,%dl
    12c3:	88 10                	mov    %dl,(%eax)
    12c5:	c1 7d fc 04          	sarl   $0x4,-0x4(%ebp)
    12c9:	83 7d fc 00          	cmpl   $0x0,-0x4(%ebp)
    12cd:	75 b5                	jne    1284 <itoa+0xb4>
    12cf:	83 7d 08 00          	cmpl   $0x0,0x8(%ebp)
    12d3:	79 06                	jns    12db <itoa+0x10b>
    12d5:	8b 45 0c             	mov    0xc(%ebp),%eax
    12d8:	c6 00 2d             	movb   $0x2d,(%eax)
    12db:	8b 45 0c             	mov    0xc(%ebp),%eax
    12de:	c9                   	leave
    12df:	c3                   	ret

000012e0 <exit>:
    12e0:	55                   	push   %ebp
    12e1:	89 e5                	mov    %esp,%ebp
    12e3:	53                   	push   %ebx
    12e4:	e8 f2 fb ff ff       	call   edb <__x86.get_pc_thunk.ax>
    12e9:	05 bb 22 00 00       	add    $0x22bb,%eax
    12ee:	8b 45 08             	mov    0x8(%ebp),%eax
    12f1:	89 c3                	mov    %eax,%ebx
    12f3:	b8 1f 00 00 00       	mov    $0x1f,%eax
    12f8:	cd 80                	int    $0x80
    12fa:	90                   	nop
    12fb:	8b 5d fc             	mov    -0x4(%ebp),%ebx
    12fe:	c9                   	leave
    12ff:	c3                   	ret

00001300 <srand>:
    1300:	55                   	push   %ebp
    1301:	89 e5                	mov    %esp,%ebp
    1303:	53                   	push   %ebx
    1304:	e8 d2 fb ff ff       	call   edb <__x86.get_pc_thunk.ax>
    1309:	05 9b 22 00 00       	add    $0x229b,%eax
    130e:	8b 5d 08             	mov    0x8(%ebp),%ebx
    1311:	b8 1d 00 00 00       	mov    $0x1d,%eax
    1316:	cd 80                	int    $0x80
    1318:	90                   	nop
    1319:	8b 5d fc             	mov    -0x4(%ebp),%ebx
    131c:	c9                   	leave
    131d:	c3                   	ret

0000131e <rand>:
    131e:	55                   	push   %ebp
    131f:	89 e5                	mov    %esp,%ebp
    1321:	e8 b5 fb ff ff       	call   edb <__x86.get_pc_thunk.ax>
    1326:	05 7e 22 00 00       	add    $0x227e,%eax
    132b:	b8 1e 00 00 00       	mov    $0x1e,%eax
    1330:	cd 80                	int    $0x80
    1332:	5d                   	pop    %ebp
    1333:	c3                   	ret

00001334 <strtol>:
    1334:	55                   	push   %ebp
    1335:	89 e5                	mov    %esp,%ebp
    1337:	57                   	push   %edi
    1338:	56                   	push   %esi
    1339:	53                   	push   %ebx
    133a:	83 ec 2c             	sub    $0x2c,%esp
    133d:	e8 9d fb ff ff       	call   edf <__x86.get_pc_thunk.bx>
    1342:	81 c3 62 22 00 00    	add    $0x2262,%ebx
    1348:	8b 7d 08             	mov    0x8(%ebp),%edi
    134b:	c7 45 dc 00 00 00 00 	movl   $0x0,-0x24(%ebp)
    1352:	89 f8                	mov    %edi,%eax
    1354:	8d 78 01             	lea    0x1(%eax),%edi
    1357:	8a 00                	mov    (%eax),%al
    1359:	0f be f0             	movsbl %al,%esi
    135c:	83 fe 20             	cmp    $0x20,%esi
    135f:	74 f1                	je     1352 <strtol+0x1e>
    1361:	83 fe 2d             	cmp    $0x2d,%esi
    1364:	75 13                	jne    1379 <strtol+0x45>
    1366:	c7 45 dc 01 00 00 00 	movl   $0x1,-0x24(%ebp)
    136d:	89 f8                	mov    %edi,%eax
    136f:	8d 78 01             	lea    0x1(%eax),%edi
    1372:	8a 00                	mov    (%eax),%al
    1374:	0f be f0             	movsbl %al,%esi
    1377:	eb 0f                	jmp    1388 <strtol+0x54>
    1379:	83 fe 2b             	cmp    $0x2b,%esi
    137c:	75 0a                	jne    1388 <strtol+0x54>
    137e:	89 f8                	mov    %edi,%eax
    1380:	8d 78 01             	lea    0x1(%eax),%edi
    1383:	8a 00                	mov    (%eax),%al
    1385:	0f be f0             	movsbl %al,%esi
    1388:	83 7d 10 00          	cmpl   $0x0,0x10(%ebp)
    138c:	74 06                	je     1394 <strtol+0x60>
    138e:	83 7d 10 10          	cmpl   $0x10,0x10(%ebp)
    1392:	75 23                	jne    13b7 <strtol+0x83>
    1394:	83 fe 30             	cmp    $0x30,%esi
    1397:	75 1e                	jne    13b7 <strtol+0x83>
    1399:	8a 07                	mov    (%edi),%al
    139b:	3c 78                	cmp    $0x78,%al
    139d:	74 06                	je     13a5 <strtol+0x71>
    139f:	8a 07                	mov    (%edi),%al
    13a1:	3c 58                	cmp    $0x58,%al
    13a3:	75 12                	jne    13b7 <strtol+0x83>
    13a5:	8d 47 01             	lea    0x1(%edi),%eax
    13a8:	8a 00                	mov    (%eax),%al
    13aa:	0f be f0             	movsbl %al,%esi
    13ad:	83 c7 02             	add    $0x2,%edi
    13b0:	c7 45 10 10 00 00 00 	movl   $0x10,0x10(%ebp)
    13b7:	83 7d 10 00          	cmpl   $0x0,0x10(%ebp)
    13bb:	75 14                	jne    13d1 <strtol+0x9d>
    13bd:	83 fe 30             	cmp    $0x30,%esi
    13c0:	75 07                	jne    13c9 <strtol+0x95>
    13c2:	b8 08 00 00 00       	mov    $0x8,%eax
    13c7:	eb 05                	jmp    13ce <strtol+0x9a>
    13c9:	b8 0a 00 00 00       	mov    $0xa,%eax
    13ce:	89 45 10             	mov    %eax,0x10(%ebp)
    13d1:	83 7d dc 00          	cmpl   $0x0,-0x24(%ebp)
    13d5:	74 07                	je     13de <strtol+0xaa>
    13d7:	b8 00 00 00 80       	mov    $0x80000000,%eax
    13dc:	eb 05                	jmp    13e3 <strtol+0xaf>
    13de:	b8 ff ff ff 7f       	mov    $0x7fffffff,%eax
    13e3:	8b 4d 10             	mov    0x10(%ebp),%ecx
    13e6:	89 45 d8             	mov    %eax,-0x28(%ebp)
    13e9:	8b 45 d8             	mov    -0x28(%ebp),%eax
    13ec:	ba 00 00 00 00       	mov    $0x0,%edx
    13f1:	f7 f1                	div    %ecx
    13f3:	89 d0                	mov    %edx,%eax
    13f5:	89 45 d4             	mov    %eax,-0x2c(%ebp)
    13f8:	8b 4d 10             	mov    0x10(%ebp),%ecx
    13fb:	8b 45 d8             	mov    -0x28(%ebp),%eax
    13fe:	ba 00 00 00 00       	mov    $0x0,%edx
    1403:	f7 f1                	div    %ecx
    1405:	89 45 d8             	mov    %eax,-0x28(%ebp)
    1408:	c7 45 e4 00 00 00 00 	movl   $0x0,-0x1c(%ebp)
    140f:	c7 45 e0 00 00 00 00 	movl   $0x0,-0x20(%ebp)
    1416:	83 ec 0c             	sub    $0xc,%esp
    1419:	56                   	push   %esi
    141a:	e8 68 0f 00 00       	call   2387 <isdigit>
    141f:	83 c4 10             	add    $0x10,%esp
    1422:	85 c0                	test   %eax,%eax
    1424:	74 05                	je     142b <strtol+0xf7>
    1426:	83 ee 30             	sub    $0x30,%esi
    1429:	eb 2e                	jmp    1459 <strtol+0x125>
    142b:	83 ec 0c             	sub    $0xc,%esp
    142e:	56                   	push   %esi
    142f:	e8 7a 0f 00 00       	call   23ae <isalpha>
    1434:	83 c4 10             	add    $0x10,%esp
    1437:	85 c0                	test   %eax,%eax
    1439:	74 6d                	je     14a8 <strtol+0x174>
    143b:	83 ec 0c             	sub    $0xc,%esp
    143e:	56                   	push   %esi
    143f:	e8 9d 0f 00 00       	call   23e1 <isupper>
    1444:	83 c4 10             	add    $0x10,%esp
    1447:	85 c0                	test   %eax,%eax
    1449:	74 07                	je     1452 <strtol+0x11e>
    144b:	b8 37 00 00 00       	mov    $0x37,%eax
    1450:	eb 05                	jmp    1457 <strtol+0x123>
    1452:	b8 57 00 00 00       	mov    $0x57,%eax
    1457:	29 c6                	sub    %eax,%esi
    1459:	3b 75 10             	cmp    0x10(%ebp),%esi
    145c:	7d 4d                	jge    14ab <strtol+0x177>
    145e:	83 7d e0 00          	cmpl   $0x0,-0x20(%ebp)
    1462:	78 15                	js     1479 <strtol+0x145>
    1464:	8b 45 d8             	mov    -0x28(%ebp),%eax
    1467:	8b 55 e4             	mov    -0x1c(%ebp),%edx
    146a:	39 d0                	cmp    %edx,%eax
    146c:	72 0b                	jb     1479 <strtol+0x145>
    146e:	39 c2                	cmp    %eax,%edx
    1470:	75 10                	jne    1482 <strtol+0x14e>
    1472:	8b 45 d4             	mov    -0x2c(%ebp),%eax
    1475:	39 c6                	cmp    %eax,%esi
    1477:	7e 09                	jle    1482 <strtol+0x14e>
    1479:	c7 45 e0 ff ff ff ff 	movl   $0xffffffff,-0x20(%ebp)
    1480:	eb 17                	jmp    1499 <strtol+0x165>
    1482:	c7 45 e0 01 00 00 00 	movl   $0x1,-0x20(%ebp)
    1489:	8b 45 10             	mov    0x10(%ebp),%eax
    148c:	8b 4d e4             	mov    -0x1c(%ebp),%ecx
    148f:	0f af c8             	imul   %eax,%ecx
    1492:	89 f0                	mov    %esi,%eax
    1494:	01 c1                	add    %eax,%ecx
    1496:	89 4d e4             	mov    %ecx,-0x1c(%ebp)
    1499:	89 f8                	mov    %edi,%eax
    149b:	8d 78 01             	lea    0x1(%eax),%edi
    149e:	8a 00                	mov    (%eax),%al
    14a0:	0f be f0             	movsbl %al,%esi
    14a3:	e9 6e ff ff ff       	jmp    1416 <strtol+0xe2>
    14a8:	90                   	nop
    14a9:	eb 01                	jmp    14ac <strtol+0x178>
    14ab:	90                   	nop
    14ac:	83 7d e0 00          	cmpl   $0x0,-0x20(%ebp)
    14b0:	79 17                	jns    14c9 <strtol+0x195>
    14b2:	83 7d dc 00          	cmpl   $0x0,-0x24(%ebp)
    14b6:	74 07                	je     14bf <strtol+0x18b>
    14b8:	b8 00 00 00 80       	mov    $0x80000000,%eax
    14bd:	eb 05                	jmp    14c4 <strtol+0x190>
    14bf:	b8 ff ff ff 7f       	mov    $0x7fffffff,%eax
    14c4:	89 45 e4             	mov    %eax,-0x1c(%ebp)
    14c7:	eb 09                	jmp    14d2 <strtol+0x19e>
    14c9:	83 7d dc 00          	cmpl   $0x0,-0x24(%ebp)
    14cd:	74 03                	je     14d2 <strtol+0x19e>
    14cf:	f7 5d e4             	negl   -0x1c(%ebp)
    14d2:	83 7d 0c 00          	cmpl   $0x0,0xc(%ebp)
    14d6:	74 13                	je     14eb <strtol+0x1b7>
    14d8:	83 7d e0 00          	cmpl   $0x0,-0x20(%ebp)
    14dc:	74 05                	je     14e3 <strtol+0x1af>
    14de:	8d 47 ff             	lea    -0x1(%edi),%eax
    14e1:	eb 03                	jmp    14e6 <strtol+0x1b2>
    14e3:	8b 45 08             	mov    0x8(%ebp),%eax
    14e6:	8b 55 0c             	mov    0xc(%ebp),%edx
    14e9:	89 02                	mov    %eax,(%edx)
    14eb:	8b 45 e4             	mov    -0x1c(%ebp),%eax
    14ee:	8d 65 f4             	lea    -0xc(%ebp),%esp
    14f1:	5b                   	pop    %ebx
    14f2:	5e                   	pop    %esi
    14f3:	5f                   	pop    %edi
    14f4:	5d                   	pop    %ebp
    14f5:	c3                   	ret

000014f6 <memchr>:
    14f6:	55                   	push   %ebp
    14f7:	89 e5                	mov    %esp,%ebp
    14f9:	83 ec 10             	sub    $0x10,%esp
    14fc:	e8 da f9 ff ff       	call   edb <__x86.get_pc_thunk.ax>
    1501:	05 a3 20 00 00       	add    $0x20a3,%eax
    1506:	8b 45 0c             	mov    0xc(%ebp),%eax
    1509:	88 45 fb             	mov    %al,-0x5(%ebp)
    150c:	8b 45 08             	mov    0x8(%ebp),%eax
    150f:	89 45 fc             	mov    %eax,-0x4(%ebp)
    1512:	eb 15                	jmp    1529 <memchr+0x33>
    1514:	8b 45 fc             	mov    -0x4(%ebp),%eax
    1517:	8a 00                	mov    (%eax),%al
    1519:	38 45 fb             	cmp    %al,-0x5(%ebp)
    151c:	75 05                	jne    1523 <memchr+0x2d>
    151e:	8b 45 fc             	mov    -0x4(%ebp),%eax
    1521:	eb 11                	jmp    1534 <memchr+0x3e>
    1523:	ff 45 fc             	incl   -0x4(%ebp)
    1526:	ff 4d 10             	decl   0x10(%ebp)
    1529:	83 7d 10 00          	cmpl   $0x0,0x10(%ebp)
    152d:	75 e5                	jne    1514 <memchr+0x1e>
    152f:	b8 00 00 00 00       	mov    $0x0,%eax
    1534:	c9                   	leave
    1535:	c3                   	ret

00001536 <memcmp>:
    1536:	55                   	push   %ebp
    1537:	89 e5                	mov    %esp,%ebp
    1539:	83 ec 10             	sub    $0x10,%esp
    153c:	e8 9a f9 ff ff       	call   edb <__x86.get_pc_thunk.ax>
    1541:	05 63 20 00 00       	add    $0x2063,%eax
    1546:	8b 45 08             	mov    0x8(%ebp),%eax
    1549:	89 45 fc             	mov    %eax,-0x4(%ebp)
    154c:	8b 45 0c             	mov    0xc(%ebp),%eax
    154f:	89 45 f8             	mov    %eax,-0x8(%ebp)
    1552:	eb 33                	jmp    1587 <memcmp+0x51>
    1554:	8b 45 fc             	mov    -0x4(%ebp),%eax
    1557:	8a 10                	mov    (%eax),%dl
    1559:	8b 45 f8             	mov    -0x8(%ebp),%eax
    155c:	8a 00                	mov    (%eax),%al
    155e:	38 c2                	cmp    %al,%dl
    1560:	74 1c                	je     157e <memcmp+0x48>
    1562:	8b 45 fc             	mov    -0x4(%ebp),%eax
    1565:	8a 10                	mov    (%eax),%dl
    1567:	8b 45 f8             	mov    -0x8(%ebp),%eax
    156a:	8a 00                	mov    (%eax),%al
    156c:	38 c2                	cmp    %al,%dl
    156e:	73 07                	jae    1577 <memcmp+0x41>
    1570:	b8 ff ff ff ff       	mov    $0xffffffff,%eax
    1575:	eb 1b                	jmp    1592 <memcmp+0x5c>
    1577:	b8 01 00 00 00       	mov    $0x1,%eax
    157c:	eb 14                	jmp    1592 <memcmp+0x5c>
    157e:	ff 45 fc             	incl   -0x4(%ebp)
    1581:	ff 45 f8             	incl   -0x8(%ebp)
    1584:	ff 4d 10             	decl   0x10(%ebp)
    1587:	83 7d 10 00          	cmpl   $0x0,0x10(%ebp)
    158b:	75 c7                	jne    1554 <memcmp+0x1e>
    158d:	b8 00 00 00 00       	mov    $0x0,%eax
    1592:	c9                   	leave
    1593:	c3                   	ret

00001594 <memcpy>:
    1594:	55                   	push   %ebp
    1595:	89 e5                	mov    %esp,%ebp
    1597:	83 ec 10             	sub    $0x10,%esp
    159a:	e8 3c f9 ff ff       	call   edb <__x86.get_pc_thunk.ax>
    159f:	05 05 20 00 00       	add    $0x2005,%eax
    15a4:	8b 45 08             	mov    0x8(%ebp),%eax
    15a7:	89 45 fc             	mov    %eax,-0x4(%ebp)
    15aa:	8b 45 0c             	mov    0xc(%ebp),%eax
    15ad:	89 45 f8             	mov    %eax,-0x8(%ebp)
    15b0:	eb 13                	jmp    15c5 <memcpy+0x31>
    15b2:	8b 45 f8             	mov    -0x8(%ebp),%eax
    15b5:	8a 10                	mov    (%eax),%dl
    15b7:	8b 45 fc             	mov    -0x4(%ebp),%eax
    15ba:	88 10                	mov    %dl,(%eax)
    15bc:	ff 45 fc             	incl   -0x4(%ebp)
    15bf:	ff 45 f8             	incl   -0x8(%ebp)
    15c2:	ff 4d 10             	decl   0x10(%ebp)
    15c5:	83 7d 10 00          	cmpl   $0x0,0x10(%ebp)
    15c9:	75 e7                	jne    15b2 <memcpy+0x1e>
    15cb:	8b 45 08             	mov    0x8(%ebp),%eax
    15ce:	c9                   	leave
    15cf:	c3                   	ret

000015d0 <memmove>:
    15d0:	55                   	push   %ebp
    15d1:	89 e5                	mov    %esp,%ebp
    15d3:	83 ec 10             	sub    $0x10,%esp
    15d6:	e8 00 f9 ff ff       	call   edb <__x86.get_pc_thunk.ax>
    15db:	05 c9 1f 00 00       	add    $0x1fc9,%eax
    15e0:	8b 45 08             	mov    0x8(%ebp),%eax
    15e3:	89 45 fc             	mov    %eax,-0x4(%ebp)
    15e6:	8b 45 0c             	mov    0xc(%ebp),%eax
    15e9:	89 45 f8             	mov    %eax,-0x8(%ebp)
    15ec:	8b 45 f8             	mov    -0x8(%ebp),%eax
    15ef:	3b 45 fc             	cmp    -0x4(%ebp),%eax
    15f2:	73 4f                	jae    1643 <memmove+0x73>
    15f4:	8b 55 f8             	mov    -0x8(%ebp),%edx
    15f7:	8b 45 10             	mov    0x10(%ebp),%eax
    15fa:	01 d0                	add    %edx,%eax
    15fc:	39 45 fc             	cmp    %eax,-0x4(%ebp)
    15ff:	73 42                	jae    1643 <memmove+0x73>
    1601:	8b 45 10             	mov    0x10(%ebp),%eax
    1604:	01 45 fc             	add    %eax,-0x4(%ebp)
    1607:	8b 45 10             	mov    0x10(%ebp),%eax
    160a:	01 45 f8             	add    %eax,-0x8(%ebp)
    160d:	eb 13                	jmp    1622 <memmove+0x52>
    160f:	ff 4d f8             	decl   -0x8(%ebp)
    1612:	ff 4d fc             	decl   -0x4(%ebp)
    1615:	8b 45 f8             	mov    -0x8(%ebp),%eax
    1618:	8a 10                	mov    (%eax),%dl
    161a:	8b 45 fc             	mov    -0x4(%ebp),%eax
    161d:	88 10                	mov    %dl,(%eax)
    161f:	ff 4d 10             	decl   0x10(%ebp)
    1622:	83 7d 10 00          	cmpl   $0x0,0x10(%ebp)
    1626:	75 e7                	jne    160f <memmove+0x3f>
    1628:	eb 1f                	jmp    1649 <memmove+0x79>
    162a:	8b 55 f8             	mov    -0x8(%ebp),%edx
    162d:	8d 42 01             	lea    0x1(%edx),%eax
    1630:	89 45 f8             	mov    %eax,-0x8(%ebp)
    1633:	8b 45 fc             	mov    -0x4(%ebp),%eax
    1636:	8d 48 01             	lea    0x1(%eax),%ecx
    1639:	89 4d fc             	mov    %ecx,-0x4(%ebp)
    163c:	8a 12                	mov    (%edx),%dl
    163e:	88 10                	mov    %dl,(%eax)
    1640:	ff 4d 10             	decl   0x10(%ebp)
    1643:	83 7d 10 00          	cmpl   $0x0,0x10(%ebp)
    1647:	75 e1                	jne    162a <memmove+0x5a>
    1649:	8b 45 08             	mov    0x8(%ebp),%eax
    164c:	c9                   	leave
    164d:	c3                   	ret

0000164e <memset>:
    164e:	55                   	push   %ebp
    164f:	89 e5                	mov    %esp,%ebp
    1651:	83 ec 10             	sub    $0x10,%esp
    1654:	e8 82 f8 ff ff       	call   edb <__x86.get_pc_thunk.ax>
    1659:	05 4b 1f 00 00       	add    $0x1f4b,%eax
    165e:	8b 45 0c             	mov    0xc(%ebp),%eax
    1661:	88 45 fb             	mov    %al,-0x5(%ebp)
    1664:	8b 45 08             	mov    0x8(%ebp),%eax
    1667:	89 45 fc             	mov    %eax,-0x4(%ebp)
    166a:	eb 0e                	jmp    167a <memset+0x2c>
    166c:	8b 45 fc             	mov    -0x4(%ebp),%eax
    166f:	8a 55 fb             	mov    -0x5(%ebp),%dl
    1672:	88 10                	mov    %dl,(%eax)
    1674:	ff 45 fc             	incl   -0x4(%ebp)
    1677:	ff 4d 10             	decl   0x10(%ebp)
    167a:	83 7d 10 00          	cmpl   $0x0,0x10(%ebp)
    167e:	75 ec                	jne    166c <memset+0x1e>
    1680:	8b 45 08             	mov    0x8(%ebp),%eax
    1683:	c9                   	leave
    1684:	c3                   	ret

00001685 <strcat>:
    1685:	55                   	push   %ebp
    1686:	89 e5                	mov    %esp,%ebp
    1688:	83 ec 10             	sub    $0x10,%esp
    168b:	e8 4b f8 ff ff       	call   edb <__x86.get_pc_thunk.ax>
    1690:	05 14 1f 00 00       	add    $0x1f14,%eax
    1695:	8b 45 08             	mov    0x8(%ebp),%eax
    1698:	89 45 fc             	mov    %eax,-0x4(%ebp)
    169b:	eb 03                	jmp    16a0 <strcat+0x1b>
    169d:	ff 45 fc             	incl   -0x4(%ebp)
    16a0:	8b 45 fc             	mov    -0x4(%ebp),%eax
    16a3:	8a 00                	mov    (%eax),%al
    16a5:	84 c0                	test   %al,%al
    16a7:	75 f4                	jne    169d <strcat+0x18>
    16a9:	eb 06                	jmp    16b1 <strcat+0x2c>
    16ab:	ff 45 fc             	incl   -0x4(%ebp)
    16ae:	ff 45 0c             	incl   0xc(%ebp)
    16b1:	8b 45 0c             	mov    0xc(%ebp),%eax
    16b4:	8a 10                	mov    (%eax),%dl
    16b6:	8b 45 fc             	mov    -0x4(%ebp),%eax
    16b9:	88 10                	mov    %dl,(%eax)
    16bb:	8b 45 fc             	mov    -0x4(%ebp),%eax
    16be:	8a 00                	mov    (%eax),%al
    16c0:	84 c0                	test   %al,%al
    16c2:	75 e7                	jne    16ab <strcat+0x26>
    16c4:	8b 45 08             	mov    0x8(%ebp),%eax
    16c7:	c9                   	leave
    16c8:	c3                   	ret

000016c9 <strcmp>:
    16c9:	55                   	push   %ebp
    16ca:	89 e5                	mov    %esp,%ebp
    16cc:	e8 0a f8 ff ff       	call   edb <__x86.get_pc_thunk.ax>
    16d1:	05 d3 1e 00 00       	add    $0x1ed3,%eax
    16d6:	eb 16                	jmp    16ee <strcmp+0x25>
    16d8:	8b 45 08             	mov    0x8(%ebp),%eax
    16db:	8a 00                	mov    (%eax),%al
    16dd:	84 c0                	test   %al,%al
    16df:	75 07                	jne    16e8 <strcmp+0x1f>
    16e1:	b8 00 00 00 00       	mov    $0x0,%eax
    16e6:	eb 2e                	jmp    1716 <strcmp+0x4d>
    16e8:	ff 45 08             	incl   0x8(%ebp)
    16eb:	ff 45 0c             	incl   0xc(%ebp)
    16ee:	8b 45 08             	mov    0x8(%ebp),%eax
    16f1:	8a 10                	mov    (%eax),%dl
    16f3:	8b 45 0c             	mov    0xc(%ebp),%eax
    16f6:	8a 00                	mov    (%eax),%al
    16f8:	38 c2                	cmp    %al,%dl
    16fa:	74 dc                	je     16d8 <strcmp+0xf>
    16fc:	8b 45 08             	mov    0x8(%ebp),%eax
    16ff:	8a 10                	mov    (%eax),%dl
    1701:	8b 45 0c             	mov    0xc(%ebp),%eax
    1704:	8a 00                	mov    (%eax),%al
    1706:	38 c2                	cmp    %al,%dl
    1708:	73 07                	jae    1711 <strcmp+0x48>
    170a:	b8 ff ff ff ff       	mov    $0xffffffff,%eax
    170f:	eb 05                	jmp    1716 <strcmp+0x4d>
    1711:	b8 01 00 00 00       	mov    $0x1,%eax
    1716:	5d                   	pop    %ebp
    1717:	c3                   	ret

00001718 <strcoll>:
    1718:	55                   	push   %ebp
    1719:	89 e5                	mov    %esp,%ebp
    171b:	53                   	push   %ebx
    171c:	83 ec 04             	sub    $0x4,%esp
    171f:	e8 b7 f7 ff ff       	call   edb <__x86.get_pc_thunk.ax>
    1724:	05 80 1e 00 00       	add    $0x1e80,%eax
    1729:	83 ec 08             	sub    $0x8,%esp
    172c:	ff 75 0c             	push   0xc(%ebp)
    172f:	ff 75 08             	push   0x8(%ebp)
    1732:	89 c3                	mov    %eax,%ebx
    1734:	e8 90 ff ff ff       	call   16c9 <strcmp>
    1739:	83 c4 10             	add    $0x10,%esp
    173c:	8b 5d fc             	mov    -0x4(%ebp),%ebx
    173f:	c9                   	leave
    1740:	c3                   	ret

00001741 <strcpy>:
    1741:	55                   	push   %ebp
    1742:	89 e5                	mov    %esp,%ebp
    1744:	83 ec 10             	sub    $0x10,%esp
    1747:	e8 8f f7 ff ff       	call   edb <__x86.get_pc_thunk.ax>
    174c:	05 58 1e 00 00       	add    $0x1e58,%eax
    1751:	8b 45 08             	mov    0x8(%ebp),%eax
    1754:	89 45 fc             	mov    %eax,-0x4(%ebp)
    1757:	8b 45 08             	mov    0x8(%ebp),%eax
    175a:	89 45 fc             	mov    %eax,-0x4(%ebp)
    175d:	90                   	nop
    175e:	8b 55 0c             	mov    0xc(%ebp),%edx
    1761:	8d 42 01             	lea    0x1(%edx),%eax
    1764:	89 45 0c             	mov    %eax,0xc(%ebp)
    1767:	8b 45 fc             	mov    -0x4(%ebp),%eax
    176a:	8d 48 01             	lea    0x1(%eax),%ecx
    176d:	89 4d fc             	mov    %ecx,-0x4(%ebp)
    1770:	8a 12                	mov    (%edx),%dl
    1772:	88 10                	mov    %dl,(%eax)
    1774:	8a 00                	mov    (%eax),%al
    1776:	84 c0                	test   %al,%al
    1778:	75 e4                	jne    175e <strcpy+0x1d>
    177a:	8b 45 08             	mov    0x8(%ebp),%eax
    177d:	c9                   	leave
    177e:	c3                   	ret

0000177f <strncmp>:
    177f:	55                   	push   %ebp
    1780:	89 e5                	mov    %esp,%ebp
    1782:	53                   	push   %ebx
    1783:	e8 53 f7 ff ff       	call   edb <__x86.get_pc_thunk.ax>
    1788:	05 1c 1e 00 00       	add    $0x1e1c,%eax
    178d:	8b 4d 10             	mov    0x10(%ebp),%ecx
    1790:	eb 33                	jmp    17c5 <strncmp+0x46>
    1792:	8b 45 08             	mov    0x8(%ebp),%eax
    1795:	8d 50 01             	lea    0x1(%eax),%edx
    1798:	89 55 08             	mov    %edx,0x8(%ebp)
    179b:	8a 00                	mov    (%eax),%al
    179d:	88 c3                	mov    %al,%bl
    179f:	8b 45 0c             	mov    0xc(%ebp),%eax
    17a2:	8d 50 01             	lea    0x1(%eax),%edx
    17a5:	89 55 0c             	mov    %edx,0xc(%ebp)
    17a8:	8a 00                	mov    (%eax),%al
    17aa:	88 c2                	mov    %al,%dl
    17ac:	38 d3                	cmp    %dl,%bl
    17ae:	74 0a                	je     17ba <strncmp+0x3b>
    17b0:	0f b6 c3             	movzbl %bl,%eax
    17b3:	0f b6 d2             	movzbl %dl,%edx
    17b6:	29 d0                	sub    %edx,%eax
    17b8:	eb 19                	jmp    17d3 <strncmp+0x54>
    17ba:	84 db                	test   %bl,%bl
    17bc:	75 07                	jne    17c5 <strncmp+0x46>
    17be:	b8 00 00 00 00       	mov    $0x0,%eax
    17c3:	eb 0e                	jmp    17d3 <strncmp+0x54>
    17c5:	89 c8                	mov    %ecx,%eax
    17c7:	8d 48 ff             	lea    -0x1(%eax),%ecx
    17ca:	85 c0                	test   %eax,%eax
    17cc:	75 c4                	jne    1792 <strncmp+0x13>
    17ce:	b8 00 00 00 00       	mov    $0x0,%eax
    17d3:	8b 5d fc             	mov    -0x4(%ebp),%ebx
    17d6:	c9                   	leave
    17d7:	c3                   	ret

000017d8 <strlen>:
    17d8:	55                   	push   %ebp
    17d9:	89 e5                	mov    %esp,%ebp
    17db:	83 ec 10             	sub    $0x10,%esp
    17de:	e8 f8 f6 ff ff       	call   edb <__x86.get_pc_thunk.ax>
    17e3:	05 c1 1d 00 00       	add    $0x1dc1,%eax
    17e8:	c7 45 fc 00 00 00 00 	movl   $0x0,-0x4(%ebp)
    17ef:	eb 06                	jmp    17f7 <strlen+0x1f>
    17f1:	ff 45 fc             	incl   -0x4(%ebp)
    17f4:	ff 45 08             	incl   0x8(%ebp)
    17f7:	8b 45 08             	mov    0x8(%ebp),%eax
    17fa:	8a 00                	mov    (%eax),%al
    17fc:	84 c0                	test   %al,%al
    17fe:	75 f1                	jne    17f1 <strlen+0x19>
    1800:	8b 45 fc             	mov    -0x4(%ebp),%eax
    1803:	c9                   	leave
    1804:	c3                   	ret

00001805 <strtok_r>:
    1805:	55                   	push   %ebp
    1806:	89 e5                	mov    %esp,%ebp
    1808:	53                   	push   %ebx
    1809:	83 ec 14             	sub    $0x14,%esp
    180c:	e8 ce f6 ff ff       	call   edf <__x86.get_pc_thunk.bx>
    1811:	81 c3 93 1d 00 00    	add    $0x1d93,%ebx
    1817:	83 7d 08 00          	cmpl   $0x0,0x8(%ebp)
    181b:	75 08                	jne    1825 <strtok_r+0x20>
    181d:	8b 45 10             	mov    0x10(%ebp),%eax
    1820:	8b 00                	mov    (%eax),%eax
    1822:	89 45 08             	mov    %eax,0x8(%ebp)
    1825:	8b 45 08             	mov    0x8(%ebp),%eax
    1828:	8a 00                	mov    (%eax),%al
    182a:	84 c0                	test   %al,%al
    182c:	75 0f                	jne    183d <strtok_r+0x38>
    182e:	8b 45 10             	mov    0x10(%ebp),%eax
    1831:	8b 55 08             	mov    0x8(%ebp),%edx
    1834:	89 10                	mov    %edx,(%eax)
    1836:	b8 00 00 00 00       	mov    $0x0,%eax
    183b:	eb 6f                	jmp    18ac <strtok_r+0xa7>
    183d:	83 ec 08             	sub    $0x8,%esp
    1840:	ff 75 0c             	push   0xc(%ebp)
    1843:	ff 75 08             	push   0x8(%ebp)
    1846:	e8 66 00 00 00       	call   18b1 <strspn>
    184b:	83 c4 10             	add    $0x10,%esp
    184e:	01 45 08             	add    %eax,0x8(%ebp)
    1851:	8b 45 08             	mov    0x8(%ebp),%eax
    1854:	8a 00                	mov    (%eax),%al
    1856:	84 c0                	test   %al,%al
    1858:	75 0f                	jne    1869 <strtok_r+0x64>
    185a:	8b 45 10             	mov    0x10(%ebp),%eax
    185d:	8b 55 08             	mov    0x8(%ebp),%edx
    1860:	89 10                	mov    %edx,(%eax)
    1862:	b8 00 00 00 00       	mov    $0x0,%eax
    1867:	eb 43                	jmp    18ac <strtok_r+0xa7>
    1869:	83 ec 08             	sub    $0x8,%esp
    186c:	ff 75 0c             	push   0xc(%ebp)
    186f:	ff 75 08             	push   0x8(%ebp)
    1872:	e8 7f 02 00 00       	call   1af6 <strcspn>
    1877:	83 c4 10             	add    $0x10,%esp
    187a:	8b 55 08             	mov    0x8(%ebp),%edx
    187d:	01 d0                	add    %edx,%eax
    187f:	89 45 f4             	mov    %eax,-0xc(%ebp)
    1882:	8b 45 f4             	mov    -0xc(%ebp),%eax
    1885:	8a 00                	mov    (%eax),%al
    1887:	84 c0                	test   %al,%al
    1889:	75 0d                	jne    1898 <strtok_r+0x93>
    188b:	8b 45 10             	mov    0x10(%ebp),%eax
    188e:	8b 55 f4             	mov    -0xc(%ebp),%edx
    1891:	89 10                	mov    %edx,(%eax)
    1893:	8b 45 08             	mov    0x8(%ebp),%eax
    1896:	eb 14                	jmp    18ac <strtok_r+0xa7>
    1898:	8b 45 f4             	mov    -0xc(%ebp),%eax
    189b:	c6 00 00             	movb   $0x0,(%eax)
    189e:	8b 45 f4             	mov    -0xc(%ebp),%eax
    18a1:	8d 50 01             	lea    0x1(%eax),%edx
    18a4:	8b 45 10             	mov    0x10(%ebp),%eax
    18a7:	89 10                	mov    %edx,(%eax)
    18a9:	8b 45 08             	mov    0x8(%ebp),%eax
    18ac:	8b 5d fc             	mov    -0x4(%ebp),%ebx
    18af:	c9                   	leave
    18b0:	c3                   	ret

000018b1 <strspn>:
    18b1:	55                   	push   %ebp
    18b2:	89 e5                	mov    %esp,%ebp
    18b4:	53                   	push   %ebx
    18b5:	81 ec 24 01 00 00    	sub    $0x124,%esp
    18bb:	e8 1f f6 ff ff       	call   edf <__x86.get_pc_thunk.bx>
    18c0:	81 c3 e4 1c 00 00    	add    $0x1ce4,%ebx
    18c6:	8b 45 0c             	mov    0xc(%ebp),%eax
    18c9:	8a 00                	mov    (%eax),%al
    18cb:	84 c0                	test   %al,%al
    18cd:	75 0a                	jne    18d9 <strspn+0x28>
    18cf:	b8 00 00 00 00       	mov    $0x0,%eax
    18d4:	e9 d1 01 00 00       	jmp    1aaa <strspn+0x1f9>
    18d9:	8b 45 0c             	mov    0xc(%ebp),%eax
    18dc:	40                   	inc    %eax
    18dd:	8a 00                	mov    (%eax),%al
    18df:	84 c0                	test   %al,%al
    18e1:	75 24                	jne    1907 <strspn+0x56>
    18e3:	8b 45 08             	mov    0x8(%ebp),%eax
    18e6:	89 45 d8             	mov    %eax,-0x28(%ebp)
    18e9:	eb 03                	jmp    18ee <strspn+0x3d>
    18eb:	ff 45 08             	incl   0x8(%ebp)
    18ee:	8b 45 08             	mov    0x8(%ebp),%eax
    18f1:	8a 10                	mov    (%eax),%dl
    18f3:	8b 45 0c             	mov    0xc(%ebp),%eax
    18f6:	8a 00                	mov    (%eax),%al
    18f8:	38 c2                	cmp    %al,%dl
    18fa:	74 ef                	je     18eb <strspn+0x3a>
    18fc:	8b 45 08             	mov    0x8(%ebp),%eax
    18ff:	2b 45 d8             	sub    -0x28(%ebp),%eax
    1902:	e9 a3 01 00 00       	jmp    1aaa <strspn+0x1f9>
    1907:	83 ec 04             	sub    $0x4,%esp
    190a:	6a 40                	push   $0x40
    190c:	6a 00                	push   $0x0
    190e:	8d 85 d8 fe ff ff    	lea    -0x128(%ebp),%eax
    1914:	50                   	push   %eax
    1915:	e8 34 fd ff ff       	call   164e <memset>
    191a:	83 c4 10             	add    $0x10,%esp
    191d:	89 45 f0             	mov    %eax,-0x10(%ebp)
    1920:	8b 45 f0             	mov    -0x10(%ebp),%eax
    1923:	83 c0 40             	add    $0x40,%eax
    1926:	83 ec 04             	sub    $0x4,%esp
    1929:	6a 40                	push   $0x40
    192b:	6a 00                	push   $0x0
    192d:	50                   	push   %eax
    192e:	e8 1b fd ff ff       	call   164e <memset>
    1933:	83 c4 10             	add    $0x10,%esp
    1936:	8b 45 f0             	mov    -0x10(%ebp),%eax
    1939:	83 e8 80             	sub    $0xffffff80,%eax
    193c:	83 ec 04             	sub    $0x4,%esp
    193f:	6a 40                	push   $0x40
    1941:	6a 00                	push   $0x0
    1943:	50                   	push   %eax
    1944:	e8 05 fd ff ff       	call   164e <memset>
    1949:	83 c4 10             	add    $0x10,%esp
    194c:	8b 45 f0             	mov    -0x10(%ebp),%eax
    194f:	05 c0 00 00 00       	add    $0xc0,%eax
    1954:	83 ec 04             	sub    $0x4,%esp
    1957:	6a 40                	push   $0x40
    1959:	6a 00                	push   $0x0
    195b:	50                   	push   %eax
    195c:	e8 ed fc ff ff       	call   164e <memset>
    1961:	83 c4 10             	add    $0x10,%esp
    1964:	8b 45 0c             	mov    0xc(%ebp),%eax
    1967:	89 45 f4             	mov    %eax,-0xc(%ebp)
    196a:	8b 45 f4             	mov    -0xc(%ebp),%eax
    196d:	8d 50 01             	lea    0x1(%eax),%edx
    1970:	89 55 f4             	mov    %edx,-0xc(%ebp)
    1973:	8a 00                	mov    (%eax),%al
    1975:	0f b6 d0             	movzbl %al,%edx
    1978:	8b 45 f0             	mov    -0x10(%ebp),%eax
    197b:	01 d0                	add    %edx,%eax
    197d:	c6 00 01             	movb   $0x1,(%eax)
    1980:	8b 45 f4             	mov    -0xc(%ebp),%eax
    1983:	8a 00                	mov    (%eax),%al
    1985:	84 c0                	test   %al,%al
    1987:	75 e1                	jne    196a <strspn+0xb9>
    1989:	8b 45 08             	mov    0x8(%ebp),%eax
    198c:	89 45 f4             	mov    %eax,-0xc(%ebp)
    198f:	8b 45 f4             	mov    -0xc(%ebp),%eax
    1992:	8a 00                	mov    (%eax),%al
    1994:	0f b6 d0             	movzbl %al,%edx
    1997:	8b 45 f0             	mov    -0x10(%ebp),%eax
    199a:	01 d0                	add    %edx,%eax
    199c:	8a 00                	mov    (%eax),%al
    199e:	84 c0                	test   %al,%al
    19a0:	75 0a                	jne    19ac <strspn+0xfb>
    19a2:	b8 00 00 00 00       	mov    $0x0,%eax
    19a7:	e9 fe 00 00 00       	jmp    1aaa <strspn+0x1f9>
    19ac:	8b 45 f4             	mov    -0xc(%ebp),%eax
    19af:	40                   	inc    %eax
    19b0:	8a 00                	mov    (%eax),%al
    19b2:	0f b6 d0             	movzbl %al,%edx
    19b5:	8b 45 f0             	mov    -0x10(%ebp),%eax
    19b8:	01 d0                	add    %edx,%eax
    19ba:	8a 00                	mov    (%eax),%al
    19bc:	84 c0                	test   %al,%al
    19be:	75 0a                	jne    19ca <strspn+0x119>
    19c0:	b8 01 00 00 00       	mov    $0x1,%eax
    19c5:	e9 e0 00 00 00       	jmp    1aaa <strspn+0x1f9>
    19ca:	8b 45 f4             	mov    -0xc(%ebp),%eax
    19cd:	83 c0 02             	add    $0x2,%eax
    19d0:	8a 00                	mov    (%eax),%al
    19d2:	0f b6 d0             	movzbl %al,%edx
    19d5:	8b 45 f0             	mov    -0x10(%ebp),%eax
    19d8:	01 d0                	add    %edx,%eax
    19da:	8a 00                	mov    (%eax),%al
    19dc:	84 c0                	test   %al,%al
    19de:	75 0a                	jne    19ea <strspn+0x139>
    19e0:	b8 02 00 00 00       	mov    $0x2,%eax
    19e5:	e9 c0 00 00 00       	jmp    1aaa <strspn+0x1f9>
    19ea:	8b 45 f4             	mov    -0xc(%ebp),%eax
    19ed:	83 c0 03             	add    $0x3,%eax
    19f0:	8a 00                	mov    (%eax),%al
    19f2:	0f b6 d0             	movzbl %al,%edx
    19f5:	8b 45 f0             	mov    -0x10(%ebp),%eax
    19f8:	01 d0                	add    %edx,%eax
    19fa:	8a 00                	mov    (%eax),%al
    19fc:	84 c0                	test   %al,%al
    19fe:	75 0a                	jne    1a0a <strspn+0x159>
    1a00:	b8 03 00 00 00       	mov    $0x3,%eax
    1a05:	e9 a0 00 00 00       	jmp    1aaa <strspn+0x1f9>
    1a0a:	8b 45 f4             	mov    -0xc(%ebp),%eax
    1a0d:	83 e0 fc             	and    $0xfffffffc,%eax
    1a10:	89 45 f4             	mov    %eax,-0xc(%ebp)
    1a13:	83 45 f4 04          	addl   $0x4,-0xc(%ebp)
    1a17:	8b 45 f4             	mov    -0xc(%ebp),%eax
    1a1a:	8a 00                	mov    (%eax),%al
    1a1c:	0f b6 d0             	movzbl %al,%edx
    1a1f:	8b 45 f0             	mov    -0x10(%ebp),%eax
    1a22:	01 d0                	add    %edx,%eax
    1a24:	8a 00                	mov    (%eax),%al
    1a26:	0f b6 c0             	movzbl %al,%eax
    1a29:	89 45 ec             	mov    %eax,-0x14(%ebp)
    1a2c:	8b 45 f4             	mov    -0xc(%ebp),%eax
    1a2f:	40                   	inc    %eax
    1a30:	8a 00                	mov    (%eax),%al
    1a32:	0f b6 d0             	movzbl %al,%edx
    1a35:	8b 45 f0             	mov    -0x10(%ebp),%eax
    1a38:	01 d0                	add    %edx,%eax
    1a3a:	8a 00                	mov    (%eax),%al
    1a3c:	0f b6 c0             	movzbl %al,%eax
    1a3f:	89 45 e8             	mov    %eax,-0x18(%ebp)
    1a42:	8b 45 f4             	mov    -0xc(%ebp),%eax
    1a45:	83 c0 02             	add    $0x2,%eax
    1a48:	8a 00                	mov    (%eax),%al
    1a4a:	0f b6 d0             	movzbl %al,%edx
    1a4d:	8b 45 f0             	mov    -0x10(%ebp),%eax
    1a50:	01 d0                	add    %edx,%eax
    1a52:	8a 00                	mov    (%eax),%al
    1a54:	0f b6 c0             	movzbl %al,%eax
    1a57:	89 45 e4             	mov    %eax,-0x1c(%ebp)
    1a5a:	8b 45 f4             	mov    -0xc(%ebp),%eax
    1a5d:	83 c0 03             	add    $0x3,%eax
    1a60:	8a 00                	mov    (%eax),%al
    1a62:	0f b6 d0             	movzbl %al,%edx
    1a65:	8b 45 f0             	mov    -0x10(%ebp),%eax
    1a68:	01 d0                	add    %edx,%eax
    1a6a:	8a 00                	mov    (%eax),%al
    1a6c:	0f b6 c0             	movzbl %al,%eax
    1a6f:	89 45 e0             	mov    %eax,-0x20(%ebp)
    1a72:	8b 45 ec             	mov    -0x14(%ebp),%eax
    1a75:	23 45 e8             	and    -0x18(%ebp),%eax
    1a78:	23 45 e4             	and    -0x1c(%ebp),%eax
    1a7b:	23 45 e0             	and    -0x20(%ebp),%eax
    1a7e:	85 c0                	test   %eax,%eax
    1a80:	75 91                	jne    1a13 <strspn+0x162>
    1a82:	8b 45 f4             	mov    -0xc(%ebp),%eax
    1a85:	2b 45 08             	sub    0x8(%ebp),%eax
    1a88:	89 45 dc             	mov    %eax,-0x24(%ebp)
    1a8b:	8b 45 ec             	mov    -0x14(%ebp),%eax
    1a8e:	23 45 e8             	and    -0x18(%ebp),%eax
    1a91:	85 c0                	test   %eax,%eax
    1a93:	75 0a                	jne    1a9f <strspn+0x1ee>
    1a95:	8b 55 dc             	mov    -0x24(%ebp),%edx
    1a98:	8b 45 ec             	mov    -0x14(%ebp),%eax
    1a9b:	01 d0                	add    %edx,%eax
    1a9d:	eb 0b                	jmp    1aaa <strspn+0x1f9>
    1a9f:	8b 55 dc             	mov    -0x24(%ebp),%edx
    1aa2:	8b 45 e4             	mov    -0x1c(%ebp),%eax
    1aa5:	01 d0                	add    %edx,%eax
    1aa7:	83 c0 02             	add    $0x2,%eax
    1aaa:	8b 5d fc             	mov    -0x4(%ebp),%ebx
    1aad:	c9                   	leave
    1aae:	c3                   	ret

00001aaf <__strchrnul>:
    1aaf:	55                   	push   %ebp
    1ab0:	89 e5                	mov    %esp,%ebp
    1ab2:	53                   	push   %ebx
    1ab3:	83 ec 14             	sub    $0x14,%esp
    1ab6:	e8 24 f4 ff ff       	call   edf <__x86.get_pc_thunk.bx>
    1abb:	81 c3 e9 1a 00 00    	add    $0x1ae9,%ebx
    1ac1:	83 ec 08             	sub    $0x8,%esp
    1ac4:	ff 75 0c             	push   0xc(%ebp)
    1ac7:	ff 75 08             	push   0x8(%ebp)
    1aca:	e8 14 02 00 00       	call   1ce3 <strchr>
    1acf:	83 c4 10             	add    $0x10,%esp
    1ad2:	89 45 f4             	mov    %eax,-0xc(%ebp)
    1ad5:	83 7d f4 00          	cmpl   $0x0,-0xc(%ebp)
    1ad9:	75 13                	jne    1aee <__strchrnul+0x3f>
    1adb:	83 ec 08             	sub    $0x8,%esp
    1ade:	6a 00                	push   $0x0
    1ae0:	ff 75 08             	push   0x8(%ebp)
    1ae3:	e8 fb 01 00 00       	call   1ce3 <strchr>
    1ae8:	83 c4 10             	add    $0x10,%esp
    1aeb:	89 45 f4             	mov    %eax,-0xc(%ebp)
    1aee:	8b 45 f4             	mov    -0xc(%ebp),%eax
    1af1:	8b 5d fc             	mov    -0x4(%ebp),%ebx
    1af4:	c9                   	leave
    1af5:	c3                   	ret

00001af6 <strcspn>:
    1af6:	55                   	push   %ebp
    1af7:	89 e5                	mov    %esp,%ebp
    1af9:	53                   	push   %ebx
    1afa:	81 ec 24 01 00 00    	sub    $0x124,%esp
    1b00:	e8 da f3 ff ff       	call   edf <__x86.get_pc_thunk.bx>
    1b05:	81 c3 9f 1a 00 00    	add    $0x1a9f,%ebx
    1b0b:	8b 45 0c             	mov    0xc(%ebp),%eax
    1b0e:	8a 00                	mov    (%eax),%al
    1b10:	84 c0                	test   %al,%al
    1b12:	74 0a                	je     1b1e <strcspn+0x28>
    1b14:	8b 45 0c             	mov    0xc(%ebp),%eax
    1b17:	40                   	inc    %eax
    1b18:	8a 00                	mov    (%eax),%al
    1b1a:	84 c0                	test   %al,%al
    1b1c:	75 1f                	jne    1b3d <strcspn+0x47>
    1b1e:	8b 45 0c             	mov    0xc(%ebp),%eax
    1b21:	8a 00                	mov    (%eax),%al
    1b23:	0f be c0             	movsbl %al,%eax
    1b26:	83 ec 08             	sub    $0x8,%esp
    1b29:	50                   	push   %eax
    1b2a:	ff 75 08             	push   0x8(%ebp)
    1b2d:	e8 7d ff ff ff       	call   1aaf <__strchrnul>
    1b32:	83 c4 10             	add    $0x10,%esp
    1b35:	2b 45 08             	sub    0x8(%ebp),%eax
    1b38:	e9 a1 01 00 00       	jmp    1cde <strcspn+0x1e8>
    1b3d:	83 ec 04             	sub    $0x4,%esp
    1b40:	6a 40                	push   $0x40
    1b42:	6a 00                	push   $0x0
    1b44:	8d 85 d8 fe ff ff    	lea    -0x128(%ebp),%eax
    1b4a:	50                   	push   %eax
    1b4b:	e8 fe fa ff ff       	call   164e <memset>
    1b50:	83 c4 10             	add    $0x10,%esp
    1b53:	89 45 f0             	mov    %eax,-0x10(%ebp)
    1b56:	8b 45 f0             	mov    -0x10(%ebp),%eax
    1b59:	83 c0 40             	add    $0x40,%eax
    1b5c:	83 ec 04             	sub    $0x4,%esp
    1b5f:	6a 40                	push   $0x40
    1b61:	6a 00                	push   $0x0
    1b63:	50                   	push   %eax
    1b64:	e8 e5 fa ff ff       	call   164e <memset>
    1b69:	83 c4 10             	add    $0x10,%esp
    1b6c:	8b 45 f0             	mov    -0x10(%ebp),%eax
    1b6f:	83 e8 80             	sub    $0xffffff80,%eax
    1b72:	83 ec 04             	sub    $0x4,%esp
    1b75:	6a 40                	push   $0x40
    1b77:	6a 00                	push   $0x0
    1b79:	50                   	push   %eax
    1b7a:	e8 cf fa ff ff       	call   164e <memset>
    1b7f:	83 c4 10             	add    $0x10,%esp
    1b82:	8b 45 f0             	mov    -0x10(%ebp),%eax
    1b85:	05 c0 00 00 00       	add    $0xc0,%eax
    1b8a:	83 ec 04             	sub    $0x4,%esp
    1b8d:	6a 40                	push   $0x40
    1b8f:	6a 00                	push   $0x0
    1b91:	50                   	push   %eax
    1b92:	e8 b7 fa ff ff       	call   164e <memset>
    1b97:	83 c4 10             	add    $0x10,%esp
    1b9a:	8b 45 0c             	mov    0xc(%ebp),%eax
    1b9d:	89 45 f4             	mov    %eax,-0xc(%ebp)
    1ba0:	8b 45 f4             	mov    -0xc(%ebp),%eax
    1ba3:	8d 50 01             	lea    0x1(%eax),%edx
    1ba6:	89 55 f4             	mov    %edx,-0xc(%ebp)
    1ba9:	8a 00                	mov    (%eax),%al
    1bab:	88 45 ef             	mov    %al,-0x11(%ebp)
    1bae:	0f b6 55 ef          	movzbl -0x11(%ebp),%edx
    1bb2:	8b 45 f0             	mov    -0x10(%ebp),%eax
    1bb5:	01 d0                	add    %edx,%eax
    1bb7:	c6 00 01             	movb   $0x1,(%eax)
    1bba:	80 7d ef 00          	cmpb   $0x0,-0x11(%ebp)
    1bbe:	75 e0                	jne    1ba0 <strcspn+0xaa>
    1bc0:	8b 45 08             	mov    0x8(%ebp),%eax
    1bc3:	89 45 f4             	mov    %eax,-0xc(%ebp)
    1bc6:	8b 45 f4             	mov    -0xc(%ebp),%eax
    1bc9:	8a 00                	mov    (%eax),%al
    1bcb:	0f b6 d0             	movzbl %al,%edx
    1bce:	8b 45 f0             	mov    -0x10(%ebp),%eax
    1bd1:	01 d0                	add    %edx,%eax
    1bd3:	8a 00                	mov    (%eax),%al
    1bd5:	84 c0                	test   %al,%al
    1bd7:	74 0a                	je     1be3 <strcspn+0xed>
    1bd9:	b8 00 00 00 00       	mov    $0x0,%eax
    1bde:	e9 fb 00 00 00       	jmp    1cde <strcspn+0x1e8>
    1be3:	8b 45 f4             	mov    -0xc(%ebp),%eax
    1be6:	40                   	inc    %eax
    1be7:	8a 00                	mov    (%eax),%al
    1be9:	0f b6 d0             	movzbl %al,%edx
    1bec:	8b 45 f0             	mov    -0x10(%ebp),%eax
    1bef:	01 d0                	add    %edx,%eax
    1bf1:	8a 00                	mov    (%eax),%al
    1bf3:	84 c0                	test   %al,%al
    1bf5:	74 0a                	je     1c01 <strcspn+0x10b>
    1bf7:	b8 01 00 00 00       	mov    $0x1,%eax
    1bfc:	e9 dd 00 00 00       	jmp    1cde <strcspn+0x1e8>
    1c01:	8b 45 f4             	mov    -0xc(%ebp),%eax
    1c04:	83 c0 02             	add    $0x2,%eax
    1c07:	8a 00                	mov    (%eax),%al
    1c09:	0f b6 d0             	movzbl %al,%edx
    1c0c:	8b 45 f0             	mov    -0x10(%ebp),%eax
    1c0f:	01 d0                	add    %edx,%eax
    1c11:	8a 00                	mov    (%eax),%al
    1c13:	84 c0                	test   %al,%al
    1c15:	74 0a                	je     1c21 <strcspn+0x12b>
    1c17:	b8 02 00 00 00       	mov    $0x2,%eax
    1c1c:	e9 bd 00 00 00       	jmp    1cde <strcspn+0x1e8>
    1c21:	8b 45 f4             	mov    -0xc(%ebp),%eax
    1c24:	83 c0 03             	add    $0x3,%eax
    1c27:	8a 00                	mov    (%eax),%al
    1c29:	0f b6 d0             	movzbl %al,%edx
    1c2c:	8b 45 f0             	mov    -0x10(%ebp),%eax
    1c2f:	01 d0                	add    %edx,%eax
    1c31:	8a 00                	mov    (%eax),%al
    1c33:	84 c0                	test   %al,%al
    1c35:	74 0a                	je     1c41 <strcspn+0x14b>
    1c37:	b8 03 00 00 00       	mov    $0x3,%eax
    1c3c:	e9 9d 00 00 00       	jmp    1cde <strcspn+0x1e8>
    1c41:	8b 45 f4             	mov    -0xc(%ebp),%eax
    1c44:	83 e0 fc             	and    $0xfffffffc,%eax
    1c47:	89 45 f4             	mov    %eax,-0xc(%ebp)
    1c4a:	83 45 f4 04          	addl   $0x4,-0xc(%ebp)
    1c4e:	8b 45 f4             	mov    -0xc(%ebp),%eax
    1c51:	8a 00                	mov    (%eax),%al
    1c53:	0f b6 d0             	movzbl %al,%edx
    1c56:	8b 45 f0             	mov    -0x10(%ebp),%eax
    1c59:	01 d0                	add    %edx,%eax
    1c5b:	8a 00                	mov    (%eax),%al
    1c5d:	0f b6 c0             	movzbl %al,%eax
    1c60:	89 45 e8             	mov    %eax,-0x18(%ebp)
    1c63:	8b 45 f4             	mov    -0xc(%ebp),%eax
    1c66:	40                   	inc    %eax
    1c67:	8a 00                	mov    (%eax),%al
    1c69:	0f b6 d0             	movzbl %al,%edx
    1c6c:	8b 45 f0             	mov    -0x10(%ebp),%eax
    1c6f:	01 d0                	add    %edx,%eax
    1c71:	8a 00                	mov    (%eax),%al
    1c73:	0f b6 c0             	movzbl %al,%eax
    1c76:	89 45 e4             	mov    %eax,-0x1c(%ebp)
    1c79:	8b 45 f4             	mov    -0xc(%ebp),%eax
    1c7c:	83 c0 02             	add    $0x2,%eax
    1c7f:	8a 00                	mov    (%eax),%al
    1c81:	0f b6 d0             	movzbl %al,%edx
    1c84:	8b 45 f0             	mov    -0x10(%ebp),%eax
    1c87:	01 d0                	add    %edx,%eax
    1c89:	8a 00                	mov    (%eax),%al
    1c8b:	0f b6 c0             	movzbl %al,%eax
    1c8e:	89 45 e0             	mov    %eax,-0x20(%ebp)
    1c91:	8b 45 f4             	mov    -0xc(%ebp),%eax
    1c94:	83 c0 03             	add    $0x3,%eax
    1c97:	8a 00                	mov    (%eax),%al
    1c99:	0f b6 d0             	movzbl %al,%edx
    1c9c:	8b 45 f0             	mov    -0x10(%ebp),%eax
    1c9f:	01 d0                	add    %edx,%eax
    1ca1:	8a 00                	mov    (%eax),%al
    1ca3:	0f b6 c0             	movzbl %al,%eax
    1ca6:	89 45 dc             	mov    %eax,-0x24(%ebp)
    1ca9:	8b 45 e8             	mov    -0x18(%ebp),%eax
    1cac:	0b 45 e4             	or     -0x1c(%ebp),%eax
    1caf:	0b 45 e0             	or     -0x20(%ebp),%eax
    1cb2:	0b 45 dc             	or     -0x24(%ebp),%eax
    1cb5:	85 c0                	test   %eax,%eax
    1cb7:	74 91                	je     1c4a <strcspn+0x154>
    1cb9:	8b 45 f4             	mov    -0xc(%ebp),%eax
    1cbc:	2b 45 08             	sub    0x8(%ebp),%eax
    1cbf:	89 45 d8             	mov    %eax,-0x28(%ebp)
    1cc2:	8b 45 e8             	mov    -0x18(%ebp),%eax
    1cc5:	0b 45 e4             	or     -0x1c(%ebp),%eax
    1cc8:	85 c0                	test   %eax,%eax
    1cca:	74 09                	je     1cd5 <strcspn+0x1df>
    1ccc:	8b 45 d8             	mov    -0x28(%ebp),%eax
    1ccf:	2b 45 e8             	sub    -0x18(%ebp),%eax
    1cd2:	40                   	inc    %eax
    1cd3:	eb 09                	jmp    1cde <strcspn+0x1e8>
    1cd5:	8b 45 d8             	mov    -0x28(%ebp),%eax
    1cd8:	2b 45 e0             	sub    -0x20(%ebp),%eax
    1cdb:	83 c0 03             	add    $0x3,%eax
    1cde:	8b 5d fc             	mov    -0x4(%ebp),%ebx
    1ce1:	c9                   	leave
    1ce2:	c3                   	ret

00001ce3 <strchr>:
    1ce3:	55                   	push   %ebp
    1ce4:	89 e5                	mov    %esp,%ebp
    1ce6:	83 ec 20             	sub    $0x20,%esp
    1ce9:	e8 ed f1 ff ff       	call   edb <__x86.get_pc_thunk.ax>
    1cee:	05 b6 18 00 00       	add    $0x18b6,%eax
    1cf3:	8b 45 0c             	mov    0xc(%ebp),%eax
    1cf6:	88 45 f7             	mov    %al,-0x9(%ebp)
    1cf9:	8b 45 08             	mov    0x8(%ebp),%eax
    1cfc:	89 45 f8             	mov    %eax,-0x8(%ebp)
    1cff:	eb 28                	jmp    1d29 <strchr+0x46>
    1d01:	8b 45 f8             	mov    -0x8(%ebp),%eax
    1d04:	8a 00                	mov    (%eax),%al
    1d06:	38 45 f7             	cmp    %al,-0x9(%ebp)
    1d09:	75 08                	jne    1d13 <strchr+0x30>
    1d0b:	8b 45 f8             	mov    -0x8(%ebp),%eax
    1d0e:	e9 35 01 00 00       	jmp    1e48 <strchr+0x165>
    1d13:	8b 45 f8             	mov    -0x8(%ebp),%eax
    1d16:	8a 00                	mov    (%eax),%al
    1d18:	84 c0                	test   %al,%al
    1d1a:	75 0a                	jne    1d26 <strchr+0x43>
    1d1c:	b8 00 00 00 00       	mov    $0x0,%eax
    1d21:	e9 22 01 00 00       	jmp    1e48 <strchr+0x165>
    1d26:	ff 45 f8             	incl   -0x8(%ebp)
    1d29:	8b 45 f8             	mov    -0x8(%ebp),%eax
    1d2c:	83 e0 03             	and    $0x3,%eax
    1d2f:	85 c0                	test   %eax,%eax
    1d31:	75 ce                	jne    1d01 <strchr+0x1e>
    1d33:	8b 45 f8             	mov    -0x8(%ebp),%eax
    1d36:	89 45 fc             	mov    %eax,-0x4(%ebp)
    1d39:	c7 45 f0 ff ff ff ff 	movl   $0xffffffff,-0x10(%ebp)
    1d40:	8b 45 f0             	mov    -0x10(%ebp),%eax
    1d43:	ba 81 80 80 80       	mov    $0x80808081,%edx
    1d48:	f7 e2                	mul    %edx
    1d4a:	c1 ea 07             	shr    $0x7,%edx
    1d4d:	89 d0                	mov    %edx,%eax
    1d4f:	c1 e0 07             	shl    $0x7,%eax
    1d52:	29 d0                	sub    %edx,%eax
    1d54:	01 c0                	add    %eax,%eax
    1d56:	25 fe ff ff 7f       	and    $0x7ffffffe,%eax
    1d5b:	83 c8 01             	or     $0x1,%eax
    1d5e:	89 45 f0             	mov    %eax,-0x10(%ebp)
    1d61:	0f b6 55 f7          	movzbl -0x9(%ebp),%edx
    1d65:	89 d0                	mov    %edx,%eax
    1d67:	c1 e0 08             	shl    $0x8,%eax
    1d6a:	01 d0                	add    %edx,%eax
    1d6c:	89 45 ec             	mov    %eax,-0x14(%ebp)
    1d6f:	8b 45 ec             	mov    -0x14(%ebp),%eax
    1d72:	c1 e0 10             	shl    $0x10,%eax
    1d75:	09 45 ec             	or     %eax,-0x14(%ebp)
    1d78:	8b 45 fc             	mov    -0x4(%ebp),%eax
    1d7b:	8d 50 04             	lea    0x4(%eax),%edx
    1d7e:	89 55 fc             	mov    %edx,-0x4(%ebp)
    1d81:	8b 00                	mov    (%eax),%eax
    1d83:	89 45 e8             	mov    %eax,-0x18(%ebp)
    1d86:	8b 55 e8             	mov    -0x18(%ebp),%edx
    1d89:	8b 45 f0             	mov    -0x10(%ebp),%eax
    1d8c:	01 d0                	add    %edx,%eax
    1d8e:	33 45 e8             	xor    -0x18(%ebp),%eax
    1d91:	0b 45 f0             	or     -0x10(%ebp),%eax
    1d94:	83 f8 ff             	cmp    $0xffffffff,%eax
    1d97:	75 1f                	jne    1db8 <strchr+0xd5>
    1d99:	8b 45 e8             	mov    -0x18(%ebp),%eax
    1d9c:	33 45 ec             	xor    -0x14(%ebp),%eax
    1d9f:	89 c2                	mov    %eax,%edx
    1da1:	8b 45 e8             	mov    -0x18(%ebp),%eax
    1da4:	33 45 ec             	xor    -0x14(%ebp),%eax
    1da7:	89 c1                	mov    %eax,%ecx
    1da9:	8b 45 f0             	mov    -0x10(%ebp),%eax
    1dac:	01 c8                	add    %ecx,%eax
    1dae:	31 d0                	xor    %edx,%eax
    1db0:	0b 45 f0             	or     -0x10(%ebp),%eax
    1db3:	83 f8 ff             	cmp    $0xffffffff,%eax
    1db6:	74 c0                	je     1d78 <strchr+0x95>
    1db8:	8b 45 fc             	mov    -0x4(%ebp),%eax
    1dbb:	83 e8 04             	sub    $0x4,%eax
    1dbe:	89 45 e4             	mov    %eax,-0x1c(%ebp)
    1dc1:	8b 45 e4             	mov    -0x1c(%ebp),%eax
    1dc4:	8a 00                	mov    (%eax),%al
    1dc6:	38 45 f7             	cmp    %al,-0x9(%ebp)
    1dc9:	75 05                	jne    1dd0 <strchr+0xed>
    1dcb:	8b 45 e4             	mov    -0x1c(%ebp),%eax
    1dce:	eb 78                	jmp    1e48 <strchr+0x165>
    1dd0:	8b 45 e4             	mov    -0x1c(%ebp),%eax
    1dd3:	8a 00                	mov    (%eax),%al
    1dd5:	84 c0                	test   %al,%al
    1dd7:	75 07                	jne    1de0 <strchr+0xfd>
    1dd9:	b8 00 00 00 00       	mov    $0x0,%eax
    1dde:	eb 68                	jmp    1e48 <strchr+0x165>
    1de0:	ff 45 e4             	incl   -0x1c(%ebp)
    1de3:	8b 45 e4             	mov    -0x1c(%ebp),%eax
    1de6:	8a 00                	mov    (%eax),%al
    1de8:	38 45 f7             	cmp    %al,-0x9(%ebp)
    1deb:	75 05                	jne    1df2 <strchr+0x10f>
    1ded:	8b 45 e4             	mov    -0x1c(%ebp),%eax
    1df0:	eb 56                	jmp    1e48 <strchr+0x165>
    1df2:	8b 45 e4             	mov    -0x1c(%ebp),%eax
    1df5:	8a 00                	mov    (%eax),%al
    1df7:	84 c0                	test   %al,%al
    1df9:	75 07                	jne    1e02 <strchr+0x11f>
    1dfb:	b8 00 00 00 00       	mov    $0x0,%eax
    1e00:	eb 46                	jmp    1e48 <strchr+0x165>
    1e02:	ff 45 e4             	incl   -0x1c(%ebp)
    1e05:	8b 45 e4             	mov    -0x1c(%ebp),%eax
    1e08:	8a 00                	mov    (%eax),%al
    1e0a:	38 45 f7             	cmp    %al,-0x9(%ebp)
    1e0d:	75 05                	jne    1e14 <strchr+0x131>
    1e0f:	8b 45 e4             	mov    -0x1c(%ebp),%eax
    1e12:	eb 34                	jmp    1e48 <strchr+0x165>
    1e14:	8b 45 e4             	mov    -0x1c(%ebp),%eax
    1e17:	8a 00                	mov    (%eax),%al
    1e19:	84 c0                	test   %al,%al
    1e1b:	75 07                	jne    1e24 <strchr+0x141>
    1e1d:	b8 00 00 00 00       	mov    $0x0,%eax
    1e22:	eb 24                	jmp    1e48 <strchr+0x165>
    1e24:	ff 45 e4             	incl   -0x1c(%ebp)
    1e27:	8b 45 e4             	mov    -0x1c(%ebp),%eax
    1e2a:	8a 00                	mov    (%eax),%al
    1e2c:	38 45 f7             	cmp    %al,-0x9(%ebp)
    1e2f:	75 05                	jne    1e36 <strchr+0x153>
    1e31:	8b 45 e4             	mov    -0x1c(%ebp),%eax
    1e34:	eb 12                	jmp    1e48 <strchr+0x165>
    1e36:	8b 45 e4             	mov    -0x1c(%ebp),%eax
    1e39:	8a 00                	mov    (%eax),%al
    1e3b:	84 c0                	test   %al,%al
    1e3d:	0f 85 35 ff ff ff    	jne    1d78 <strchr+0x95>
    1e43:	b8 00 00 00 00       	mov    $0x0,%eax
    1e48:	c9                   	leave
    1e49:	c3                   	ret

00001e4a <strncpy>:
    1e4a:	55                   	push   %ebp
    1e4b:	89 e5                	mov    %esp,%ebp
    1e4d:	83 ec 10             	sub    $0x10,%esp
    1e50:	e8 86 f0 ff ff       	call   edb <__x86.get_pc_thunk.ax>
    1e55:	05 4f 17 00 00       	add    $0x174f,%eax
    1e5a:	c7 45 fc 00 00 00 00 	movl   $0x0,-0x4(%ebp)
    1e61:	eb 25                	jmp    1e88 <strncpy+0x3e>
    1e63:	8b 55 fc             	mov    -0x4(%ebp),%edx
    1e66:	8b 45 0c             	mov    0xc(%ebp),%eax
    1e69:	01 d0                	add    %edx,%eax
    1e6b:	8a 00                	mov    (%eax),%al
    1e6d:	84 c0                	test   %al,%al
    1e6f:	74 21                	je     1e92 <strncpy+0x48>
    1e71:	8b 55 fc             	mov    -0x4(%ebp),%edx
    1e74:	8b 45 0c             	mov    0xc(%ebp),%eax
    1e77:	01 d0                	add    %edx,%eax
    1e79:	8b 4d fc             	mov    -0x4(%ebp),%ecx
    1e7c:	8b 55 08             	mov    0x8(%ebp),%edx
    1e7f:	01 ca                	add    %ecx,%edx
    1e81:	8a 00                	mov    (%eax),%al
    1e83:	88 02                	mov    %al,(%edx)
    1e85:	ff 45 fc             	incl   -0x4(%ebp)
    1e88:	8b 45 fc             	mov    -0x4(%ebp),%eax
    1e8b:	3b 45 10             	cmp    0x10(%ebp),%eax
    1e8e:	72 d3                	jb     1e63 <strncpy+0x19>
    1e90:	eb 16                	jmp    1ea8 <strncpy+0x5e>
    1e92:	90                   	nop
    1e93:	eb 13                	jmp    1ea8 <strncpy+0x5e>
    1e95:	8b 45 fc             	mov    -0x4(%ebp),%eax
    1e98:	8d 50 01             	lea    0x1(%eax),%edx
    1e9b:	89 55 fc             	mov    %edx,-0x4(%ebp)
    1e9e:	89 c2                	mov    %eax,%edx
    1ea0:	8b 45 08             	mov    0x8(%ebp),%eax
    1ea3:	01 d0                	add    %edx,%eax
    1ea5:	c6 00 00             	movb   $0x0,(%eax)
    1ea8:	8b 45 fc             	mov    -0x4(%ebp),%eax
    1eab:	3b 45 10             	cmp    0x10(%ebp),%eax
    1eae:	72 e5                	jb     1e95 <strncpy+0x4b>
    1eb0:	8b 45 08             	mov    0x8(%ebp),%eax
    1eb3:	c9                   	leave
    1eb4:	c3                   	ret

00001eb5 <strdup>:
    1eb5:	55                   	push   %ebp
    1eb6:	89 e5                	mov    %esp,%ebp
    1eb8:	53                   	push   %ebx
    1eb9:	83 ec 14             	sub    $0x14,%esp
    1ebc:	e8 1e f0 ff ff       	call   edf <__x86.get_pc_thunk.bx>
    1ec1:	81 c3 e3 16 00 00    	add    $0x16e3,%ebx
    1ec7:	83 7d 08 00          	cmpl   $0x0,0x8(%ebp)
    1ecb:	75 07                	jne    1ed4 <strdup+0x1f>
    1ecd:	b8 00 00 00 00       	mov    $0x0,%eax
    1ed2:	eb 50                	jmp    1f24 <strdup+0x6f>
    1ed4:	83 ec 0c             	sub    $0xc,%esp
    1ed7:	ff 75 08             	push   0x8(%ebp)
    1eda:	e8 f9 f8 ff ff       	call   17d8 <strlen>
    1edf:	83 c4 10             	add    $0x10,%esp
    1ee2:	89 45 f4             	mov    %eax,-0xc(%ebp)
    1ee5:	8b 45 f4             	mov    -0xc(%ebp),%eax
    1ee8:	40                   	inc    %eax
    1ee9:	83 ec 0c             	sub    $0xc,%esp
    1eec:	50                   	push   %eax
    1eed:	e8 8e f0 ff ff       	call   f80 <malloc>
    1ef2:	83 c4 10             	add    $0x10,%esp
    1ef5:	89 45 f0             	mov    %eax,-0x10(%ebp)
    1ef8:	83 7d f0 00          	cmpl   $0x0,-0x10(%ebp)
    1efc:	75 07                	jne    1f05 <strdup+0x50>
    1efe:	b8 00 00 00 00       	mov    $0x0,%eax
    1f03:	eb 1f                	jmp    1f24 <strdup+0x6f>
    1f05:	8b 55 f4             	mov    -0xc(%ebp),%edx
    1f08:	8b 45 f0             	mov    -0x10(%ebp),%eax
    1f0b:	01 d0                	add    %edx,%eax
    1f0d:	c6 00 00             	movb   $0x0,(%eax)
    1f10:	83 ec 08             	sub    $0x8,%esp
    1f13:	ff 75 08             	push   0x8(%ebp)
    1f16:	ff 75 f0             	push   -0x10(%ebp)
    1f19:	e8 23 f8 ff ff       	call   1741 <strcpy>
    1f1e:	83 c4 10             	add    $0x10,%esp
    1f21:	8b 45 f0             	mov    -0x10(%ebp),%eax
    1f24:	8b 5d fc             	mov    -0x4(%ebp),%ebx
    1f27:	c9                   	leave
    1f28:	c3                   	ret

00001f29 <open>:
    1f29:	55                   	push   %ebp
    1f2a:	89 e5                	mov    %esp,%ebp
    1f2c:	53                   	push   %ebx
    1f2d:	e8 a9 ef ff ff       	call   edb <__x86.get_pc_thunk.ax>
    1f32:	05 72 16 00 00       	add    $0x1672,%eax
    1f37:	8b 45 0c             	mov    0xc(%ebp),%eax
    1f3a:	89 c1                	mov    %eax,%ecx
    1f3c:	8b 45 08             	mov    0x8(%ebp),%eax
    1f3f:	89 c3                	mov    %eax,%ebx
    1f41:	b8 35 00 00 00       	mov    $0x35,%eax
    1f46:	cd 80                	int    $0x80
    1f48:	8b 5d fc             	mov    -0x4(%ebp),%ebx
    1f4b:	c9                   	leave
    1f4c:	c3                   	ret

00001f4d <close>:
    1f4d:	55                   	push   %ebp
    1f4e:	89 e5                	mov    %esp,%ebp
    1f50:	53                   	push   %ebx
    1f51:	e8 85 ef ff ff       	call   edb <__x86.get_pc_thunk.ax>
    1f56:	05 4e 16 00 00       	add    $0x164e,%eax
    1f5b:	8b 45 08             	mov    0x8(%ebp),%eax
    1f5e:	89 c3                	mov    %eax,%ebx
    1f60:	b8 36 00 00 00       	mov    $0x36,%eax
    1f65:	cd 80                	int    $0x80
    1f67:	90                   	nop
    1f68:	8b 5d fc             	mov    -0x4(%ebp),%ebx
    1f6b:	c9                   	leave
    1f6c:	c3                   	ret

00001f6d <read>:
    1f6d:	55                   	push   %ebp
    1f6e:	89 e5                	mov    %esp,%ebp
    1f70:	53                   	push   %ebx
    1f71:	e8 65 ef ff ff       	call   edb <__x86.get_pc_thunk.ax>
    1f76:	05 2e 16 00 00       	add    $0x162e,%eax
    1f7b:	8b 45 10             	mov    0x10(%ebp),%eax
    1f7e:	89 c2                	mov    %eax,%edx
    1f80:	8b 45 0c             	mov    0xc(%ebp),%eax
    1f83:	89 c1                	mov    %eax,%ecx
    1f85:	8b 45 08             	mov    0x8(%ebp),%eax
    1f88:	89 c3                	mov    %eax,%ebx
    1f8a:	b8 37 00 00 00       	mov    $0x37,%eax
    1f8f:	cd 80                	int    $0x80
    1f91:	8b 5d fc             	mov    -0x4(%ebp),%ebx
    1f94:	c9                   	leave
    1f95:	c3                   	ret

00001f96 <write>:
    1f96:	55                   	push   %ebp
    1f97:	89 e5                	mov    %esp,%ebp
    1f99:	53                   	push   %ebx
    1f9a:	e8 3c ef ff ff       	call   edb <__x86.get_pc_thunk.ax>
    1f9f:	05 05 16 00 00       	add    $0x1605,%eax
    1fa4:	8b 45 10             	mov    0x10(%ebp),%eax
    1fa7:	89 c2                	mov    %eax,%edx
    1fa9:	8b 45 0c             	mov    0xc(%ebp),%eax
    1fac:	89 c1                	mov    %eax,%ecx
    1fae:	8b 45 08             	mov    0x8(%ebp),%eax
    1fb1:	89 c3                	mov    %eax,%ebx
    1fb3:	b8 38 00 00 00       	mov    $0x38,%eax
    1fb8:	cd 80                	int    $0x80
    1fba:	8b 5d fc             	mov    -0x4(%ebp),%ebx
    1fbd:	c9                   	leave
    1fbe:	c3                   	ret

00001fbf <lseek>:
    1fbf:	55                   	push   %ebp
    1fc0:	89 e5                	mov    %esp,%ebp
    1fc2:	53                   	push   %ebx
    1fc3:	e8 13 ef ff ff       	call   edb <__x86.get_pc_thunk.ax>
    1fc8:	05 dc 15 00 00       	add    $0x15dc,%eax
    1fcd:	8b 45 10             	mov    0x10(%ebp),%eax
    1fd0:	89 c2                	mov    %eax,%edx
    1fd2:	8b 45 0c             	mov    0xc(%ebp),%eax
    1fd5:	89 c1                	mov    %eax,%ecx
    1fd7:	8b 45 08             	mov    0x8(%ebp),%eax
    1fda:	89 c3                	mov    %eax,%ebx
    1fdc:	b8 39 00 00 00       	mov    $0x39,%eax
    1fe1:	cd 80                	int    $0x80
    1fe3:	8b 5d fc             	mov    -0x4(%ebp),%ebx
    1fe6:	c9                   	leave
    1fe7:	c3                   	ret

00001fe8 <creat>:
    1fe8:	55                   	push   %ebp
    1fe9:	89 e5                	mov    %esp,%ebp
    1feb:	53                   	push   %ebx
    1fec:	e8 ea ee ff ff       	call   edb <__x86.get_pc_thunk.ax>
    1ff1:	05 b3 15 00 00       	add    $0x15b3,%eax
    1ff6:	8b 45 08             	mov    0x8(%ebp),%eax
    1ff9:	89 c3                	mov    %eax,%ebx
    1ffb:	b8 3a 00 00 00       	mov    $0x3a,%eax
    2000:	cd 80                	int    $0x80
    2002:	8b 5d fc             	mov    -0x4(%ebp),%ebx
    2005:	c9                   	leave
    2006:	c3                   	ret

00002007 <ftruncate>:
    2007:	55                   	push   %ebp
    2008:	89 e5                	mov    %esp,%ebp
    200a:	53                   	push   %ebx
    200b:	e8 cb ee ff ff       	call   edb <__x86.get_pc_thunk.ax>
    2010:	05 94 15 00 00       	add    $0x1594,%eax
    2015:	8b 4d 0c             	mov    0xc(%ebp),%ecx
    2018:	8b 45 08             	mov    0x8(%ebp),%eax
    201b:	89 c3                	mov    %eax,%ebx
    201d:	b8 3f 00 00 00       	mov    $0x3f,%eax
    2022:	cd 80                	int    $0x80
    2024:	8b 5d fc             	mov    -0x4(%ebp),%ebx
    2027:	c9                   	leave
    2028:	c3                   	ret

00002029 <memory_requestRegion>:
    2029:	55                   	push   %ebp
    202a:	89 e5                	mov    %esp,%ebp
    202c:	53                   	push   %ebx
    202d:	e8 a9 ee ff ff       	call   edb <__x86.get_pc_thunk.ax>
    2032:	05 72 15 00 00       	add    $0x1572,%eax
    2037:	8b 5d 08             	mov    0x8(%ebp),%ebx
    203a:	b8 20 00 00 00       	mov    $0x20,%eax
    203f:	cd 80                	int    $0x80
    2041:	8b 5d fc             	mov    -0x4(%ebp),%ebx
    2044:	c9                   	leave
    2045:	c3                   	ret

00002046 <memory_returnRegion>:
    2046:	55                   	push   %ebp
    2047:	89 e5                	mov    %esp,%ebp
    2049:	53                   	push   %ebx
    204a:	e8 8c ee ff ff       	call   edb <__x86.get_pc_thunk.ax>
    204f:	05 55 15 00 00       	add    $0x1555,%eax
    2054:	8b 4d 0c             	mov    0xc(%ebp),%ecx
    2057:	8b 45 08             	mov    0x8(%ebp),%eax
    205a:	89 c3                	mov    %eax,%ebx
    205c:	b8 2b 00 00 00       	mov    $0x2b,%eax
    2061:	cd 80                	int    $0x80
    2063:	90                   	nop
    2064:	8b 5d fc             	mov    -0x4(%ebp),%ebx
    2067:	c9                   	leave
    2068:	c3                   	ret

00002069 <getKernelFeature>:
    2069:	55                   	push   %ebp
    206a:	89 e5                	mov    %esp,%ebp
    206c:	53                   	push   %ebx
    206d:	83 ec 10             	sub    $0x10,%esp
    2070:	e8 66 ee ff ff       	call   edb <__x86.get_pc_thunk.ax>
    2075:	05 2f 15 00 00       	add    $0x152f,%eax
    207a:	8b 5d 0c             	mov    0xc(%ebp),%ebx
    207d:	b8 17 00 00 00       	mov    $0x17,%eax
    2082:	cd 80                	int    $0x80
    2084:	89 45 f8             	mov    %eax,-0x8(%ebp)
    2087:	89 5d f4             	mov    %ebx,-0xc(%ebp)
    208a:	8b 45 f8             	mov    -0x8(%ebp),%eax
    208d:	89 45 ec             	mov    %eax,-0x14(%ebp)
    2090:	8b 45 f4             	mov    -0xc(%ebp),%eax
    2093:	89 45 f0             	mov    %eax,-0x10(%ebp)
    2096:	8b 4d 08             	mov    0x8(%ebp),%ecx
    2099:	8b 45 ec             	mov    -0x14(%ebp),%eax
    209c:	8b 55 f0             	mov    -0x10(%ebp),%edx
    209f:	89 01                	mov    %eax,(%ecx)
    20a1:	89 51 04             	mov    %edx,0x4(%ecx)
    20a4:	8b 45 08             	mov    0x8(%ebp),%eax
    20a7:	8b 5d fc             	mov    -0x4(%ebp),%ebx
    20aa:	c9                   	leave
    20ab:	c2 04 00             	ret    $0x4

000020ae <exec>:
    20ae:	55                   	push   %ebp
    20af:	89 e5                	mov    %esp,%ebp
    20b1:	53                   	push   %ebx
    20b2:	e8 24 ee ff ff       	call   edb <__x86.get_pc_thunk.ax>
    20b7:	05 ed 14 00 00       	add    $0x14ed,%eax
    20bc:	8b 45 10             	mov    0x10(%ebp),%eax
    20bf:	89 c2                	mov    %eax,%edx
    20c1:	8b 45 0c             	mov    0xc(%ebp),%eax
    20c4:	89 c1                	mov    %eax,%ecx
    20c6:	8b 45 08             	mov    0x8(%ebp),%eax
    20c9:	89 c3                	mov    %eax,%ebx
    20cb:	b8 06 00 00 00       	mov    $0x6,%eax
    20d0:	cd 80                	int    $0x80
    20d2:	90                   	nop
    20d3:	8b 5d fc             	mov    -0x4(%ebp),%ebx
    20d6:	c9                   	leave
    20d7:	c3                   	ret

000020d8 <set_schedule>:
    20d8:	55                   	push   %ebp
    20d9:	89 e5                	mov    %esp,%ebp
    20db:	53                   	push   %ebx
    20dc:	e8 fa ed ff ff       	call   edb <__x86.get_pc_thunk.ax>
    20e1:	05 c3 14 00 00       	add    $0x14c3,%eax
    20e6:	8b 5d 08             	mov    0x8(%ebp),%ebx
    20e9:	b8 07 00 00 00       	mov    $0x7,%eax
    20ee:	cd 80                	int    $0x80
    20f0:	90                   	nop
    20f1:	8b 5d fc             	mov    -0x4(%ebp),%ebx
    20f4:	c9                   	leave
    20f5:	c3                   	ret

000020f6 <yield>:
    20f6:	55                   	push   %ebp
    20f7:	89 e5                	mov    %esp,%ebp
    20f9:	e8 dd ed ff ff       	call   edb <__x86.get_pc_thunk.ax>
    20fe:	05 a6 14 00 00       	add    $0x14a6,%eax
    2103:	b8 34 00 00 00       	mov    $0x34,%eax
    2108:	cd 80                	int    $0x80
    210a:	90                   	nop
    210b:	5d                   	pop    %ebp
    210c:	c3                   	ret

0000210d <task_lock>:
    210d:	55                   	push   %ebp
    210e:	89 e5                	mov    %esp,%ebp
    2110:	53                   	push   %ebx
    2111:	e8 c5 ed ff ff       	call   edb <__x86.get_pc_thunk.ax>
    2116:	05 8e 14 00 00       	add    $0x148e,%eax
    211b:	8b 45 08             	mov    0x8(%ebp),%eax
    211e:	89 c3                	mov    %eax,%ebx
    2120:	b8 32 00 00 00       	mov    $0x32,%eax
    2125:	cd 80                	int    $0x80
    2127:	90                   	nop
    2128:	8b 5d fc             	mov    -0x4(%ebp),%ebx
    212b:	c9                   	leave
    212c:	c3                   	ret

0000212d <manual_task>:
    212d:	55                   	push   %ebp
    212e:	89 e5                	mov    %esp,%ebp
    2130:	53                   	push   %ebx
    2131:	e8 a5 ed ff ff       	call   edb <__x86.get_pc_thunk.ax>
    2136:	05 6e 14 00 00       	add    $0x146e,%eax
    213b:	8b 45 0c             	mov    0xc(%ebp),%eax
    213e:	89 c1                	mov    %eax,%ecx
    2140:	8b 45 08             	mov    0x8(%ebp),%eax
    2143:	89 c3                	mov    %eax,%ebx
    2145:	b8 26 00 00 00       	mov    $0x26,%eax
    214a:	cd 80                	int    $0x80
    214c:	90                   	nop
    214d:	8b 5d fc             	mov    -0x4(%ebp),%ebx
    2150:	c9                   	leave
    2151:	c3                   	ret

00002152 <vp_init>:
    2152:	55                   	push   %ebp
    2153:	89 e5                	mov    %esp,%ebp
    2155:	53                   	push   %ebx
    2156:	83 ec 14             	sub    $0x14,%esp
    2159:	e8 81 ed ff ff       	call   edf <__x86.get_pc_thunk.bx>
    215e:	81 c3 46 14 00 00    	add    $0x1446,%ebx
    2164:	83 ec 08             	sub    $0x8,%esp
    2167:	6a 01                	push   $0x1
    2169:	8d 83 dc ef ff ff    	lea    -0x1024(%ebx),%eax
    216f:	50                   	push   %eax
    2170:	e8 b4 fd ff ff       	call   1f29 <open>
    2175:	83 c4 10             	add    $0x10,%esp
    2178:	89 45 f4             	mov    %eax,-0xc(%ebp)
    217b:	83 7d f4 ff          	cmpl   $0xffffffff,-0xc(%ebp)
    217f:	74 23                	je     21a4 <vp_init+0x52>
    2181:	83 ec 04             	sub    $0x4,%esp
    2184:	6a 1c                	push   $0x1c
    2186:	c7 c0 f8 35 00 00    	mov    $0x35f8,%eax
    218c:	50                   	push   %eax
    218d:	ff 75 f4             	push   -0xc(%ebp)
    2190:	e8 d8 fd ff ff       	call   1f6d <read>
    2195:	83 c4 10             	add    $0x10,%esp
    2198:	c7 c0 14 36 00 00    	mov    $0x3614,%eax
    219e:	c7 00 01 00 00 00    	movl   $0x1,(%eax)
    21a4:	83 ec 0c             	sub    $0xc,%esp
    21a7:	ff 75 f4             	push   -0xc(%ebp)
    21aa:	e8 9e fd ff ff       	call   1f4d <close>
    21af:	83 c4 10             	add    $0x10,%esp
    21b2:	90                   	nop
    21b3:	8b 5d fc             	mov    -0x4(%ebp),%ebx
    21b6:	c9                   	leave
    21b7:	c3                   	ret

000021b8 <vp_open>:
    21b8:	55                   	push   %ebp
    21b9:	89 e5                	mov    %esp,%ebp
    21bb:	53                   	push   %ebx
    21bc:	83 ec 04             	sub    $0x4,%esp
    21bf:	e8 1b ed ff ff       	call   edf <__x86.get_pc_thunk.bx>
    21c4:	81 c3 e0 13 00 00    	add    $0x13e0,%ebx
    21ca:	c7 c0 14 36 00 00    	mov    $0x3614,%eax
    21d0:	8b 00                	mov    (%eax),%eax
    21d2:	85 c0                	test   %eax,%eax
    21d4:	75 05                	jne    21db <vp_open+0x23>
    21d6:	e8 77 ff ff ff       	call   2152 <vp_init>
    21db:	c7 c0 f8 35 00 00    	mov    $0x35f8,%eax
    21e1:	8b 00                	mov    (%eax),%eax
    21e3:	83 ec 04             	sub    $0x4,%esp
    21e6:	ff 75 10             	push   0x10(%ebp)
    21e9:	ff 75 0c             	push   0xc(%ebp)
    21ec:	ff 75 08             	push   0x8(%ebp)
    21ef:	ff d0                	call   *%eax
    21f1:	83 c4 10             	add    $0x10,%esp
    21f4:	8b 5d fc             	mov    -0x4(%ebp),%ebx
    21f7:	c9                   	leave
    21f8:	c3                   	ret

000021f9 <vp_close>:
    21f9:	55                   	push   %ebp
    21fa:	89 e5                	mov    %esp,%ebp
    21fc:	53                   	push   %ebx
    21fd:	83 ec 04             	sub    $0x4,%esp
    2200:	e8 da ec ff ff       	call   edf <__x86.get_pc_thunk.bx>
    2205:	81 c3 9f 13 00 00    	add    $0x139f,%ebx
    220b:	c7 c0 14 36 00 00    	mov    $0x3614,%eax
    2211:	8b 00                	mov    (%eax),%eax
    2213:	85 c0                	test   %eax,%eax
    2215:	75 05                	jne    221c <vp_close+0x23>
    2217:	e8 36 ff ff ff       	call   2152 <vp_init>
    221c:	c7 c0 f8 35 00 00    	mov    $0x35f8,%eax
    2222:	8b 40 04             	mov    0x4(%eax),%eax
    2225:	83 ec 0c             	sub    $0xc,%esp
    2228:	ff 75 08             	push   0x8(%ebp)
    222b:	ff d0                	call   *%eax
    222d:	83 c4 10             	add    $0x10,%esp
    2230:	90                   	nop
    2231:	8b 5d fc             	mov    -0x4(%ebp),%ebx
    2234:	c9                   	leave
    2235:	c3                   	ret

00002236 <vp_set_buffer>:
    2236:	55                   	push   %ebp
    2237:	89 e5                	mov    %esp,%ebp
    2239:	53                   	push   %ebx
    223a:	83 ec 04             	sub    $0x4,%esp
    223d:	e8 9d ec ff ff       	call   edf <__x86.get_pc_thunk.bx>
    2242:	81 c3 62 13 00 00    	add    $0x1362,%ebx
    2248:	c7 c0 14 36 00 00    	mov    $0x3614,%eax
    224e:	8b 00                	mov    (%eax),%eax
    2250:	85 c0                	test   %eax,%eax
    2252:	75 05                	jne    2259 <vp_set_buffer+0x23>
    2254:	e8 f9 fe ff ff       	call   2152 <vp_init>
    2259:	c7 c0 f8 35 00 00    	mov    $0x35f8,%eax
    225f:	8b 40 08             	mov    0x8(%eax),%eax
    2262:	83 ec 04             	sub    $0x4,%esp
    2265:	ff 75 10             	push   0x10(%ebp)
    2268:	ff 75 0c             	push   0xc(%ebp)
    226b:	ff 75 08             	push   0x8(%ebp)
    226e:	ff d0                	call   *%eax
    2270:	83 c4 10             	add    $0x10,%esp
    2273:	90                   	nop
    2274:	8b 5d fc             	mov    -0x4(%ebp),%ebx
    2277:	c9                   	leave
    2278:	c3                   	ret

00002279 <vp_copy>:
    2279:	55                   	push   %ebp
    227a:	89 e5                	mov    %esp,%ebp
    227c:	53                   	push   %ebx
    227d:	83 ec 04             	sub    $0x4,%esp
    2280:	e8 5a ec ff ff       	call   edf <__x86.get_pc_thunk.bx>
    2285:	81 c3 1f 13 00 00    	add    $0x131f,%ebx
    228b:	c7 c0 14 36 00 00    	mov    $0x3614,%eax
    2291:	8b 00                	mov    (%eax),%eax
    2293:	85 c0                	test   %eax,%eax
    2295:	75 05                	jne    229c <vp_copy+0x23>
    2297:	e8 b6 fe ff ff       	call   2152 <vp_init>
    229c:	c7 c0 f8 35 00 00    	mov    $0x35f8,%eax
    22a2:	8b 40 0c             	mov    0xc(%eax),%eax
    22a5:	83 ec 0c             	sub    $0xc,%esp
    22a8:	ff 75 08             	push   0x8(%ebp)
    22ab:	ff d0                	call   *%eax
    22ad:	83 c4 10             	add    $0x10,%esp
    22b0:	90                   	nop
    22b1:	8b 5d fc             	mov    -0x4(%ebp),%ebx
    22b4:	c9                   	leave
    22b5:	c3                   	ret

000022b6 <vp_add_event_handler>:
    22b6:	55                   	push   %ebp
    22b7:	89 e5                	mov    %esp,%ebp
    22b9:	53                   	push   %ebx
    22ba:	83 ec 04             	sub    $0x4,%esp
    22bd:	e8 1d ec ff ff       	call   edf <__x86.get_pc_thunk.bx>
    22c2:	81 c3 e2 12 00 00    	add    $0x12e2,%ebx
    22c8:	c7 c0 14 36 00 00    	mov    $0x3614,%eax
    22ce:	8b 00                	mov    (%eax),%eax
    22d0:	85 c0                	test   %eax,%eax
    22d2:	75 05                	jne    22d9 <vp_add_event_handler+0x23>
    22d4:	e8 79 fe ff ff       	call   2152 <vp_init>
    22d9:	c7 c0 f8 35 00 00    	mov    $0x35f8,%eax
    22df:	8b 40 10             	mov    0x10(%eax),%eax
    22e2:	83 ec 08             	sub    $0x8,%esp
    22e5:	ff 75 0c             	push   0xc(%ebp)
    22e8:	ff 75 08             	push   0x8(%ebp)
    22eb:	ff d0                	call   *%eax
    22ed:	83 c4 10             	add    $0x10,%esp
    22f0:	90                   	nop
    22f1:	8b 5d fc             	mov    -0x4(%ebp),%ebx
    22f4:	c9                   	leave
    22f5:	c3                   	ret

000022f6 <vp_drawChar>:
    22f6:	55                   	push   %ebp
    22f7:	89 e5                	mov    %esp,%ebp
    22f9:	53                   	push   %ebx
    22fa:	83 ec 14             	sub    $0x14,%esp
    22fd:	e8 dd eb ff ff       	call   edf <__x86.get_pc_thunk.bx>
    2302:	81 c3 a2 12 00 00    	add    $0x12a2,%ebx
    2308:	8b 45 14             	mov    0x14(%ebp),%eax
    230b:	88 45 f4             	mov    %al,-0xc(%ebp)
    230e:	c7 c0 14 36 00 00    	mov    $0x3614,%eax
    2314:	8b 00                	mov    (%eax),%eax
    2316:	85 c0                	test   %eax,%eax
    2318:	75 05                	jne    231f <vp_drawChar+0x29>
    231a:	e8 33 fe ff ff       	call   2152 <vp_init>
    231f:	c7 c0 f8 35 00 00    	mov    $0x35f8,%eax
    2325:	8b 40 14             	mov    0x14(%eax),%eax
    2328:	0f be 55 f4          	movsbl -0xc(%ebp),%edx
    232c:	83 ec 08             	sub    $0x8,%esp
    232f:	ff 75 1c             	push   0x1c(%ebp)
    2332:	ff 75 18             	push   0x18(%ebp)
    2335:	52                   	push   %edx
    2336:	ff 75 10             	push   0x10(%ebp)
    2339:	ff 75 0c             	push   0xc(%ebp)
    233c:	ff 75 08             	push   0x8(%ebp)
    233f:	ff d0                	call   *%eax
    2341:	83 c4 20             	add    $0x20,%esp
    2344:	90                   	nop
    2345:	8b 5d fc             	mov    -0x4(%ebp),%ebx
    2348:	c9                   	leave
    2349:	c3                   	ret

0000234a <vp_getc>:
    234a:	55                   	push   %ebp
    234b:	89 e5                	mov    %esp,%ebp
    234d:	53                   	push   %ebx
    234e:	83 ec 04             	sub    $0x4,%esp
    2351:	e8 89 eb ff ff       	call   edf <__x86.get_pc_thunk.bx>
    2356:	81 c3 4e 12 00 00    	add    $0x124e,%ebx
    235c:	c7 c0 14 36 00 00    	mov    $0x3614,%eax
    2362:	8b 00                	mov    (%eax),%eax
    2364:	85 c0                	test   %eax,%eax
    2366:	75 05                	jne    236d <vp_getc+0x23>
    2368:	e8 e5 fd ff ff       	call   2152 <vp_init>
    236d:	c7 c0 f8 35 00 00    	mov    $0x35f8,%eax
    2373:	8b 40 18             	mov    0x18(%eax),%eax
    2376:	83 ec 0c             	sub    $0xc,%esp
    2379:	ff 75 08             	push   0x8(%ebp)
    237c:	ff d0                	call   *%eax
    237e:	83 c4 10             	add    $0x10,%esp
    2381:	90                   	nop
    2382:	8b 5d fc             	mov    -0x4(%ebp),%ebx
    2385:	c9                   	leave
    2386:	c3                   	ret

00002387 <isdigit>:
    2387:	55                   	push   %ebp
    2388:	89 e5                	mov    %esp,%ebp
    238a:	e8 4c eb ff ff       	call   edb <__x86.get_pc_thunk.ax>
    238f:	05 15 12 00 00       	add    $0x1215,%eax
    2394:	83 7d 08 39          	cmpl   $0x39,0x8(%ebp)
    2398:	7f 0d                	jg     23a7 <isdigit+0x20>
    239a:	83 7d 08 2f          	cmpl   $0x2f,0x8(%ebp)
    239e:	7e 07                	jle    23a7 <isdigit+0x20>
    23a0:	b8 01 00 00 00       	mov    $0x1,%eax
    23a5:	eb 05                	jmp    23ac <isdigit+0x25>
    23a7:	b8 00 00 00 00       	mov    $0x0,%eax
    23ac:	5d                   	pop    %ebp
    23ad:	c3                   	ret

000023ae <isalpha>:
    23ae:	55                   	push   %ebp
    23af:	89 e5                	mov    %esp,%ebp
    23b1:	e8 25 eb ff ff       	call   edb <__x86.get_pc_thunk.ax>
    23b6:	05 ee 11 00 00       	add    $0x11ee,%eax
    23bb:	83 7d 08 40          	cmpl   $0x40,0x8(%ebp)
    23bf:	7e 06                	jle    23c7 <isalpha+0x19>
    23c1:	83 7d 08 5a          	cmpl   $0x5a,0x8(%ebp)
    23c5:	7e 0c                	jle    23d3 <isalpha+0x25>
    23c7:	83 7d 08 60          	cmpl   $0x60,0x8(%ebp)
    23cb:	7e 0d                	jle    23da <isalpha+0x2c>
    23cd:	83 7d 08 7a          	cmpl   $0x7a,0x8(%ebp)
    23d1:	7f 07                	jg     23da <isalpha+0x2c>
    23d3:	b8 01 00 00 00       	mov    $0x1,%eax
    23d8:	eb 05                	jmp    23df <isalpha+0x31>
    23da:	b8 00 00 00 00       	mov    $0x0,%eax
    23df:	5d                   	pop    %ebp
    23e0:	c3                   	ret

000023e1 <isupper>:
    23e1:	55                   	push   %ebp
    23e2:	89 e5                	mov    %esp,%ebp
    23e4:	e8 f2 ea ff ff       	call   edb <__x86.get_pc_thunk.ax>
    23e9:	05 bb 11 00 00       	add    $0x11bb,%eax
    23ee:	83 7d 08 40          	cmpl   $0x40,0x8(%ebp)
    23f2:	7e 0d                	jle    2401 <isupper+0x20>
    23f4:	83 7d 08 5a          	cmpl   $0x5a,0x8(%ebp)
    23f8:	7f 07                	jg     2401 <isupper+0x20>
    23fa:	b8 01 00 00 00       	mov    $0x1,%eax
    23ff:	eb 05                	jmp    2406 <isupper+0x25>
    2401:	b8 00 00 00 00       	mov    $0x0,%eax
    2406:	5d                   	pop    %ebp
    2407:	c3                   	ret

00002408 <tolower>:
    2408:	55                   	push   %ebp
    2409:	89 e5                	mov    %esp,%ebp
    240b:	e8 cb ea ff ff       	call   edb <__x86.get_pc_thunk.ax>
    2410:	05 94 11 00 00       	add    $0x1194,%eax
    2415:	83 7d 08 40          	cmpl   $0x40,0x8(%ebp)
    2419:	7e 0e                	jle    2429 <tolower+0x21>
    241b:	83 7d 08 5a          	cmpl   $0x5a,0x8(%ebp)
    241f:	7f 08                	jg     2429 <tolower+0x21>
    2421:	8b 45 08             	mov    0x8(%ebp),%eax
    2424:	83 e8 41             	sub    $0x41,%eax
    2427:	eb 03                	jmp    242c <tolower+0x24>
    2429:	8b 45 08             	mov    0x8(%ebp),%eax
    242c:	5d                   	pop    %ebp
    242d:	c3                   	ret

0000242e <toupper>:
    242e:	55                   	push   %ebp
    242f:	89 e5                	mov    %esp,%ebp
    2431:	e8 a5 ea ff ff       	call   edb <__x86.get_pc_thunk.ax>
    2436:	05 6e 11 00 00       	add    $0x116e,%eax
    243b:	83 7d 08 60          	cmpl   $0x60,0x8(%ebp)
    243f:	7e 0e                	jle    244f <toupper+0x21>
    2441:	83 7d 08 7a          	cmpl   $0x7a,0x8(%ebp)
    2445:	7f 08                	jg     244f <toupper+0x21>
    2447:	8b 45 08             	mov    0x8(%ebp),%eax
    244a:	83 e8 20             	sub    $0x20,%eax
    244d:	eb 03                	jmp    2452 <toupper+0x24>
    244f:	8b 45 08             	mov    0x8(%ebp),%eax
    2452:	5d                   	pop    %ebp
    2453:	c3                   	ret

00002454 <__do_global_ctors_aux>:
    2454:	a1 94 35 00 00       	mov    0x3594,%eax
    2459:	83 f8 ff             	cmp    $0xffffffff,%eax
    245c:	74 1e                	je     247c <__do_global_ctors_aux+0x28>
    245e:	55                   	push   %ebp
    245f:	89 e5                	mov    %esp,%ebp
    2461:	53                   	push   %ebx
    2462:	52                   	push   %edx
    2463:	bb 94 35 00 00       	mov    $0x3594,%ebx
    2468:	ff d0                	call   *%eax
    246a:	83 eb 04             	sub    $0x4,%ebx
    246d:	8b 03                	mov    (%ebx),%eax
    246f:	83 f8 ff             	cmp    $0xffffffff,%eax
    2472:	75 f4                	jne    2468 <__do_global_ctors_aux+0x14>
    2474:	8b 5d fc             	mov    -0x4(%ebp),%ebx
    2477:	c9                   	leave
    2478:	c3                   	ret
    2479:	8d 76 00             	lea    0x0(%esi),%esi
    247c:	c3                   	ret

Disassembly of section .fini:

0000247d <_fini>:
    247d:	e8 9a dc ff ff       	call   11c <__do_global_dtors_aux>
    2482:	c2 00 00             	ret    $0x0
